ARM GAS  C:\Users\df16\AppData\Local\Temp\ccR8z2ME.s 			page 1


   1              		.syntax unified
   2              		.cpu cortex-m3
   3              		.fpu softvfp
   4              		.eabi_attribute 20, 1
   5              		.eabi_attribute 21, 1
   6              		.eabi_attribute 23, 3
   7              		.eabi_attribute 24, 1
   8              		.eabi_attribute 25, 1
   9              		.eabi_attribute 26, 1
  10              		.eabi_attribute 30, 1
  11              		.eabi_attribute 34, 1
  12              		.eabi_attribute 18, 4
  13              		.thumb
  14              		.syntax unified
  15              		.file	"MijnTaken.c"
  16              		.text
  17              	.Ltext0:
  18              		.cfi_sections	.debug_frame
  19              		.section	.text.motorSturingFunc,"ax",%progbits
  20              		.align	2
  21              		.global	motorSturingFunc
  22              		.thumb
  23              		.thumb_func
  24              		.type	motorSturingFunc, %function
  25              	motorSturingFunc:
  26              	.LFB68:
  27              		.file 1 "MijnTaken.c"
   1:MijnTaken.c   **** #include <project.h>
   2:MijnTaken.c   **** #include <UART.h>
   3:MijnTaken.c   **** #include <Wagen.h>
   4:MijnTaken.c   **** 
   5:MijnTaken.c   **** RingBuf rcx_buffer;
   6:MijnTaken.c   **** QueueHandle_t   comm_naar_motor, comm_naar_ESP, ESP_naar_comm;
   7:MijnTaken.c   **** uint8 snelheden_prod[2], snelheden_cons[2], comm_ESP_prod_data[3], comm_ESP_cons_data[3];
   8:MijnTaken.c   **** int bericht = 0;
   9:MijnTaken.c   **** 
  10:MijnTaken.c   **** void opstart(){
  11:MijnTaken.c   ****     setupFreeRTOS();
  12:MijnTaken.c   ****     wagen_start();
  13:MijnTaken.c   ****     
  14:MijnTaken.c   ****     comm_naar_ESP = xQueueCreate(10, 3);
  15:MijnTaken.c   ****     //comm_naar_lijn = xQueueCreate(5,1);
  16:MijnTaken.c   ****     comm_naar_motor = xQueueCreate(5, 2);
  17:MijnTaken.c   ****     //motor_naar_comm = xQueueCreate(5, 2);
  18:MijnTaken.c   ****     //lijn_naar_comm = xQueueCreate(5, 1);
  19:MijnTaken.c   ****     ESP_naar_comm = xQueueCreate(10,2);
  20:MijnTaken.c   **** }
  21:MijnTaken.c   **** //taak functies
  22:MijnTaken.c   **** void motorSturingFunc(){
  28              		.loc 1 22 0
  29              		.cfi_startproc
  30              		@ Volatile: function does not return.
  31              		@ args = 0, pretend = 0, frame = 0
  32              		@ frame_needed = 0, uses_anonymous_args = 0
  33 0000 08B5     		push	{r3, lr}
  34              		.cfi_def_cfa_offset 8
  35              		.cfi_offset 3, -8
ARM GAS  C:\Users\df16\AppData\Local\Temp\ccR8z2ME.s 			page 2


  36              		.cfi_offset 14, -4
  37              	.L2:
  23:MijnTaken.c   ****     while(1){
  24:MijnTaken.c   ****         xQueueReceive(comm_naar_motor,&snelheden_cons,10);
  38              		.loc 1 24 0 discriminator 1
  39 0002 074C     		ldr	r4, .L4
  40 0004 0A22     		movs	r2, #10
  41 0006 2146     		mov	r1, r4
  42 0008 064B     		ldr	r3, .L4+4
  43 000a 1868     		ldr	r0, [r3]
  44 000c FFF7FEFF 		bl	xQueueReceive
  45              	.LVL0:
  25:MijnTaken.c   ****         snelheidsregelaar(snelheden_cons[LINKS],snelheden_cons[RECHTS]);
  46              		.loc 1 25 0 discriminator 1
  47 0010 6178     		ldrb	r1, [r4, #1]	@ zero_extendqisi2
  48 0012 2078     		ldrb	r0, [r4]	@ zero_extendqisi2
  49 0014 FFF7FEFF 		bl	snelheidsregelaar
  50              	.LVL1:
  26:MijnTaken.c   ****         vTaskDelay(100);
  51              		.loc 1 26 0 discriminator 1
  52 0018 6420     		movs	r0, #100
  53 001a FFF7FEFF 		bl	vTaskDelay
  54              	.LVL2:
  55 001e F0E7     		b	.L2
  56              	.L5:
  57              		.align	2
  58              	.L4:
  59 0020 00000000 		.word	snelheden_cons
  60 0024 00000000 		.word	comm_naar_motor
  61              		.cfi_endproc
  62              	.LFE68:
  63              		.size	motorSturingFunc, .-motorSturingFunc
  64              		.section	.text.sensorFunc,"ax",%progbits
  65              		.align	2
  66              		.global	sensorFunc
  67              		.thumb
  68              		.thumb_func
  69              		.type	sensorFunc, %function
  70              	sensorFunc:
  71              	.LFB69:
  27:MijnTaken.c   ****     }
  28:MijnTaken.c   **** }
  29:MijnTaken.c   **** void sensorFunc(){
  72              		.loc 1 29 0
  73              		.cfi_startproc
  74              		@ Volatile: function does not return.
  75              		@ args = 0, pretend = 0, frame = 0
  76              		@ frame_needed = 0, uses_anonymous_args = 0
  77 0000 08B5     		push	{r3, lr}
  78              		.cfi_def_cfa_offset 8
  79              		.cfi_offset 3, -8
  80              		.cfi_offset 14, -4
  81              	.L7:
  30:MijnTaken.c   ****     while(1){
  31:MijnTaken.c   ****         commArrMaker();
  82              		.loc 1 31 0 discriminator 1
  83 0002 FFF7FEFF 		bl	commArrMaker
ARM GAS  C:\Users\df16\AppData\Local\Temp\ccR8z2ME.s 			page 3


  84              	.LVL3:
  32:MijnTaken.c   ****         xQueueSend(comm_naar_ESP, &comm_ESP_prod_data, 10);
  85              		.loc 1 32 0 discriminator 1
  86 0006 0023     		movs	r3, #0
  87 0008 0A22     		movs	r2, #10
  88 000a 0449     		ldr	r1, .L9
  89 000c 0448     		ldr	r0, .L9+4
  90 000e 0068     		ldr	r0, [r0]
  91 0010 FFF7FEFF 		bl	xQueueGenericSend
  92              	.LVL4:
  33:MijnTaken.c   ****         vTaskDelay(100);
  93              		.loc 1 33 0 discriminator 1
  94 0014 6420     		movs	r0, #100
  95 0016 FFF7FEFF 		bl	vTaskDelay
  96              	.LVL5:
  97 001a F2E7     		b	.L7
  98              	.L10:
  99              		.align	2
 100              	.L9:
 101 001c 00000000 		.word	comm_ESP_prod_data
 102 0020 00000000 		.word	comm_naar_ESP
 103              		.cfi_endproc
 104              	.LFE69:
 105              		.size	sensorFunc, .-sensorFunc
 106              		.section	.text.trxFunc,"ax",%progbits
 107              		.align	2
 108              		.global	trxFunc
 109              		.thumb
 110              		.thumb_func
 111              		.type	trxFunc, %function
 112              	trxFunc:
 113              	.LFB70:
  34:MijnTaken.c   ****     }
  35:MijnTaken.c   **** }
  36:MijnTaken.c   **** void trxFunc(){
 114              		.loc 1 36 0
 115              		.cfi_startproc
 116              		@ Volatile: function does not return.
 117              		@ args = 0, pretend = 0, frame = 0
 118              		@ frame_needed = 0, uses_anonymous_args = 0
 119 0000 08B5     		push	{r3, lr}
 120              		.cfi_def_cfa_offset 8
 121              		.cfi_offset 3, -8
 122              		.cfi_offset 14, -4
 123              	.L12:
  37:MijnTaken.c   ****     while(1){
  38:MijnTaken.c   ****         xQueueReceive(comm_naar_ESP, &comm_ESP_prod_data, 10);
 124              		.loc 1 38 0 discriminator 1
 125 0002 074C     		ldr	r4, .L14
 126 0004 0A22     		movs	r2, #10
 127 0006 2146     		mov	r1, r4
 128 0008 064B     		ldr	r3, .L14+4
 129 000a 1868     		ldr	r0, [r3]
 130 000c FFF7FEFF 		bl	xQueueReceive
 131              	.LVL6:
  39:MijnTaken.c   ****         trx_verzend(comm_ESP_prod_data);
 132              		.loc 1 39 0 discriminator 1
ARM GAS  C:\Users\df16\AppData\Local\Temp\ccR8z2ME.s 			page 4


 133 0010 2046     		mov	r0, r4
 134 0012 FFF7FEFF 		bl	trx_verzend
 135              	.LVL7:
  40:MijnTaken.c   ****         vTaskDelay(50);
 136              		.loc 1 40 0 discriminator 1
 137 0016 3220     		movs	r0, #50
 138 0018 FFF7FEFF 		bl	vTaskDelay
 139              	.LVL8:
 140 001c F1E7     		b	.L12
 141              	.L15:
 142 001e 00BF     		.align	2
 143              	.L14:
 144 0020 00000000 		.word	comm_ESP_prod_data
 145 0024 00000000 		.word	comm_naar_ESP
 146              		.cfi_endproc
 147              	.LFE70:
 148              		.size	trxFunc, .-trxFunc
 149              		.section	.text.rcxFunc,"ax",%progbits
 150              		.align	2
 151              		.global	rcxFunc
 152              		.thumb
 153              		.thumb_func
 154              		.type	rcxFunc, %function
 155              	rcxFunc:
 156              	.LFB71:
  41:MijnTaken.c   ****     }
  42:MijnTaken.c   **** }
  43:MijnTaken.c   **** void rcxFunc(){
 157              		.loc 1 43 0
 158              		.cfi_startproc
 159              		@ args = 0, pretend = 0, frame = 8
 160              		@ frame_needed = 0, uses_anonymous_args = 0
 161 0000 00B5     		push	{lr}
 162              		.cfi_def_cfa_offset 4
 163              		.cfi_offset 14, -4
 164 0002 83B0     		sub	sp, sp, #12
 165              		.cfi_def_cfa_offset 16
 166              	.L18:
  44:MijnTaken.c   ****     while(1){
  45:MijnTaken.c   ****         if(bericht>1){
 167              		.loc 1 45 0
 168 0004 0C4B     		ldr	r3, .L20
 169 0006 1B68     		ldr	r3, [r3]
 170 0008 012B     		cmp	r3, #1
 171 000a 10DD     		ble	.L17
 172              	.LBB2:
  46:MijnTaken.c   ****             uint8 snelheden_prod = RingBuf_getchar(&rcx_buffer);
 173              		.loc 1 46 0
 174 000c 0B48     		ldr	r0, .L20+4
 175 000e FFF7FEFF 		bl	RingBuf_getchar
 176              	.LVL9:
 177 0012 02A9     		add	r1, sp, #8
 178 0014 01F8010D 		strb	r0, [r1, #-1]!
  47:MijnTaken.c   ****             xQueueSend(comm_naar_motor, &snelheden_prod, portMAX_DELAY);
 179              		.loc 1 47 0
 180 0018 0023     		movs	r3, #0
 181 001a 4FF0FF32 		mov	r2, #-1
ARM GAS  C:\Users\df16\AppData\Local\Temp\ccR8z2ME.s 			page 5


 182 001e 0848     		ldr	r0, .L20+8
 183 0020 0068     		ldr	r0, [r0]
 184 0022 FFF7FEFF 		bl	xQueueGenericSend
 185              	.LVL10:
  48:MijnTaken.c   ****             --bericht;
 186              		.loc 1 48 0
 187 0026 044A     		ldr	r2, .L20
 188 0028 1368     		ldr	r3, [r2]
 189 002a 013B     		subs	r3, r3, #1
 190 002c 1360     		str	r3, [r2]
 191              	.L17:
 192              	.LBE2:
  49:MijnTaken.c   ****         }
  50:MijnTaken.c   ****         vTaskDelay(50);
 193              		.loc 1 50 0
 194 002e 3220     		movs	r0, #50
 195 0030 FFF7FEFF 		bl	vTaskDelay
 196              	.LVL11:
  51:MijnTaken.c   ****     }
 197              		.loc 1 51 0
 198 0034 E6E7     		b	.L18
 199              	.L21:
 200 0036 00BF     		.align	2
 201              	.L20:
 202 0038 00000000 		.word	.LANCHOR0
 203 003c 00000000 		.word	rcx_buffer
 204 0040 00000000 		.word	comm_naar_motor
 205              		.cfi_endproc
 206              	.LFE71:
 207              		.size	rcxFunc, .-rcxFunc
 208              		.section	.text.opstart,"ax",%progbits
 209              		.align	2
 210              		.global	opstart
 211              		.thumb
 212              		.thumb_func
 213              		.type	opstart, %function
 214              	opstart:
 215              	.LFB67:
  10:MijnTaken.c   ****     setupFreeRTOS();
 216              		.loc 1 10 0
 217              		.cfi_startproc
 218              		@ args = 0, pretend = 0, frame = 0
 219              		@ frame_needed = 0, uses_anonymous_args = 0
 220 0000 08B5     		push	{r3, lr}
 221              		.cfi_def_cfa_offset 8
 222              		.cfi_offset 3, -8
 223              		.cfi_offset 14, -4
  11:MijnTaken.c   ****     wagen_start();
 224              		.loc 1 11 0
 225 0002 FFF7FEFF 		bl	setupFreeRTOS
 226              	.LVL12:
  12:MijnTaken.c   ****     
 227              		.loc 1 12 0
 228 0006 FFF7FEFF 		bl	wagen_start
 229              	.LVL13:
  14:MijnTaken.c   ****     //comm_naar_lijn = xQueueCreate(5,1);
 230              		.loc 1 14 0
ARM GAS  C:\Users\df16\AppData\Local\Temp\ccR8z2ME.s 			page 6


 231 000a 0022     		movs	r2, #0
 232 000c 0321     		movs	r1, #3
 233 000e 0A20     		movs	r0, #10
 234 0010 FFF7FEFF 		bl	xQueueGenericCreate
 235              	.LVL14:
 236 0014 084B     		ldr	r3, .L24
 237 0016 1860     		str	r0, [r3]
  16:MijnTaken.c   ****     //motor_naar_comm = xQueueCreate(5, 2);
 238              		.loc 1 16 0
 239 0018 0022     		movs	r2, #0
 240 001a 0221     		movs	r1, #2
 241 001c 0520     		movs	r0, #5
 242 001e FFF7FEFF 		bl	xQueueGenericCreate
 243              	.LVL15:
 244 0022 064B     		ldr	r3, .L24+4
 245 0024 1860     		str	r0, [r3]
  19:MijnTaken.c   **** }
 246              		.loc 1 19 0
 247 0026 0022     		movs	r2, #0
 248 0028 0221     		movs	r1, #2
 249 002a 0A20     		movs	r0, #10
 250 002c FFF7FEFF 		bl	xQueueGenericCreate
 251              	.LVL16:
 252 0030 034B     		ldr	r3, .L24+8
 253 0032 1860     		str	r0, [r3]
 254 0034 08BD     		pop	{r3, pc}
 255              	.L25:
 256 0036 00BF     		.align	2
 257              	.L24:
 258 0038 00000000 		.word	comm_naar_ESP
 259 003c 00000000 		.word	comm_naar_motor
 260 0040 00000000 		.word	ESP_naar_comm
 261              		.cfi_endproc
 262              	.LFE67:
 263              		.size	opstart, .-opstart
 264              		.section	.text.rcxTaakSetup,"ax",%progbits
 265              		.align	2
 266              		.global	rcxTaakSetup
 267              		.thumb
 268              		.thumb_func
 269              		.type	rcxTaakSetup, %function
 270              	rcxTaakSetup:
 271              	.LFB72:
  52:MijnTaken.c   **** }
  53:MijnTaken.c   **** 
  54:MijnTaken.c   **** //taak declaraties
  55:MijnTaken.c   **** void rcxTaakSetup(void *arg){
 272              		.loc 1 55 0
 273              		.cfi_startproc
 274              		@ args = 0, pretend = 0, frame = 0
 275              		@ frame_needed = 0, uses_anonymous_args = 0
 276              	.LVL17:
 277 0000 00B5     		push	{lr}
 278              		.cfi_def_cfa_offset 4
 279              		.cfi_offset 14, -4
 280 0002 83B0     		sub	sp, sp, #12
 281              		.cfi_def_cfa_offset 16
ARM GAS  C:\Users\df16\AppData\Local\Temp\ccR8z2ME.s 			page 7


  56:MijnTaken.c   ****     xTaskCreate(rcxFunc,"UART ontvanger",500,arg,1,0);
 282              		.loc 1 56 0
 283 0004 0023     		movs	r3, #0
 284 0006 0193     		str	r3, [sp, #4]
 285 0008 0123     		movs	r3, #1
 286 000a 0093     		str	r3, [sp]
 287 000c 0346     		mov	r3, r0
 288 000e 4FF4FA72 		mov	r2, #500
 289 0012 0349     		ldr	r1, .L28
 290 0014 0348     		ldr	r0, .L28+4
 291              	.LVL18:
 292 0016 FFF7FEFF 		bl	xTaskCreate
 293              	.LVL19:
  57:MijnTaken.c   **** }
 294              		.loc 1 57 0
 295 001a 03B0     		add	sp, sp, #12
 296              		.cfi_def_cfa_offset 4
 297              		@ sp needed
 298 001c 5DF804FB 		ldr	pc, [sp], #4
 299              	.L29:
 300              		.align	2
 301              	.L28:
 302 0020 00000000 		.word	.LC0
 303 0024 00000000 		.word	rcxFunc
 304              		.cfi_endproc
 305              	.LFE72:
 306              		.size	rcxTaakSetup, .-rcxTaakSetup
 307              		.section	.text.trxTaakSetup,"ax",%progbits
 308              		.align	2
 309              		.global	trxTaakSetup
 310              		.thumb
 311              		.thumb_func
 312              		.type	trxTaakSetup, %function
 313              	trxTaakSetup:
 314              	.LFB73:
  58:MijnTaken.c   **** void trxTaakSetup(void *arg){
 315              		.loc 1 58 0
 316              		.cfi_startproc
 317              		@ args = 0, pretend = 0, frame = 0
 318              		@ frame_needed = 0, uses_anonymous_args = 0
 319              	.LVL20:
 320 0000 00B5     		push	{lr}
 321              		.cfi_def_cfa_offset 4
 322              		.cfi_offset 14, -4
 323 0002 83B0     		sub	sp, sp, #12
 324              		.cfi_def_cfa_offset 16
  59:MijnTaken.c   ****     xTaskCreate(trxFunc,"UART verzender",500,arg,1,0);
 325              		.loc 1 59 0
 326 0004 0023     		movs	r3, #0
 327 0006 0193     		str	r3, [sp, #4]
 328 0008 0123     		movs	r3, #1
 329 000a 0093     		str	r3, [sp]
 330 000c 0346     		mov	r3, r0
 331 000e 4FF4FA72 		mov	r2, #500
 332 0012 0349     		ldr	r1, .L32
 333 0014 0348     		ldr	r0, .L32+4
 334              	.LVL21:
ARM GAS  C:\Users\df16\AppData\Local\Temp\ccR8z2ME.s 			page 8


 335 0016 FFF7FEFF 		bl	xTaskCreate
 336              	.LVL22:
  60:MijnTaken.c   **** }
 337              		.loc 1 60 0
 338 001a 03B0     		add	sp, sp, #12
 339              		.cfi_def_cfa_offset 4
 340              		@ sp needed
 341 001c 5DF804FB 		ldr	pc, [sp], #4
 342              	.L33:
 343              		.align	2
 344              	.L32:
 345 0020 10000000 		.word	.LC1
 346 0024 00000000 		.word	trxFunc
 347              		.cfi_endproc
 348              	.LFE73:
 349              		.size	trxTaakSetup, .-trxTaakSetup
 350              		.section	.text.motorTaakSetup,"ax",%progbits
 351              		.align	2
 352              		.global	motorTaakSetup
 353              		.thumb
 354              		.thumb_func
 355              		.type	motorTaakSetup, %function
 356              	motorTaakSetup:
 357              	.LFB74:
  61:MijnTaken.c   **** void motorTaakSetup(void *arg){
 358              		.loc 1 61 0
 359              		.cfi_startproc
 360              		@ args = 0, pretend = 0, frame = 0
 361              		@ frame_needed = 0, uses_anonymous_args = 0
 362              	.LVL23:
 363 0000 00B5     		push	{lr}
 364              		.cfi_def_cfa_offset 4
 365              		.cfi_offset 14, -4
 366 0002 83B0     		sub	sp, sp, #12
 367              		.cfi_def_cfa_offset 16
  62:MijnTaken.c   ****     xTaskCreate(motorSturingFunc,"regelt vermogen",200,arg,1,0);
 368              		.loc 1 62 0
 369 0004 0023     		movs	r3, #0
 370 0006 0193     		str	r3, [sp, #4]
 371 0008 0123     		movs	r3, #1
 372 000a 0093     		str	r3, [sp]
 373 000c 0346     		mov	r3, r0
 374 000e C822     		movs	r2, #200
 375 0010 0349     		ldr	r1, .L36
 376 0012 0448     		ldr	r0, .L36+4
 377              	.LVL24:
 378 0014 FFF7FEFF 		bl	xTaskCreate
 379              	.LVL25:
  63:MijnTaken.c   **** }
 380              		.loc 1 63 0
 381 0018 03B0     		add	sp, sp, #12
 382              		.cfi_def_cfa_offset 4
 383              		@ sp needed
 384 001a 5DF804FB 		ldr	pc, [sp], #4
 385              	.L37:
 386 001e 00BF     		.align	2
 387              	.L36:
ARM GAS  C:\Users\df16\AppData\Local\Temp\ccR8z2ME.s 			page 9


 388 0020 20000000 		.word	.LC2
 389 0024 00000000 		.word	motorSturingFunc
 390              		.cfi_endproc
 391              	.LFE74:
 392              		.size	motorTaakSetup, .-motorTaakSetup
 393              		.section	.text.sensorTaakSetup,"ax",%progbits
 394              		.align	2
 395              		.global	sensorTaakSetup
 396              		.thumb
 397              		.thumb_func
 398              		.type	sensorTaakSetup, %function
 399              	sensorTaakSetup:
 400              	.LFB75:
  64:MijnTaken.c   **** void sensorTaakSetup(void *arg){
 401              		.loc 1 64 0
 402              		.cfi_startproc
 403              		@ args = 0, pretend = 0, frame = 0
 404              		@ frame_needed = 0, uses_anonymous_args = 0
 405              	.LVL26:
 406 0000 00B5     		push	{lr}
 407              		.cfi_def_cfa_offset 4
 408              		.cfi_offset 14, -4
 409 0002 83B0     		sub	sp, sp, #12
 410              		.cfi_def_cfa_offset 16
  65:MijnTaken.c   ****     xTaskCreate(sensorFunc,"stelt status op",200,arg,1,0);
 411              		.loc 1 65 0
 412 0004 0023     		movs	r3, #0
 413 0006 0193     		str	r3, [sp, #4]
 414 0008 0123     		movs	r3, #1
 415 000a 0093     		str	r3, [sp]
 416 000c 0346     		mov	r3, r0
 417 000e C822     		movs	r2, #200
 418 0010 0349     		ldr	r1, .L40
 419 0012 0448     		ldr	r0, .L40+4
 420              	.LVL27:
 421 0014 FFF7FEFF 		bl	xTaskCreate
 422              	.LVL28:
  66:MijnTaken.c   **** }...
 423              		.loc 1 66 0
 424 0018 03B0     		add	sp, sp, #12
 425              		.cfi_def_cfa_offset 4
 426              		@ sp needed
 427 001a 5DF804FB 		ldr	pc, [sp], #4
 428              	.L41:
 429 001e 00BF     		.align	2
 430              	.L40:
 431 0020 30000000 		.word	.LC3
 432 0024 00000000 		.word	sensorFunc
 433              		.cfi_endproc
 434              	.LFE75:
 435              		.size	sensorTaakSetup, .-sensorTaakSetup
 436              		.global	bericht
 437              		.comm	comm_ESP_cons_data,3,4
 438              		.comm	comm_ESP_prod_data,3,4
 439              		.comm	snelheden_cons,2,4
 440              		.comm	snelheden_prod,2,4
 441              		.comm	ESP_naar_comm,4,4
ARM GAS  C:\Users\df16\AppData\Local\Temp\ccR8z2ME.s 			page 10


 442              		.comm	comm_naar_ESP,4,4
 443              		.comm	comm_naar_motor,4,4
 444              		.comm	rcx_buffer,112,4
 445              		.comm	kantArr,2,4
 446              		.comm	commArr,3,4
 447              		.comm	vermogensArr,2,4
 448              		.comm	lijnArr,3,4
 449              		.section	.rodata.str1.4,"aMS",%progbits,1
 450              		.align	2
 451              	.LC0:
 452 0000 55415254 		.ascii	"UART ontvanger\000"
 452      206F6E74 
 452      76616E67 
 452      657200
 453 000f 00       		.space	1
 454              	.LC1:
 455 0010 55415254 		.ascii	"UART verzender\000"
 455      20766572 
 455      7A656E64 
 455      657200
 456 001f 00       		.space	1
 457              	.LC2:
 458 0020 72656765 		.ascii	"regelt vermogen\000"
 458      6C742076 
 458      65726D6F 
 458      67656E00 
 459              	.LC3:
 460 0030 7374656C 		.ascii	"stelt status op\000"
 460      74207374 
 460      61747573 
 460      206F7000 
 461              		.bss
 462              		.align	2
 463              		.set	.LANCHOR0,. + 0
 464              		.type	bericht, %object
 465              		.size	bericht, 4
 466              	bericht:
 467 0000 00000000 		.space	4
 468              		.text
 469              	.Letext0:
 470              		.file 2 "c:\\program files (x86)\\cypress\\psoc creator\\4.4\\psoc creator\\import\\gnu\\arm\\5.4.
 471              		.file 3 "c:\\program files (x86)\\cypress\\psoc creator\\4.4\\psoc creator\\import\\gnu\\arm\\5.4.
 472              		.file 4 "Generated_Source\\PSoC5/cytypes.h"
 473              		.file 5 "g:\\project\\psocwagen\\psoc\\ucll_koen_lib.cylib\\myfreertos\\source\\portable\\gcc\\arm
 474              		.file 6 "..\\..\\UCLL_Koen_lib.cylib\\myFreeRTOS\\Source\\include/queue.h"
 475              		.file 7 "./UART.h"
 476              		.file 8 "Generated_Source\\PSoC5/core_cm3.h"
 477              		.file 9 "./Wagen.h"
 478              		.file 10 "..\\..\\UCLL_Koen_lib.cylib\\myFreeRTOS\\Source\\include/task.h"
 479              		.file 11 "Generated_Source\\PSoC5/RTOS_FreeRTOSConfig.h"