ARM GAS  C:\Users\df16\AppData\Local\Temp\ccjld08w.s 			page 1


   1              		.syntax unified
   2              		.cpu cortex-m3
   3              		.fpu softvfp
   4              		.eabi_attribute 20, 1
   5              		.eabi_attribute 21, 1
   6              		.eabi_attribute 23, 3
   7              		.eabi_attribute 24, 1
   8              		.eabi_attribute 25, 1
   9              		.eabi_attribute 26, 1
  10              		.eabi_attribute 30, 1
  11              		.eabi_attribute 34, 1
  12              		.eabi_attribute 18, 4
  13              		.thumb
  14              		.syntax unified
  15              		.file	"RTOS_stream_buffer.c"
  16              		.text
  17              	.Ltext0:
  18              		.cfi_sections	.debug_frame
  19              		.section	.text.prvBytesInBuffer,"ax",%progbits
  20              		.align	2
  21              		.thumb
  22              		.thumb_func
  23              		.type	prvBytesInBuffer, %function
  24              	prvBytesInBuffer:
  25              	.LFB86:
  26              		.file 1 "Generated_Source\\PSoC5\\RTOS_stream_buffer.c"
   1:Generated_Source\PSoC5/RTOS_stream_buffer.c **** /*
   2:Generated_Source\PSoC5/RTOS_stream_buffer.c ****  * FreeRTOS Kernel V10.4.0
   3:Generated_Source\PSoC5/RTOS_stream_buffer.c ****  * Copyright (C) 2020 Amazon.com, Inc. or its affiliates.  All Rights Reserved.
   4:Generated_Source\PSoC5/RTOS_stream_buffer.c ****  *
   5:Generated_Source\PSoC5/RTOS_stream_buffer.c ****  * Permission is hereby granted, free of charge, to any person obtaining a copy of
   6:Generated_Source\PSoC5/RTOS_stream_buffer.c ****  * this software and associated documentation files (the "Software"), to deal in
   7:Generated_Source\PSoC5/RTOS_stream_buffer.c ****  * the Software without restriction, including without limitation the rights to
   8:Generated_Source\PSoC5/RTOS_stream_buffer.c ****  * use, copy, modify, merge, publish, distribute, sublicense, and/or sell copies of
   9:Generated_Source\PSoC5/RTOS_stream_buffer.c ****  * the Software, and to permit persons to whom the Software is furnished to do so,
  10:Generated_Source\PSoC5/RTOS_stream_buffer.c ****  * subject to the following conditions:
  11:Generated_Source\PSoC5/RTOS_stream_buffer.c ****  *
  12:Generated_Source\PSoC5/RTOS_stream_buffer.c ****  * The above copyright notice and this permission notice shall be included in all
  13:Generated_Source\PSoC5/RTOS_stream_buffer.c ****  * copies or substantial portions of the Software.
  14:Generated_Source\PSoC5/RTOS_stream_buffer.c ****  *
  15:Generated_Source\PSoC5/RTOS_stream_buffer.c ****  * THE SOFTWARE IS PROVIDED "AS IS", WITHOUT WARRANTY OF ANY KIND, EXPRESS OR
  16:Generated_Source\PSoC5/RTOS_stream_buffer.c ****  * IMPLIED, INCLUDING BUT NOT LIMITED TO THE WARRANTIES OF MERCHANTABILITY, FITNESS
  17:Generated_Source\PSoC5/RTOS_stream_buffer.c ****  * FOR A PARTICULAR PURPOSE AND NONINFRINGEMENT. IN NO EVENT SHALL THE AUTHORS OR
  18:Generated_Source\PSoC5/RTOS_stream_buffer.c ****  * COPYRIGHT HOLDERS BE LIABLE FOR ANY CLAIM, DAMAGES OR OTHER LIABILITY, WHETHER
  19:Generated_Source\PSoC5/RTOS_stream_buffer.c ****  * IN AN ACTION OF CONTRACT, TORT OR OTHERWISE, ARISING FROM, OUT OF OR IN
  20:Generated_Source\PSoC5/RTOS_stream_buffer.c ****  * CONNECTION WITH THE SOFTWARE OR THE USE OR OTHER DEALINGS IN THE SOFTWARE.
  21:Generated_Source\PSoC5/RTOS_stream_buffer.c ****  *
  22:Generated_Source\PSoC5/RTOS_stream_buffer.c ****  * https://www.FreeRTOS.org
  23:Generated_Source\PSoC5/RTOS_stream_buffer.c ****  * https://github.com/FreeRTOS
  24:Generated_Source\PSoC5/RTOS_stream_buffer.c ****  *
  25:Generated_Source\PSoC5/RTOS_stream_buffer.c ****  */
  26:Generated_Source\PSoC5/RTOS_stream_buffer.c **** 
  27:Generated_Source\PSoC5/RTOS_stream_buffer.c **** /* Standard includes. */
  28:Generated_Source\PSoC5/RTOS_stream_buffer.c **** #include <stdint.h>
  29:Generated_Source\PSoC5/RTOS_stream_buffer.c **** #include <string.h>
  30:Generated_Source\PSoC5/RTOS_stream_buffer.c **** 
  31:Generated_Source\PSoC5/RTOS_stream_buffer.c **** /* Defining MPU_WRAPPERS_INCLUDED_FROM_API_FILE prevents task.h from redefining
ARM GAS  C:\Users\df16\AppData\Local\Temp\ccjld08w.s 			page 2


  32:Generated_Source\PSoC5/RTOS_stream_buffer.c ****  * all the API functions to use the MPU wrappers.  That should only be done when
  33:Generated_Source\PSoC5/RTOS_stream_buffer.c ****  * task.h is included from an application file. */
  34:Generated_Source\PSoC5/RTOS_stream_buffer.c **** #define MPU_WRAPPERS_INCLUDED_FROM_API_FILE
  35:Generated_Source\PSoC5/RTOS_stream_buffer.c **** 
  36:Generated_Source\PSoC5/RTOS_stream_buffer.c **** /* FreeRTOS includes. */
  37:Generated_Source\PSoC5/RTOS_stream_buffer.c **** #include "RTOS_FreeRTOS.h"
  38:Generated_Source\PSoC5/RTOS_stream_buffer.c **** #include "task.h"
  39:Generated_Source\PSoC5/RTOS_stream_buffer.c **** #include "stream_buffer.h"
  40:Generated_Source\PSoC5/RTOS_stream_buffer.c **** 
  41:Generated_Source\PSoC5/RTOS_stream_buffer.c **** #if ( configUSE_TASK_NOTIFICATIONS != 1 )
  42:Generated_Source\PSoC5/RTOS_stream_buffer.c ****     #error configUSE_TASK_NOTIFICATIONS must be set to 1 to build stream_buffer.c
  43:Generated_Source\PSoC5/RTOS_stream_buffer.c **** #endif
  44:Generated_Source\PSoC5/RTOS_stream_buffer.c **** 
  45:Generated_Source\PSoC5/RTOS_stream_buffer.c **** /* Lint e961, e9021 and e750 are suppressed as a MISRA exception justified
  46:Generated_Source\PSoC5/RTOS_stream_buffer.c ****  * because the MPU ports require MPU_WRAPPERS_INCLUDED_FROM_API_FILE to be defined
  47:Generated_Source\PSoC5/RTOS_stream_buffer.c ****  * for the header files above, but not in this file, in order to generate the
  48:Generated_Source\PSoC5/RTOS_stream_buffer.c ****  * correct privileged Vs unprivileged linkage and placement. */
  49:Generated_Source\PSoC5/RTOS_stream_buffer.c **** #undef MPU_WRAPPERS_INCLUDED_FROM_API_FILE /*lint !e961 !e750 !e9021. */
  50:Generated_Source\PSoC5/RTOS_stream_buffer.c **** 
  51:Generated_Source\PSoC5/RTOS_stream_buffer.c **** /* If the user has not provided application specific Rx notification macros,
  52:Generated_Source\PSoC5/RTOS_stream_buffer.c ****  * or #defined the notification macros away, them provide default implementations
  53:Generated_Source\PSoC5/RTOS_stream_buffer.c ****  * that uses task notifications. */
  54:Generated_Source\PSoC5/RTOS_stream_buffer.c **** /*lint -save -e9026 Function like macros allowed and needed here so they can be overidden. */
  55:Generated_Source\PSoC5/RTOS_stream_buffer.c **** #ifndef sbRECEIVE_COMPLETED
  56:Generated_Source\PSoC5/RTOS_stream_buffer.c ****     #define sbRECEIVE_COMPLETED( pxStreamBuffer )                         \
  57:Generated_Source\PSoC5/RTOS_stream_buffer.c ****     vTaskSuspendAll();                                                    \
  58:Generated_Source\PSoC5/RTOS_stream_buffer.c ****     {                                                                     \
  59:Generated_Source\PSoC5/RTOS_stream_buffer.c ****         if( ( pxStreamBuffer )->xTaskWaitingToSend != NULL )              \
  60:Generated_Source\PSoC5/RTOS_stream_buffer.c ****         {                                                                 \
  61:Generated_Source\PSoC5/RTOS_stream_buffer.c ****             ( void ) xTaskNotify( ( pxStreamBuffer )->xTaskWaitingToSend, \
  62:Generated_Source\PSoC5/RTOS_stream_buffer.c ****                                   ( uint32_t ) 0,                         \
  63:Generated_Source\PSoC5/RTOS_stream_buffer.c ****                                   eNoAction );                            \
  64:Generated_Source\PSoC5/RTOS_stream_buffer.c ****             ( pxStreamBuffer )->xTaskWaitingToSend = NULL;                \
  65:Generated_Source\PSoC5/RTOS_stream_buffer.c ****         }                                                                 \
  66:Generated_Source\PSoC5/RTOS_stream_buffer.c ****     }                                                                     \
  67:Generated_Source\PSoC5/RTOS_stream_buffer.c ****     ( void ) xTaskResumeAll();
  68:Generated_Source\PSoC5/RTOS_stream_buffer.c **** #endif /* sbRECEIVE_COMPLETED */
  69:Generated_Source\PSoC5/RTOS_stream_buffer.c **** 
  70:Generated_Source\PSoC5/RTOS_stream_buffer.c **** #ifndef sbRECEIVE_COMPLETED_FROM_ISR
  71:Generated_Source\PSoC5/RTOS_stream_buffer.c ****     #define sbRECEIVE_COMPLETED_FROM_ISR( pxStreamBuffer,                            \
  72:Generated_Source\PSoC5/RTOS_stream_buffer.c ****                                           pxHigherPriorityTaskWoken )                \
  73:Generated_Source\PSoC5/RTOS_stream_buffer.c ****     {                                                                                \
  74:Generated_Source\PSoC5/RTOS_stream_buffer.c ****         UBaseType_t uxSavedInterruptStatus;                                          \
  75:Generated_Source\PSoC5/RTOS_stream_buffer.c ****                                                                                      \
  76:Generated_Source\PSoC5/RTOS_stream_buffer.c ****         uxSavedInterruptStatus = ( UBaseType_t ) portSET_INTERRUPT_MASK_FROM_ISR();  \
  77:Generated_Source\PSoC5/RTOS_stream_buffer.c ****         {                                                                            \
  78:Generated_Source\PSoC5/RTOS_stream_buffer.c ****             if( ( pxStreamBuffer )->xTaskWaitingToSend != NULL )                     \
  79:Generated_Source\PSoC5/RTOS_stream_buffer.c ****             {                                                                        \
  80:Generated_Source\PSoC5/RTOS_stream_buffer.c ****                 ( void ) xTaskNotifyFromISR( ( pxStreamBuffer )->xTaskWaitingToSend, \
  81:Generated_Source\PSoC5/RTOS_stream_buffer.c ****                                              ( uint32_t ) 0,                         \
  82:Generated_Source\PSoC5/RTOS_stream_buffer.c ****                                              eNoAction,                              \
  83:Generated_Source\PSoC5/RTOS_stream_buffer.c ****                                              pxHigherPriorityTaskWoken );            \
  84:Generated_Source\PSoC5/RTOS_stream_buffer.c ****                 ( pxStreamBuffer )->xTaskWaitingToSend = NULL;                       \
  85:Generated_Source\PSoC5/RTOS_stream_buffer.c ****             }                                                                        \
  86:Generated_Source\PSoC5/RTOS_stream_buffer.c ****         }                                                                            \
  87:Generated_Source\PSoC5/RTOS_stream_buffer.c ****         portCLEAR_INTERRUPT_MASK_FROM_ISR( uxSavedInterruptStatus );                 \
  88:Generated_Source\PSoC5/RTOS_stream_buffer.c ****     }
ARM GAS  C:\Users\df16\AppData\Local\Temp\ccjld08w.s 			page 3


  89:Generated_Source\PSoC5/RTOS_stream_buffer.c **** #endif /* sbRECEIVE_COMPLETED_FROM_ISR */
  90:Generated_Source\PSoC5/RTOS_stream_buffer.c **** 
  91:Generated_Source\PSoC5/RTOS_stream_buffer.c **** /* If the user has not provided an application specific Tx notification macro,
  92:Generated_Source\PSoC5/RTOS_stream_buffer.c ****  * or #defined the notification macro away, them provide a default implementation
  93:Generated_Source\PSoC5/RTOS_stream_buffer.c ****  * that uses task notifications. */
  94:Generated_Source\PSoC5/RTOS_stream_buffer.c **** #ifndef sbSEND_COMPLETED
  95:Generated_Source\PSoC5/RTOS_stream_buffer.c ****     #define sbSEND_COMPLETED( pxStreamBuffer )                               \
  96:Generated_Source\PSoC5/RTOS_stream_buffer.c ****     vTaskSuspendAll();                                                       \
  97:Generated_Source\PSoC5/RTOS_stream_buffer.c ****     {                                                                        \
  98:Generated_Source\PSoC5/RTOS_stream_buffer.c ****         if( ( pxStreamBuffer )->xTaskWaitingToReceive != NULL )              \
  99:Generated_Source\PSoC5/RTOS_stream_buffer.c ****         {                                                                    \
 100:Generated_Source\PSoC5/RTOS_stream_buffer.c ****             ( void ) xTaskNotify( ( pxStreamBuffer )->xTaskWaitingToReceive, \
 101:Generated_Source\PSoC5/RTOS_stream_buffer.c ****                                   ( uint32_t ) 0,                            \
 102:Generated_Source\PSoC5/RTOS_stream_buffer.c ****                                   eNoAction );                               \
 103:Generated_Source\PSoC5/RTOS_stream_buffer.c ****             ( pxStreamBuffer )->xTaskWaitingToReceive = NULL;                \
 104:Generated_Source\PSoC5/RTOS_stream_buffer.c ****         }                                                                    \
 105:Generated_Source\PSoC5/RTOS_stream_buffer.c ****     }                                                                        \
 106:Generated_Source\PSoC5/RTOS_stream_buffer.c ****     ( void ) xTaskResumeAll();
 107:Generated_Source\PSoC5/RTOS_stream_buffer.c **** #endif /* sbSEND_COMPLETED */
 108:Generated_Source\PSoC5/RTOS_stream_buffer.c **** 
 109:Generated_Source\PSoC5/RTOS_stream_buffer.c **** #ifndef sbSEND_COMPLETE_FROM_ISR
 110:Generated_Source\PSoC5/RTOS_stream_buffer.c ****     #define sbSEND_COMPLETE_FROM_ISR( pxStreamBuffer, pxHigherPriorityTaskWoken )       \
 111:Generated_Source\PSoC5/RTOS_stream_buffer.c ****     {                                                                                   \
 112:Generated_Source\PSoC5/RTOS_stream_buffer.c ****         UBaseType_t uxSavedInterruptStatus;                                             \
 113:Generated_Source\PSoC5/RTOS_stream_buffer.c ****                                                                                         \
 114:Generated_Source\PSoC5/RTOS_stream_buffer.c ****         uxSavedInterruptStatus = ( UBaseType_t ) portSET_INTERRUPT_MASK_FROM_ISR();     \
 115:Generated_Source\PSoC5/RTOS_stream_buffer.c ****         {                                                                               \
 116:Generated_Source\PSoC5/RTOS_stream_buffer.c ****             if( ( pxStreamBuffer )->xTaskWaitingToReceive != NULL )                     \
 117:Generated_Source\PSoC5/RTOS_stream_buffer.c ****             {                                                                           \
 118:Generated_Source\PSoC5/RTOS_stream_buffer.c ****                 ( void ) xTaskNotifyFromISR( ( pxStreamBuffer )->xTaskWaitingToReceive, \
 119:Generated_Source\PSoC5/RTOS_stream_buffer.c ****                                              ( uint32_t ) 0,                            \
 120:Generated_Source\PSoC5/RTOS_stream_buffer.c ****                                              eNoAction,                                 \
 121:Generated_Source\PSoC5/RTOS_stream_buffer.c ****                                              pxHigherPriorityTaskWoken );               \
 122:Generated_Source\PSoC5/RTOS_stream_buffer.c ****                 ( pxStreamBuffer )->xTaskWaitingToReceive = NULL;                       \
 123:Generated_Source\PSoC5/RTOS_stream_buffer.c ****             }                                                                           \
 124:Generated_Source\PSoC5/RTOS_stream_buffer.c ****         }                                                                               \
 125:Generated_Source\PSoC5/RTOS_stream_buffer.c ****         portCLEAR_INTERRUPT_MASK_FROM_ISR( uxSavedInterruptStatus );                    \
 126:Generated_Source\PSoC5/RTOS_stream_buffer.c ****     }
 127:Generated_Source\PSoC5/RTOS_stream_buffer.c **** #endif /* sbSEND_COMPLETE_FROM_ISR */
 128:Generated_Source\PSoC5/RTOS_stream_buffer.c **** /*lint -restore (9026) */
 129:Generated_Source\PSoC5/RTOS_stream_buffer.c **** 
 130:Generated_Source\PSoC5/RTOS_stream_buffer.c **** /* The number of bytes used to hold the length of a message in the buffer. */
 131:Generated_Source\PSoC5/RTOS_stream_buffer.c **** #define sbBYTES_TO_STORE_MESSAGE_LENGTH    ( sizeof( configMESSAGE_BUFFER_LENGTH_TYPE ) )
 132:Generated_Source\PSoC5/RTOS_stream_buffer.c **** 
 133:Generated_Source\PSoC5/RTOS_stream_buffer.c **** /* Bits stored in the ucFlags field of the stream buffer. */
 134:Generated_Source\PSoC5/RTOS_stream_buffer.c **** #define sbFLAGS_IS_MESSAGE_BUFFER          ( ( uint8_t ) 1 ) /* Set if the stream buffer was create
 135:Generated_Source\PSoC5/RTOS_stream_buffer.c **** #define sbFLAGS_IS_STATICALLY_ALLOCATED    ( ( uint8_t ) 2 ) /* Set if the stream buffer was create
 136:Generated_Source\PSoC5/RTOS_stream_buffer.c **** 
 137:Generated_Source\PSoC5/RTOS_stream_buffer.c **** /*-----------------------------------------------------------*/
 138:Generated_Source\PSoC5/RTOS_stream_buffer.c **** 
 139:Generated_Source\PSoC5/RTOS_stream_buffer.c **** /* Structure that hold state information on the buffer. */
 140:Generated_Source\PSoC5/RTOS_stream_buffer.c **** typedef struct StreamBufferDef_t                 /*lint !e9058 Style convention uses tag. */
 141:Generated_Source\PSoC5/RTOS_stream_buffer.c **** {
 142:Generated_Source\PSoC5/RTOS_stream_buffer.c ****     volatile size_t xTail;                       /* Index to the next item to read within the buffe
 143:Generated_Source\PSoC5/RTOS_stream_buffer.c ****     volatile size_t xHead;                       /* Index to the next item to write within the buff
 144:Generated_Source\PSoC5/RTOS_stream_buffer.c ****     size_t xLength;                              /* The length of the buffer pointed to by pucBuffe
 145:Generated_Source\PSoC5/RTOS_stream_buffer.c ****     size_t xTriggerLevelBytes;                   /* The number of bytes that must be in the stream 
ARM GAS  C:\Users\df16\AppData\Local\Temp\ccjld08w.s 			page 4


 146:Generated_Source\PSoC5/RTOS_stream_buffer.c ****     volatile TaskHandle_t xTaskWaitingToReceive; /* Holds the handle of a task waiting for data, or
 147:Generated_Source\PSoC5/RTOS_stream_buffer.c ****     volatile TaskHandle_t xTaskWaitingToSend;    /* Holds the handle of a task waiting to send data
 148:Generated_Source\PSoC5/RTOS_stream_buffer.c ****     uint8_t * pucBuffer;                         /* Points to the buffer itself - that is - the RAM
 149:Generated_Source\PSoC5/RTOS_stream_buffer.c ****     uint8_t ucFlags;
 150:Generated_Source\PSoC5/RTOS_stream_buffer.c **** 
 151:Generated_Source\PSoC5/RTOS_stream_buffer.c ****     #if ( configUSE_TRACE_FACILITY == 1 )
 152:Generated_Source\PSoC5/RTOS_stream_buffer.c ****         UBaseType_t uxStreamBufferNumber; /* Used for tracing purposes. */
 153:Generated_Source\PSoC5/RTOS_stream_buffer.c ****     #endif
 154:Generated_Source\PSoC5/RTOS_stream_buffer.c **** } StreamBuffer_t;
 155:Generated_Source\PSoC5/RTOS_stream_buffer.c **** 
 156:Generated_Source\PSoC5/RTOS_stream_buffer.c **** /*
 157:Generated_Source\PSoC5/RTOS_stream_buffer.c ****  * The number of bytes available to be read from the buffer.
 158:Generated_Source\PSoC5/RTOS_stream_buffer.c ****  */
 159:Generated_Source\PSoC5/RTOS_stream_buffer.c **** static size_t prvBytesInBuffer( const StreamBuffer_t * const pxStreamBuffer ) PRIVILEGED_FUNCTION;
 160:Generated_Source\PSoC5/RTOS_stream_buffer.c **** 
 161:Generated_Source\PSoC5/RTOS_stream_buffer.c **** /*
 162:Generated_Source\PSoC5/RTOS_stream_buffer.c ****  * Add xCount bytes from pucData into the pxStreamBuffer message buffer.
 163:Generated_Source\PSoC5/RTOS_stream_buffer.c ****  * Returns the number of bytes written, which will either equal xCount in the
 164:Generated_Source\PSoC5/RTOS_stream_buffer.c ****  * success case, or 0 if there was not enough space in the buffer (in which case
 165:Generated_Source\PSoC5/RTOS_stream_buffer.c ****  * no data is written into the buffer).
 166:Generated_Source\PSoC5/RTOS_stream_buffer.c ****  */
 167:Generated_Source\PSoC5/RTOS_stream_buffer.c **** static size_t prvWriteBytesToBuffer( StreamBuffer_t * const pxStreamBuffer,
 168:Generated_Source\PSoC5/RTOS_stream_buffer.c ****                                      const uint8_t * pucData,
 169:Generated_Source\PSoC5/RTOS_stream_buffer.c ****                                      size_t xCount ) PRIVILEGED_FUNCTION;
 170:Generated_Source\PSoC5/RTOS_stream_buffer.c **** 
 171:Generated_Source\PSoC5/RTOS_stream_buffer.c **** /*
 172:Generated_Source\PSoC5/RTOS_stream_buffer.c ****  * If the stream buffer is being used as a message buffer, then reads an entire
 173:Generated_Source\PSoC5/RTOS_stream_buffer.c ****  * message out of the buffer.  If the stream buffer is being used as a stream
 174:Generated_Source\PSoC5/RTOS_stream_buffer.c ****  * buffer then read as many bytes as possible from the buffer.
 175:Generated_Source\PSoC5/RTOS_stream_buffer.c ****  * prvReadBytesFromBuffer() is called to actually extract the bytes from the
 176:Generated_Source\PSoC5/RTOS_stream_buffer.c ****  * buffer's data storage area.
 177:Generated_Source\PSoC5/RTOS_stream_buffer.c ****  */
 178:Generated_Source\PSoC5/RTOS_stream_buffer.c **** static size_t prvReadMessageFromBuffer( StreamBuffer_t * pxStreamBuffer,
 179:Generated_Source\PSoC5/RTOS_stream_buffer.c ****                                         void * pvRxData,
 180:Generated_Source\PSoC5/RTOS_stream_buffer.c ****                                         size_t xBufferLengthBytes,
 181:Generated_Source\PSoC5/RTOS_stream_buffer.c ****                                         size_t xBytesAvailable,
 182:Generated_Source\PSoC5/RTOS_stream_buffer.c ****                                         size_t xBytesToStoreMessageLength ) PRIVILEGED_FUNCTION;
 183:Generated_Source\PSoC5/RTOS_stream_buffer.c **** 
 184:Generated_Source\PSoC5/RTOS_stream_buffer.c **** /*
 185:Generated_Source\PSoC5/RTOS_stream_buffer.c ****  * If the stream buffer is being used as a message buffer, then writes an entire
 186:Generated_Source\PSoC5/RTOS_stream_buffer.c ****  * message to the buffer.  If the stream buffer is being used as a stream
 187:Generated_Source\PSoC5/RTOS_stream_buffer.c ****  * buffer then write as many bytes as possible to the buffer.
 188:Generated_Source\PSoC5/RTOS_stream_buffer.c ****  * prvWriteBytestoBuffer() is called to actually send the bytes to the buffer's
 189:Generated_Source\PSoC5/RTOS_stream_buffer.c ****  * data storage area.
 190:Generated_Source\PSoC5/RTOS_stream_buffer.c ****  */
 191:Generated_Source\PSoC5/RTOS_stream_buffer.c **** static size_t prvWriteMessageToBuffer( StreamBuffer_t * const pxStreamBuffer,
 192:Generated_Source\PSoC5/RTOS_stream_buffer.c ****                                        const void * pvTxData,
 193:Generated_Source\PSoC5/RTOS_stream_buffer.c ****                                        size_t xDataLengthBytes,
 194:Generated_Source\PSoC5/RTOS_stream_buffer.c ****                                        size_t xSpace,
 195:Generated_Source\PSoC5/RTOS_stream_buffer.c ****                                        size_t xRequiredSpace ) PRIVILEGED_FUNCTION;
 196:Generated_Source\PSoC5/RTOS_stream_buffer.c **** 
 197:Generated_Source\PSoC5/RTOS_stream_buffer.c **** /*
 198:Generated_Source\PSoC5/RTOS_stream_buffer.c ****  * Read xMaxCount bytes from the pxStreamBuffer message buffer and write them
 199:Generated_Source\PSoC5/RTOS_stream_buffer.c ****  * to pucData.
 200:Generated_Source\PSoC5/RTOS_stream_buffer.c ****  */
 201:Generated_Source\PSoC5/RTOS_stream_buffer.c **** static size_t prvReadBytesFromBuffer( StreamBuffer_t * pxStreamBuffer,
 202:Generated_Source\PSoC5/RTOS_stream_buffer.c ****                                       uint8_t * pucData,
ARM GAS  C:\Users\df16\AppData\Local\Temp\ccjld08w.s 			page 5


 203:Generated_Source\PSoC5/RTOS_stream_buffer.c ****                                       size_t xMaxCount,
 204:Generated_Source\PSoC5/RTOS_stream_buffer.c ****                                       size_t xBytesAvailable ) PRIVILEGED_FUNCTION;
 205:Generated_Source\PSoC5/RTOS_stream_buffer.c **** 
 206:Generated_Source\PSoC5/RTOS_stream_buffer.c **** /*
 207:Generated_Source\PSoC5/RTOS_stream_buffer.c ****  * Called by both pxStreamBufferCreate() and pxStreamBufferCreateStatic() to
 208:Generated_Source\PSoC5/RTOS_stream_buffer.c ****  * initialise the members of the newly created stream buffer structure.
 209:Generated_Source\PSoC5/RTOS_stream_buffer.c ****  */
 210:Generated_Source\PSoC5/RTOS_stream_buffer.c **** static void prvInitialiseNewStreamBuffer( StreamBuffer_t * const pxStreamBuffer,
 211:Generated_Source\PSoC5/RTOS_stream_buffer.c ****                                           uint8_t * const pucBuffer,
 212:Generated_Source\PSoC5/RTOS_stream_buffer.c ****                                           size_t xBufferSizeBytes,
 213:Generated_Source\PSoC5/RTOS_stream_buffer.c ****                                           size_t xTriggerLevelBytes,
 214:Generated_Source\PSoC5/RTOS_stream_buffer.c ****                                           uint8_t ucFlags ) PRIVILEGED_FUNCTION;
 215:Generated_Source\PSoC5/RTOS_stream_buffer.c **** 
 216:Generated_Source\PSoC5/RTOS_stream_buffer.c **** /*-----------------------------------------------------------*/
 217:Generated_Source\PSoC5/RTOS_stream_buffer.c **** 
 218:Generated_Source\PSoC5/RTOS_stream_buffer.c **** #if ( configSUPPORT_DYNAMIC_ALLOCATION == 1 )
 219:Generated_Source\PSoC5/RTOS_stream_buffer.c **** 
 220:Generated_Source\PSoC5/RTOS_stream_buffer.c ****     StreamBufferHandle_t xStreamBufferGenericCreate( size_t xBufferSizeBytes,
 221:Generated_Source\PSoC5/RTOS_stream_buffer.c ****                                                      size_t xTriggerLevelBytes,
 222:Generated_Source\PSoC5/RTOS_stream_buffer.c ****                                                      BaseType_t xIsMessageBuffer )
 223:Generated_Source\PSoC5/RTOS_stream_buffer.c ****     {
 224:Generated_Source\PSoC5/RTOS_stream_buffer.c ****         uint8_t * pucAllocatedMemory;
 225:Generated_Source\PSoC5/RTOS_stream_buffer.c ****         uint8_t ucFlags;
 226:Generated_Source\PSoC5/RTOS_stream_buffer.c **** 
 227:Generated_Source\PSoC5/RTOS_stream_buffer.c ****         /* In case the stream buffer is going to be used as a message buffer
 228:Generated_Source\PSoC5/RTOS_stream_buffer.c ****          * (that is, it will hold discrete messages with a little meta data that
 229:Generated_Source\PSoC5/RTOS_stream_buffer.c ****          * says how big the next message is) check the buffer will be large enough
 230:Generated_Source\PSoC5/RTOS_stream_buffer.c ****          * to hold at least one message. */
 231:Generated_Source\PSoC5/RTOS_stream_buffer.c ****         if( xIsMessageBuffer == pdTRUE )
 232:Generated_Source\PSoC5/RTOS_stream_buffer.c ****         {
 233:Generated_Source\PSoC5/RTOS_stream_buffer.c ****             /* Is a message buffer but not statically allocated. */
 234:Generated_Source\PSoC5/RTOS_stream_buffer.c ****             ucFlags = sbFLAGS_IS_MESSAGE_BUFFER;
 235:Generated_Source\PSoC5/RTOS_stream_buffer.c ****             configASSERT( xBufferSizeBytes > sbBYTES_TO_STORE_MESSAGE_LENGTH );
 236:Generated_Source\PSoC5/RTOS_stream_buffer.c ****         }
 237:Generated_Source\PSoC5/RTOS_stream_buffer.c ****         else
 238:Generated_Source\PSoC5/RTOS_stream_buffer.c ****         {
 239:Generated_Source\PSoC5/RTOS_stream_buffer.c ****             /* Not a message buffer and not statically allocated. */
 240:Generated_Source\PSoC5/RTOS_stream_buffer.c ****             ucFlags = 0;
 241:Generated_Source\PSoC5/RTOS_stream_buffer.c ****             configASSERT( xBufferSizeBytes > 0 );
 242:Generated_Source\PSoC5/RTOS_stream_buffer.c ****         }
 243:Generated_Source\PSoC5/RTOS_stream_buffer.c **** 
 244:Generated_Source\PSoC5/RTOS_stream_buffer.c ****         configASSERT( xTriggerLevelBytes <= xBufferSizeBytes );
 245:Generated_Source\PSoC5/RTOS_stream_buffer.c **** 
 246:Generated_Source\PSoC5/RTOS_stream_buffer.c ****         /* A trigger level of 0 would cause a waiting task to unblock even when
 247:Generated_Source\PSoC5/RTOS_stream_buffer.c ****          * the buffer was empty. */
 248:Generated_Source\PSoC5/RTOS_stream_buffer.c ****         if( xTriggerLevelBytes == ( size_t ) 0 )
 249:Generated_Source\PSoC5/RTOS_stream_buffer.c ****         {
 250:Generated_Source\PSoC5/RTOS_stream_buffer.c ****             xTriggerLevelBytes = ( size_t ) 1;
 251:Generated_Source\PSoC5/RTOS_stream_buffer.c ****         }
 252:Generated_Source\PSoC5/RTOS_stream_buffer.c **** 
 253:Generated_Source\PSoC5/RTOS_stream_buffer.c ****         /* A stream buffer requires a StreamBuffer_t structure and a buffer.
 254:Generated_Source\PSoC5/RTOS_stream_buffer.c ****          * Both are allocated in a single call to pvPortMalloc().  The
 255:Generated_Source\PSoC5/RTOS_stream_buffer.c ****          * StreamBuffer_t structure is placed at the start of the allocated memory
 256:Generated_Source\PSoC5/RTOS_stream_buffer.c ****          * and the buffer follows immediately after.  The requested size is
 257:Generated_Source\PSoC5/RTOS_stream_buffer.c ****          * incremented so the free space is returned as the user would expect -
 258:Generated_Source\PSoC5/RTOS_stream_buffer.c ****          * this is a quirk of the implementation that means otherwise the free
 259:Generated_Source\PSoC5/RTOS_stream_buffer.c ****          * space would be reported as one byte smaller than would be logically
ARM GAS  C:\Users\df16\AppData\Local\Temp\ccjld08w.s 			page 6


 260:Generated_Source\PSoC5/RTOS_stream_buffer.c ****          * expected. */
 261:Generated_Source\PSoC5/RTOS_stream_buffer.c ****         xBufferSizeBytes++;
 262:Generated_Source\PSoC5/RTOS_stream_buffer.c ****         pucAllocatedMemory = ( uint8_t * ) pvPortMalloc( xBufferSizeBytes + sizeof( StreamBuffer_t 
 263:Generated_Source\PSoC5/RTOS_stream_buffer.c **** 
 264:Generated_Source\PSoC5/RTOS_stream_buffer.c ****         if( pucAllocatedMemory != NULL )
 265:Generated_Source\PSoC5/RTOS_stream_buffer.c ****         {
 266:Generated_Source\PSoC5/RTOS_stream_buffer.c ****             prvInitialiseNewStreamBuffer( ( StreamBuffer_t * ) pucAllocatedMemory,       /* Structu
 267:Generated_Source\PSoC5/RTOS_stream_buffer.c ****                                           pucAllocatedMemory + sizeof( StreamBuffer_t ), /* Storage
 268:Generated_Source\PSoC5/RTOS_stream_buffer.c ****                                           xBufferSizeBytes,
 269:Generated_Source\PSoC5/RTOS_stream_buffer.c ****                                           xTriggerLevelBytes,
 270:Generated_Source\PSoC5/RTOS_stream_buffer.c ****                                           ucFlags );
 271:Generated_Source\PSoC5/RTOS_stream_buffer.c **** 
 272:Generated_Source\PSoC5/RTOS_stream_buffer.c ****             traceSTREAM_BUFFER_CREATE( ( ( StreamBuffer_t * ) pucAllocatedMemory ), xIsMessageBuffe
 273:Generated_Source\PSoC5/RTOS_stream_buffer.c ****         }
 274:Generated_Source\PSoC5/RTOS_stream_buffer.c ****         else
 275:Generated_Source\PSoC5/RTOS_stream_buffer.c ****         {
 276:Generated_Source\PSoC5/RTOS_stream_buffer.c ****             traceSTREAM_BUFFER_CREATE_FAILED( xIsMessageBuffer );
 277:Generated_Source\PSoC5/RTOS_stream_buffer.c ****         }
 278:Generated_Source\PSoC5/RTOS_stream_buffer.c **** 
 279:Generated_Source\PSoC5/RTOS_stream_buffer.c ****         return ( StreamBufferHandle_t ) pucAllocatedMemory; /*lint !e9087 !e826 Safe cast as alloca
 280:Generated_Source\PSoC5/RTOS_stream_buffer.c ****     }
 281:Generated_Source\PSoC5/RTOS_stream_buffer.c **** 
 282:Generated_Source\PSoC5/RTOS_stream_buffer.c **** #endif /* configSUPPORT_DYNAMIC_ALLOCATION */
 283:Generated_Source\PSoC5/RTOS_stream_buffer.c **** /*-----------------------------------------------------------*/
 284:Generated_Source\PSoC5/RTOS_stream_buffer.c **** 
 285:Generated_Source\PSoC5/RTOS_stream_buffer.c **** #if ( configSUPPORT_STATIC_ALLOCATION == 1 )
 286:Generated_Source\PSoC5/RTOS_stream_buffer.c **** 
 287:Generated_Source\PSoC5/RTOS_stream_buffer.c ****     StreamBufferHandle_t xStreamBufferGenericCreateStatic( size_t xBufferSizeBytes,
 288:Generated_Source\PSoC5/RTOS_stream_buffer.c ****                                                            size_t xTriggerLevelBytes,
 289:Generated_Source\PSoC5/RTOS_stream_buffer.c ****                                                            BaseType_t xIsMessageBuffer,
 290:Generated_Source\PSoC5/RTOS_stream_buffer.c ****                                                            uint8_t * const pucStreamBufferStorageAr
 291:Generated_Source\PSoC5/RTOS_stream_buffer.c ****                                                            StaticStreamBuffer_t * const pxStaticStr
 292:Generated_Source\PSoC5/RTOS_stream_buffer.c ****     {
 293:Generated_Source\PSoC5/RTOS_stream_buffer.c ****         StreamBuffer_t * const pxStreamBuffer = ( StreamBuffer_t * ) pxStaticStreamBuffer; /*lint !
 294:Generated_Source\PSoC5/RTOS_stream_buffer.c ****         StreamBufferHandle_t xReturn;
 295:Generated_Source\PSoC5/RTOS_stream_buffer.c ****         uint8_t ucFlags;
 296:Generated_Source\PSoC5/RTOS_stream_buffer.c **** 
 297:Generated_Source\PSoC5/RTOS_stream_buffer.c ****         configASSERT( pucStreamBufferStorageArea );
 298:Generated_Source\PSoC5/RTOS_stream_buffer.c ****         configASSERT( pxStaticStreamBuffer );
 299:Generated_Source\PSoC5/RTOS_stream_buffer.c ****         configASSERT( xTriggerLevelBytes <= xBufferSizeBytes );
 300:Generated_Source\PSoC5/RTOS_stream_buffer.c **** 
 301:Generated_Source\PSoC5/RTOS_stream_buffer.c ****         /* A trigger level of 0 would cause a waiting task to unblock even when
 302:Generated_Source\PSoC5/RTOS_stream_buffer.c ****          * the buffer was empty. */
 303:Generated_Source\PSoC5/RTOS_stream_buffer.c ****         if( xTriggerLevelBytes == ( size_t ) 0 )
 304:Generated_Source\PSoC5/RTOS_stream_buffer.c ****         {
 305:Generated_Source\PSoC5/RTOS_stream_buffer.c ****             xTriggerLevelBytes = ( size_t ) 1;
 306:Generated_Source\PSoC5/RTOS_stream_buffer.c ****         }
 307:Generated_Source\PSoC5/RTOS_stream_buffer.c **** 
 308:Generated_Source\PSoC5/RTOS_stream_buffer.c ****         if( xIsMessageBuffer != pdFALSE )
 309:Generated_Source\PSoC5/RTOS_stream_buffer.c ****         {
 310:Generated_Source\PSoC5/RTOS_stream_buffer.c ****             /* Statically allocated message buffer. */
 311:Generated_Source\PSoC5/RTOS_stream_buffer.c ****             ucFlags = sbFLAGS_IS_MESSAGE_BUFFER | sbFLAGS_IS_STATICALLY_ALLOCATED;
 312:Generated_Source\PSoC5/RTOS_stream_buffer.c ****         }
 313:Generated_Source\PSoC5/RTOS_stream_buffer.c ****         else
 314:Generated_Source\PSoC5/RTOS_stream_buffer.c ****         {
 315:Generated_Source\PSoC5/RTOS_stream_buffer.c ****             /* Statically allocated stream buffer. */
 316:Generated_Source\PSoC5/RTOS_stream_buffer.c ****             ucFlags = sbFLAGS_IS_STATICALLY_ALLOCATED;
ARM GAS  C:\Users\df16\AppData\Local\Temp\ccjld08w.s 			page 7


 317:Generated_Source\PSoC5/RTOS_stream_buffer.c ****         }
 318:Generated_Source\PSoC5/RTOS_stream_buffer.c **** 
 319:Generated_Source\PSoC5/RTOS_stream_buffer.c ****         /* In case the stream buffer is going to be used as a message buffer
 320:Generated_Source\PSoC5/RTOS_stream_buffer.c ****          * (that is, it will hold discrete messages with a little meta data that
 321:Generated_Source\PSoC5/RTOS_stream_buffer.c ****          * says how big the next message is) check the buffer will be large enough
 322:Generated_Source\PSoC5/RTOS_stream_buffer.c ****          * to hold at least one message. */
 323:Generated_Source\PSoC5/RTOS_stream_buffer.c ****         configASSERT( xBufferSizeBytes > sbBYTES_TO_STORE_MESSAGE_LENGTH );
 324:Generated_Source\PSoC5/RTOS_stream_buffer.c **** 
 325:Generated_Source\PSoC5/RTOS_stream_buffer.c ****         #if ( configASSERT_DEFINED == 1 )
 326:Generated_Source\PSoC5/RTOS_stream_buffer.c ****             {
 327:Generated_Source\PSoC5/RTOS_stream_buffer.c ****                 /* Sanity check that the size of the structure used to declare a
 328:Generated_Source\PSoC5/RTOS_stream_buffer.c ****                  * variable of type StaticStreamBuffer_t equals the size of the real
 329:Generated_Source\PSoC5/RTOS_stream_buffer.c ****                  * message buffer structure. */
 330:Generated_Source\PSoC5/RTOS_stream_buffer.c ****                 volatile size_t xSize = sizeof( StaticStreamBuffer_t );
 331:Generated_Source\PSoC5/RTOS_stream_buffer.c ****                 configASSERT( xSize == sizeof( StreamBuffer_t ) );
 332:Generated_Source\PSoC5/RTOS_stream_buffer.c ****             } /*lint !e529 xSize is referenced is configASSERT() is defined. */
 333:Generated_Source\PSoC5/RTOS_stream_buffer.c ****         #endif /* configASSERT_DEFINED */
 334:Generated_Source\PSoC5/RTOS_stream_buffer.c **** 
 335:Generated_Source\PSoC5/RTOS_stream_buffer.c ****         if( ( pucStreamBufferStorageArea != NULL ) && ( pxStaticStreamBuffer != NULL ) )
 336:Generated_Source\PSoC5/RTOS_stream_buffer.c ****         {
 337:Generated_Source\PSoC5/RTOS_stream_buffer.c ****             prvInitialiseNewStreamBuffer( pxStreamBuffer,
 338:Generated_Source\PSoC5/RTOS_stream_buffer.c ****                                           pucStreamBufferStorageArea,
 339:Generated_Source\PSoC5/RTOS_stream_buffer.c ****                                           xBufferSizeBytes,
 340:Generated_Source\PSoC5/RTOS_stream_buffer.c ****                                           xTriggerLevelBytes,
 341:Generated_Source\PSoC5/RTOS_stream_buffer.c ****                                           ucFlags );
 342:Generated_Source\PSoC5/RTOS_stream_buffer.c **** 
 343:Generated_Source\PSoC5/RTOS_stream_buffer.c ****             /* Remember this was statically allocated in case it is ever deleted
 344:Generated_Source\PSoC5/RTOS_stream_buffer.c ****              * again. */
 345:Generated_Source\PSoC5/RTOS_stream_buffer.c ****             pxStreamBuffer->ucFlags |= sbFLAGS_IS_STATICALLY_ALLOCATED;
 346:Generated_Source\PSoC5/RTOS_stream_buffer.c **** 
 347:Generated_Source\PSoC5/RTOS_stream_buffer.c ****             traceSTREAM_BUFFER_CREATE( pxStreamBuffer, xIsMessageBuffer );
 348:Generated_Source\PSoC5/RTOS_stream_buffer.c **** 
 349:Generated_Source\PSoC5/RTOS_stream_buffer.c ****             xReturn = ( StreamBufferHandle_t ) pxStaticStreamBuffer; /*lint !e9087 Data hiding requ
 350:Generated_Source\PSoC5/RTOS_stream_buffer.c ****         }
 351:Generated_Source\PSoC5/RTOS_stream_buffer.c ****         else
 352:Generated_Source\PSoC5/RTOS_stream_buffer.c ****         {
 353:Generated_Source\PSoC5/RTOS_stream_buffer.c ****             xReturn = NULL;
 354:Generated_Source\PSoC5/RTOS_stream_buffer.c ****             traceSTREAM_BUFFER_CREATE_STATIC_FAILED( xReturn, xIsMessageBuffer );
 355:Generated_Source\PSoC5/RTOS_stream_buffer.c ****         }
 356:Generated_Source\PSoC5/RTOS_stream_buffer.c **** 
 357:Generated_Source\PSoC5/RTOS_stream_buffer.c ****         return xReturn;
 358:Generated_Source\PSoC5/RTOS_stream_buffer.c ****     }
 359:Generated_Source\PSoC5/RTOS_stream_buffer.c **** 
 360:Generated_Source\PSoC5/RTOS_stream_buffer.c **** #endif /* ( configSUPPORT_STATIC_ALLOCATION == 1 ) */
 361:Generated_Source\PSoC5/RTOS_stream_buffer.c **** /*-----------------------------------------------------------*/
 362:Generated_Source\PSoC5/RTOS_stream_buffer.c **** 
 363:Generated_Source\PSoC5/RTOS_stream_buffer.c **** void vStreamBufferDelete( StreamBufferHandle_t xStreamBuffer )
 364:Generated_Source\PSoC5/RTOS_stream_buffer.c **** {
 365:Generated_Source\PSoC5/RTOS_stream_buffer.c ****     StreamBuffer_t * pxStreamBuffer = xStreamBuffer;
 366:Generated_Source\PSoC5/RTOS_stream_buffer.c **** 
 367:Generated_Source\PSoC5/RTOS_stream_buffer.c ****     configASSERT( pxStreamBuffer );
 368:Generated_Source\PSoC5/RTOS_stream_buffer.c **** 
 369:Generated_Source\PSoC5/RTOS_stream_buffer.c ****     traceSTREAM_BUFFER_DELETE( xStreamBuffer );
 370:Generated_Source\PSoC5/RTOS_stream_buffer.c **** 
 371:Generated_Source\PSoC5/RTOS_stream_buffer.c ****     if( ( pxStreamBuffer->ucFlags & sbFLAGS_IS_STATICALLY_ALLOCATED ) == ( uint8_t ) pdFALSE )
 372:Generated_Source\PSoC5/RTOS_stream_buffer.c ****     {
 373:Generated_Source\PSoC5/RTOS_stream_buffer.c ****         #if ( configSUPPORT_DYNAMIC_ALLOCATION == 1 )
ARM GAS  C:\Users\df16\AppData\Local\Temp\ccjld08w.s 			page 8


 374:Generated_Source\PSoC5/RTOS_stream_buffer.c ****             {
 375:Generated_Source\PSoC5/RTOS_stream_buffer.c ****                 /* Both the structure and the buffer were allocated using a single call
 376:Generated_Source\PSoC5/RTOS_stream_buffer.c ****                 * to pvPortMalloc(), hence only one call to vPortFree() is required. */
 377:Generated_Source\PSoC5/RTOS_stream_buffer.c ****                 vPortFree( ( void * ) pxStreamBuffer ); /*lint !e9087 Standard free() semantics req
 378:Generated_Source\PSoC5/RTOS_stream_buffer.c ****             }
 379:Generated_Source\PSoC5/RTOS_stream_buffer.c ****         #else
 380:Generated_Source\PSoC5/RTOS_stream_buffer.c ****             {
 381:Generated_Source\PSoC5/RTOS_stream_buffer.c ****                 /* Should not be possible to get here, ucFlags must be corrupt.
 382:Generated_Source\PSoC5/RTOS_stream_buffer.c ****                  * Force an assert. */
 383:Generated_Source\PSoC5/RTOS_stream_buffer.c ****                 configASSERT( xStreamBuffer == ( StreamBufferHandle_t ) ~0 );
 384:Generated_Source\PSoC5/RTOS_stream_buffer.c ****             }
 385:Generated_Source\PSoC5/RTOS_stream_buffer.c ****         #endif
 386:Generated_Source\PSoC5/RTOS_stream_buffer.c ****     }
 387:Generated_Source\PSoC5/RTOS_stream_buffer.c ****     else
 388:Generated_Source\PSoC5/RTOS_stream_buffer.c ****     {
 389:Generated_Source\PSoC5/RTOS_stream_buffer.c ****         /* The structure and buffer were not allocated dynamically and cannot be
 390:Generated_Source\PSoC5/RTOS_stream_buffer.c ****          * freed - just scrub the structure so future use will assert. */
 391:Generated_Source\PSoC5/RTOS_stream_buffer.c ****         ( void ) memset( pxStreamBuffer, 0x00, sizeof( StreamBuffer_t ) );
 392:Generated_Source\PSoC5/RTOS_stream_buffer.c ****     }
 393:Generated_Source\PSoC5/RTOS_stream_buffer.c **** }
 394:Generated_Source\PSoC5/RTOS_stream_buffer.c **** /*-----------------------------------------------------------*/
 395:Generated_Source\PSoC5/RTOS_stream_buffer.c **** 
 396:Generated_Source\PSoC5/RTOS_stream_buffer.c **** BaseType_t xStreamBufferReset( StreamBufferHandle_t xStreamBuffer )
 397:Generated_Source\PSoC5/RTOS_stream_buffer.c **** {
 398:Generated_Source\PSoC5/RTOS_stream_buffer.c ****     StreamBuffer_t * const pxStreamBuffer = xStreamBuffer;
 399:Generated_Source\PSoC5/RTOS_stream_buffer.c ****     BaseType_t xReturn = pdFAIL;
 400:Generated_Source\PSoC5/RTOS_stream_buffer.c **** 
 401:Generated_Source\PSoC5/RTOS_stream_buffer.c ****     #if ( configUSE_TRACE_FACILITY == 1 )
 402:Generated_Source\PSoC5/RTOS_stream_buffer.c ****         UBaseType_t uxStreamBufferNumber;
 403:Generated_Source\PSoC5/RTOS_stream_buffer.c ****     #endif
 404:Generated_Source\PSoC5/RTOS_stream_buffer.c **** 
 405:Generated_Source\PSoC5/RTOS_stream_buffer.c ****     configASSERT( pxStreamBuffer );
 406:Generated_Source\PSoC5/RTOS_stream_buffer.c **** 
 407:Generated_Source\PSoC5/RTOS_stream_buffer.c ****     #if ( configUSE_TRACE_FACILITY == 1 )
 408:Generated_Source\PSoC5/RTOS_stream_buffer.c ****         {
 409:Generated_Source\PSoC5/RTOS_stream_buffer.c ****             /* Store the stream buffer number so it can be restored after the
 410:Generated_Source\PSoC5/RTOS_stream_buffer.c ****              * reset. */
 411:Generated_Source\PSoC5/RTOS_stream_buffer.c ****             uxStreamBufferNumber = pxStreamBuffer->uxStreamBufferNumber;
 412:Generated_Source\PSoC5/RTOS_stream_buffer.c ****         }
 413:Generated_Source\PSoC5/RTOS_stream_buffer.c ****     #endif
 414:Generated_Source\PSoC5/RTOS_stream_buffer.c **** 
 415:Generated_Source\PSoC5/RTOS_stream_buffer.c ****     /* Can only reset a message buffer if there are no tasks blocked on it. */
 416:Generated_Source\PSoC5/RTOS_stream_buffer.c ****     taskENTER_CRITICAL();
 417:Generated_Source\PSoC5/RTOS_stream_buffer.c ****     {
 418:Generated_Source\PSoC5/RTOS_stream_buffer.c ****         if( pxStreamBuffer->xTaskWaitingToReceive == NULL )
 419:Generated_Source\PSoC5/RTOS_stream_buffer.c ****         {
 420:Generated_Source\PSoC5/RTOS_stream_buffer.c ****             if( pxStreamBuffer->xTaskWaitingToSend == NULL )
 421:Generated_Source\PSoC5/RTOS_stream_buffer.c ****             {
 422:Generated_Source\PSoC5/RTOS_stream_buffer.c ****                 prvInitialiseNewStreamBuffer( pxStreamBuffer,
 423:Generated_Source\PSoC5/RTOS_stream_buffer.c ****                                               pxStreamBuffer->pucBuffer,
 424:Generated_Source\PSoC5/RTOS_stream_buffer.c ****                                               pxStreamBuffer->xLength,
 425:Generated_Source\PSoC5/RTOS_stream_buffer.c ****                                               pxStreamBuffer->xTriggerLevelBytes,
 426:Generated_Source\PSoC5/RTOS_stream_buffer.c ****                                               pxStreamBuffer->ucFlags );
 427:Generated_Source\PSoC5/RTOS_stream_buffer.c ****                 xReturn = pdPASS;
 428:Generated_Source\PSoC5/RTOS_stream_buffer.c **** 
 429:Generated_Source\PSoC5/RTOS_stream_buffer.c ****                 #if ( configUSE_TRACE_FACILITY == 1 )
 430:Generated_Source\PSoC5/RTOS_stream_buffer.c ****                     {
ARM GAS  C:\Users\df16\AppData\Local\Temp\ccjld08w.s 			page 9


 431:Generated_Source\PSoC5/RTOS_stream_buffer.c ****                         pxStreamBuffer->uxStreamBufferNumber = uxStreamBufferNumber;
 432:Generated_Source\PSoC5/RTOS_stream_buffer.c ****                     }
 433:Generated_Source\PSoC5/RTOS_stream_buffer.c ****                 #endif
 434:Generated_Source\PSoC5/RTOS_stream_buffer.c **** 
 435:Generated_Source\PSoC5/RTOS_stream_buffer.c ****                 traceSTREAM_BUFFER_RESET( xStreamBuffer );
 436:Generated_Source\PSoC5/RTOS_stream_buffer.c ****             }
 437:Generated_Source\PSoC5/RTOS_stream_buffer.c ****         }
 438:Generated_Source\PSoC5/RTOS_stream_buffer.c ****     }
 439:Generated_Source\PSoC5/RTOS_stream_buffer.c ****     taskEXIT_CRITICAL();
 440:Generated_Source\PSoC5/RTOS_stream_buffer.c **** 
 441:Generated_Source\PSoC5/RTOS_stream_buffer.c ****     return xReturn;
 442:Generated_Source\PSoC5/RTOS_stream_buffer.c **** }
 443:Generated_Source\PSoC5/RTOS_stream_buffer.c **** /*-----------------------------------------------------------*/
 444:Generated_Source\PSoC5/RTOS_stream_buffer.c **** 
 445:Generated_Source\PSoC5/RTOS_stream_buffer.c **** BaseType_t xStreamBufferSetTriggerLevel( StreamBufferHandle_t xStreamBuffer,
 446:Generated_Source\PSoC5/RTOS_stream_buffer.c ****                                          size_t xTriggerLevel )
 447:Generated_Source\PSoC5/RTOS_stream_buffer.c **** {
 448:Generated_Source\PSoC5/RTOS_stream_buffer.c ****     StreamBuffer_t * const pxStreamBuffer = xStreamBuffer;
 449:Generated_Source\PSoC5/RTOS_stream_buffer.c ****     BaseType_t xReturn;
 450:Generated_Source\PSoC5/RTOS_stream_buffer.c **** 
 451:Generated_Source\PSoC5/RTOS_stream_buffer.c ****     configASSERT( pxStreamBuffer );
 452:Generated_Source\PSoC5/RTOS_stream_buffer.c **** 
 453:Generated_Source\PSoC5/RTOS_stream_buffer.c ****     /* It is not valid for the trigger level to be 0. */
 454:Generated_Source\PSoC5/RTOS_stream_buffer.c ****     if( xTriggerLevel == ( size_t ) 0 )
 455:Generated_Source\PSoC5/RTOS_stream_buffer.c ****     {
 456:Generated_Source\PSoC5/RTOS_stream_buffer.c ****         xTriggerLevel = ( size_t ) 1;
 457:Generated_Source\PSoC5/RTOS_stream_buffer.c ****     }
 458:Generated_Source\PSoC5/RTOS_stream_buffer.c **** 
 459:Generated_Source\PSoC5/RTOS_stream_buffer.c ****     /* The trigger level is the number of bytes that must be in the stream
 460:Generated_Source\PSoC5/RTOS_stream_buffer.c ****      * buffer before a task that is waiting for data is unblocked. */
 461:Generated_Source\PSoC5/RTOS_stream_buffer.c ****     if( xTriggerLevel <= pxStreamBuffer->xLength )
 462:Generated_Source\PSoC5/RTOS_stream_buffer.c ****     {
 463:Generated_Source\PSoC5/RTOS_stream_buffer.c ****         pxStreamBuffer->xTriggerLevelBytes = xTriggerLevel;
 464:Generated_Source\PSoC5/RTOS_stream_buffer.c ****         xReturn = pdPASS;
 465:Generated_Source\PSoC5/RTOS_stream_buffer.c ****     }
 466:Generated_Source\PSoC5/RTOS_stream_buffer.c ****     else
 467:Generated_Source\PSoC5/RTOS_stream_buffer.c ****     {
 468:Generated_Source\PSoC5/RTOS_stream_buffer.c ****         xReturn = pdFALSE;
 469:Generated_Source\PSoC5/RTOS_stream_buffer.c ****     }
 470:Generated_Source\PSoC5/RTOS_stream_buffer.c **** 
 471:Generated_Source\PSoC5/RTOS_stream_buffer.c ****     return xReturn;
 472:Generated_Source\PSoC5/RTOS_stream_buffer.c **** }
 473:Generated_Source\PSoC5/RTOS_stream_buffer.c **** /*-----------------------------------------------------------*/
 474:Generated_Source\PSoC5/RTOS_stream_buffer.c **** 
 475:Generated_Source\PSoC5/RTOS_stream_buffer.c **** size_t xStreamBufferSpacesAvailable( StreamBufferHandle_t xStreamBuffer )
 476:Generated_Source\PSoC5/RTOS_stream_buffer.c **** {
 477:Generated_Source\PSoC5/RTOS_stream_buffer.c ****     const StreamBuffer_t * const pxStreamBuffer = xStreamBuffer;
 478:Generated_Source\PSoC5/RTOS_stream_buffer.c ****     size_t xSpace;
 479:Generated_Source\PSoC5/RTOS_stream_buffer.c **** 
 480:Generated_Source\PSoC5/RTOS_stream_buffer.c ****     configASSERT( pxStreamBuffer );
 481:Generated_Source\PSoC5/RTOS_stream_buffer.c **** 
 482:Generated_Source\PSoC5/RTOS_stream_buffer.c ****     xSpace = pxStreamBuffer->xLength + pxStreamBuffer->xTail;
 483:Generated_Source\PSoC5/RTOS_stream_buffer.c ****     xSpace -= pxStreamBuffer->xHead;
 484:Generated_Source\PSoC5/RTOS_stream_buffer.c ****     xSpace -= ( size_t ) 1;
 485:Generated_Source\PSoC5/RTOS_stream_buffer.c **** 
 486:Generated_Source\PSoC5/RTOS_stream_buffer.c ****     if( xSpace >= pxStreamBuffer->xLength )
 487:Generated_Source\PSoC5/RTOS_stream_buffer.c ****     {
ARM GAS  C:\Users\df16\AppData\Local\Temp\ccjld08w.s 			page 10


 488:Generated_Source\PSoC5/RTOS_stream_buffer.c ****         xSpace -= pxStreamBuffer->xLength;
 489:Generated_Source\PSoC5/RTOS_stream_buffer.c ****     }
 490:Generated_Source\PSoC5/RTOS_stream_buffer.c ****     else
 491:Generated_Source\PSoC5/RTOS_stream_buffer.c ****     {
 492:Generated_Source\PSoC5/RTOS_stream_buffer.c ****         mtCOVERAGE_TEST_MARKER();
 493:Generated_Source\PSoC5/RTOS_stream_buffer.c ****     }
 494:Generated_Source\PSoC5/RTOS_stream_buffer.c **** 
 495:Generated_Source\PSoC5/RTOS_stream_buffer.c ****     return xSpace;
 496:Generated_Source\PSoC5/RTOS_stream_buffer.c **** }
 497:Generated_Source\PSoC5/RTOS_stream_buffer.c **** /*-----------------------------------------------------------*/
 498:Generated_Source\PSoC5/RTOS_stream_buffer.c **** 
 499:Generated_Source\PSoC5/RTOS_stream_buffer.c **** size_t xStreamBufferBytesAvailable( StreamBufferHandle_t xStreamBuffer )
 500:Generated_Source\PSoC5/RTOS_stream_buffer.c **** {
 501:Generated_Source\PSoC5/RTOS_stream_buffer.c ****     const StreamBuffer_t * const pxStreamBuffer = xStreamBuffer;
 502:Generated_Source\PSoC5/RTOS_stream_buffer.c ****     size_t xReturn;
 503:Generated_Source\PSoC5/RTOS_stream_buffer.c **** 
 504:Generated_Source\PSoC5/RTOS_stream_buffer.c ****     configASSERT( pxStreamBuffer );
 505:Generated_Source\PSoC5/RTOS_stream_buffer.c **** 
 506:Generated_Source\PSoC5/RTOS_stream_buffer.c ****     xReturn = prvBytesInBuffer( pxStreamBuffer );
 507:Generated_Source\PSoC5/RTOS_stream_buffer.c ****     return xReturn;
 508:Generated_Source\PSoC5/RTOS_stream_buffer.c **** }
 509:Generated_Source\PSoC5/RTOS_stream_buffer.c **** /*-----------------------------------------------------------*/
 510:Generated_Source\PSoC5/RTOS_stream_buffer.c **** 
 511:Generated_Source\PSoC5/RTOS_stream_buffer.c **** size_t xStreamBufferSend( StreamBufferHandle_t xStreamBuffer,
 512:Generated_Source\PSoC5/RTOS_stream_buffer.c ****                           const void * pvTxData,
 513:Generated_Source\PSoC5/RTOS_stream_buffer.c ****                           size_t xDataLengthBytes,
 514:Generated_Source\PSoC5/RTOS_stream_buffer.c ****                           TickType_t xTicksToWait )
 515:Generated_Source\PSoC5/RTOS_stream_buffer.c **** {
 516:Generated_Source\PSoC5/RTOS_stream_buffer.c ****     StreamBuffer_t * const pxStreamBuffer = xStreamBuffer;
 517:Generated_Source\PSoC5/RTOS_stream_buffer.c ****     size_t xReturn, xSpace = 0;
 518:Generated_Source\PSoC5/RTOS_stream_buffer.c ****     size_t xRequiredSpace = xDataLengthBytes;
 519:Generated_Source\PSoC5/RTOS_stream_buffer.c ****     TimeOut_t xTimeOut;
 520:Generated_Source\PSoC5/RTOS_stream_buffer.c **** 
 521:Generated_Source\PSoC5/RTOS_stream_buffer.c ****     /* Having a 'isFeasible' variable allows to respect the convention that there is only a return 
 522:Generated_Source\PSoC5/RTOS_stream_buffer.c ****      * could be done as soon as we realise the send cannot happen. We will let the call to 'prvWrit
 523:Generated_Source\PSoC5/RTOS_stream_buffer.c ****     BaseType_t xIsFeasible;
 524:Generated_Source\PSoC5/RTOS_stream_buffer.c **** 
 525:Generated_Source\PSoC5/RTOS_stream_buffer.c ****     configASSERT( pvTxData );
 526:Generated_Source\PSoC5/RTOS_stream_buffer.c ****     configASSERT( pxStreamBuffer );
 527:Generated_Source\PSoC5/RTOS_stream_buffer.c **** 
 528:Generated_Source\PSoC5/RTOS_stream_buffer.c ****     /* This send function is used to write to both message buffers and stream
 529:Generated_Source\PSoC5/RTOS_stream_buffer.c ****      * buffers.  If this is a message buffer then the space needed must be
 530:Generated_Source\PSoC5/RTOS_stream_buffer.c ****      * increased by the amount of bytes needed to store the length of the
 531:Generated_Source\PSoC5/RTOS_stream_buffer.c ****      * message. */
 532:Generated_Source\PSoC5/RTOS_stream_buffer.c ****     if( ( pxStreamBuffer->ucFlags & sbFLAGS_IS_MESSAGE_BUFFER ) != ( uint8_t ) 0 )
 533:Generated_Source\PSoC5/RTOS_stream_buffer.c ****     {
 534:Generated_Source\PSoC5/RTOS_stream_buffer.c ****         xRequiredSpace += sbBYTES_TO_STORE_MESSAGE_LENGTH;
 535:Generated_Source\PSoC5/RTOS_stream_buffer.c **** 
 536:Generated_Source\PSoC5/RTOS_stream_buffer.c ****         /* Overflow? */
 537:Generated_Source\PSoC5/RTOS_stream_buffer.c ****         configASSERT( xRequiredSpace > xDataLengthBytes );
 538:Generated_Source\PSoC5/RTOS_stream_buffer.c **** 
 539:Generated_Source\PSoC5/RTOS_stream_buffer.c ****         /* In the case of the message buffer, one has to be able to write the complete message as o
 540:Generated_Source\PSoC5/RTOS_stream_buffer.c ****          * a stream buffer for semantic reasons. Check if it is physically possible to write the me
 541:Generated_Source\PSoC5/RTOS_stream_buffer.c ****          * the length of the buffer. */
 542:Generated_Source\PSoC5/RTOS_stream_buffer.c ****         if( xRequiredSpace > pxStreamBuffer->xLength )
 543:Generated_Source\PSoC5/RTOS_stream_buffer.c ****         {
 544:Generated_Source\PSoC5/RTOS_stream_buffer.c ****             /* The message could never be written because it is greater than the buffer length.
ARM GAS  C:\Users\df16\AppData\Local\Temp\ccjld08w.s 			page 11


 545:Generated_Source\PSoC5/RTOS_stream_buffer.c ****              * By setting xIsFeasable to FALSE, we skip over the following do..while loop, thus avo
 546:Generated_Source\PSoC5/RTOS_stream_buffer.c ****              * a deadlock. The call to 'prvWriteMessageToBuffer' toward the end of this function wi
 547:Generated_Source\PSoC5/RTOS_stream_buffer.c ****              * xRequiredSpace greater than xSpace will suffice in not writing anything to the inter
 548:Generated_Source\PSoC5/RTOS_stream_buffer.c ****              * Now, the function will return 0 because the message could not be written. Should an 
 549:Generated_Source\PSoC5/RTOS_stream_buffer.c ****              * returned instead ??? In my opinion, probably.. But the return type doesn't allow for
 550:Generated_Source\PSoC5/RTOS_stream_buffer.c ****              * values to be returned. A confusion could exist to the caller. Returning 0 because a 
 551:Generated_Source\PSoC5/RTOS_stream_buffer.c ****              * and a subsequent send attempts could eventually succeed, and returning 0 because a w
 552:Generated_Source\PSoC5/RTOS_stream_buffer.c ****              * happen because of the size are two scenarios to me :/ */
 553:Generated_Source\PSoC5/RTOS_stream_buffer.c ****             xIsFeasible = pdFALSE;
 554:Generated_Source\PSoC5/RTOS_stream_buffer.c ****         }
 555:Generated_Source\PSoC5/RTOS_stream_buffer.c ****         else
 556:Generated_Source\PSoC5/RTOS_stream_buffer.c ****         {
 557:Generated_Source\PSoC5/RTOS_stream_buffer.c ****             /* It is possible to write the message completely in the buffer. This is the intended r
 558:Generated_Source\PSoC5/RTOS_stream_buffer.c ****              * Let's continue with the regular timeout logic. */
 559:Generated_Source\PSoC5/RTOS_stream_buffer.c ****             xIsFeasible = pdTRUE;
 560:Generated_Source\PSoC5/RTOS_stream_buffer.c ****         }
 561:Generated_Source\PSoC5/RTOS_stream_buffer.c ****     }
 562:Generated_Source\PSoC5/RTOS_stream_buffer.c ****     else
 563:Generated_Source\PSoC5/RTOS_stream_buffer.c ****     {
 564:Generated_Source\PSoC5/RTOS_stream_buffer.c ****         /* In the case of the stream buffer, not being able to completely write the message in the 
 565:Generated_Source\PSoC5/RTOS_stream_buffer.c ****          * is an acceptable scenario, but it has to be dealt with properly */
 566:Generated_Source\PSoC5/RTOS_stream_buffer.c ****         if( xRequiredSpace > pxStreamBuffer->xLength )
 567:Generated_Source\PSoC5/RTOS_stream_buffer.c ****         {
 568:Generated_Source\PSoC5/RTOS_stream_buffer.c ****             /* Not enough buffer space. We will attempt to write as much as we can in this run
 569:Generated_Source\PSoC5/RTOS_stream_buffer.c ****              * so that the caller can send the remaining in subsequent calls. We avoid a deadlock b
 570:Generated_Source\PSoC5/RTOS_stream_buffer.c ****              * offering the possibility to take the 'else' branch in the  'if( xSpace < xRequiredSp
 571:Generated_Source\PSoC5/RTOS_stream_buffer.c ****              * condition inside the following do..while loop */
 572:Generated_Source\PSoC5/RTOS_stream_buffer.c ****             xRequiredSpace = pxStreamBuffer->xLength;
 573:Generated_Source\PSoC5/RTOS_stream_buffer.c **** 
 574:Generated_Source\PSoC5/RTOS_stream_buffer.c ****             /* TODO FIXME: Is there a check we should do with the xTriggerLevelBytes value ? */
 575:Generated_Source\PSoC5/RTOS_stream_buffer.c **** 
 576:Generated_Source\PSoC5/RTOS_stream_buffer.c ****             /* With the adjustment to 'xRequiredSpace', the deadlock is avoided, thus it's now feas
 577:Generated_Source\PSoC5/RTOS_stream_buffer.c ****             xIsFeasible = pdTRUE;
 578:Generated_Source\PSoC5/RTOS_stream_buffer.c ****         }
 579:Generated_Source\PSoC5/RTOS_stream_buffer.c ****         else
 580:Generated_Source\PSoC5/RTOS_stream_buffer.c ****         {
 581:Generated_Source\PSoC5/RTOS_stream_buffer.c ****             /* It is possible to write the message completely in the buffer. */
 582:Generated_Source\PSoC5/RTOS_stream_buffer.c ****             xIsFeasible = pdTRUE;
 583:Generated_Source\PSoC5/RTOS_stream_buffer.c ****         }
 584:Generated_Source\PSoC5/RTOS_stream_buffer.c ****     }
 585:Generated_Source\PSoC5/RTOS_stream_buffer.c **** 
 586:Generated_Source\PSoC5/RTOS_stream_buffer.c ****     /* Added check against xIsFeasible. If it's not feasible, don't even wait for notification, let
 587:Generated_Source\PSoC5/RTOS_stream_buffer.c ****     if( ( xTicksToWait != ( TickType_t ) 0 ) && ( xIsFeasible == pdTRUE ) )
 588:Generated_Source\PSoC5/RTOS_stream_buffer.c ****     {
 589:Generated_Source\PSoC5/RTOS_stream_buffer.c ****         vTaskSetTimeOutState( &xTimeOut );
 590:Generated_Source\PSoC5/RTOS_stream_buffer.c **** 
 591:Generated_Source\PSoC5/RTOS_stream_buffer.c ****         do
 592:Generated_Source\PSoC5/RTOS_stream_buffer.c ****         {
 593:Generated_Source\PSoC5/RTOS_stream_buffer.c ****             /* Wait until the required number of bytes are free in the message
 594:Generated_Source\PSoC5/RTOS_stream_buffer.c ****              * buffer. */
 595:Generated_Source\PSoC5/RTOS_stream_buffer.c ****             taskENTER_CRITICAL();
 596:Generated_Source\PSoC5/RTOS_stream_buffer.c ****             {
 597:Generated_Source\PSoC5/RTOS_stream_buffer.c ****                 xSpace = xStreamBufferSpacesAvailable( pxStreamBuffer );
 598:Generated_Source\PSoC5/RTOS_stream_buffer.c **** 
 599:Generated_Source\PSoC5/RTOS_stream_buffer.c ****                 if( xSpace < xRequiredSpace )
 600:Generated_Source\PSoC5/RTOS_stream_buffer.c ****                 {
 601:Generated_Source\PSoC5/RTOS_stream_buffer.c ****                     /* Clear notification state as going to wait for space. */
ARM GAS  C:\Users\df16\AppData\Local\Temp\ccjld08w.s 			page 12


 602:Generated_Source\PSoC5/RTOS_stream_buffer.c ****                     ( void ) xTaskNotifyStateClear( NULL );
 603:Generated_Source\PSoC5/RTOS_stream_buffer.c **** 
 604:Generated_Source\PSoC5/RTOS_stream_buffer.c ****                     /* Should only be one writer. */
 605:Generated_Source\PSoC5/RTOS_stream_buffer.c ****                     configASSERT( pxStreamBuffer->xTaskWaitingToSend == NULL );
 606:Generated_Source\PSoC5/RTOS_stream_buffer.c ****                     pxStreamBuffer->xTaskWaitingToSend = xTaskGetCurrentTaskHandle();
 607:Generated_Source\PSoC5/RTOS_stream_buffer.c ****                 }
 608:Generated_Source\PSoC5/RTOS_stream_buffer.c ****                 else
 609:Generated_Source\PSoC5/RTOS_stream_buffer.c ****                 {
 610:Generated_Source\PSoC5/RTOS_stream_buffer.c ****                     taskEXIT_CRITICAL();
 611:Generated_Source\PSoC5/RTOS_stream_buffer.c ****                     break;
 612:Generated_Source\PSoC5/RTOS_stream_buffer.c ****                 }
 613:Generated_Source\PSoC5/RTOS_stream_buffer.c ****             }
 614:Generated_Source\PSoC5/RTOS_stream_buffer.c ****             taskEXIT_CRITICAL();
 615:Generated_Source\PSoC5/RTOS_stream_buffer.c **** 
 616:Generated_Source\PSoC5/RTOS_stream_buffer.c ****             traceBLOCKING_ON_STREAM_BUFFER_SEND( xStreamBuffer );
 617:Generated_Source\PSoC5/RTOS_stream_buffer.c ****             ( void ) xTaskNotifyWait( ( uint32_t ) 0, ( uint32_t ) 0, NULL, xTicksToWait );
 618:Generated_Source\PSoC5/RTOS_stream_buffer.c ****             pxStreamBuffer->xTaskWaitingToSend = NULL;
 619:Generated_Source\PSoC5/RTOS_stream_buffer.c ****         } while( xTaskCheckForTimeOut( &xTimeOut, &xTicksToWait ) == pdFALSE );
 620:Generated_Source\PSoC5/RTOS_stream_buffer.c ****     }
 621:Generated_Source\PSoC5/RTOS_stream_buffer.c ****     else
 622:Generated_Source\PSoC5/RTOS_stream_buffer.c ****     {
 623:Generated_Source\PSoC5/RTOS_stream_buffer.c ****         mtCOVERAGE_TEST_MARKER();
 624:Generated_Source\PSoC5/RTOS_stream_buffer.c ****     }
 625:Generated_Source\PSoC5/RTOS_stream_buffer.c **** 
 626:Generated_Source\PSoC5/RTOS_stream_buffer.c ****     if( xSpace == ( size_t ) 0 )
 627:Generated_Source\PSoC5/RTOS_stream_buffer.c ****     {
 628:Generated_Source\PSoC5/RTOS_stream_buffer.c ****         xSpace = xStreamBufferSpacesAvailable( pxStreamBuffer );
 629:Generated_Source\PSoC5/RTOS_stream_buffer.c ****     }
 630:Generated_Source\PSoC5/RTOS_stream_buffer.c ****     else
 631:Generated_Source\PSoC5/RTOS_stream_buffer.c ****     {
 632:Generated_Source\PSoC5/RTOS_stream_buffer.c ****         mtCOVERAGE_TEST_MARKER();
 633:Generated_Source\PSoC5/RTOS_stream_buffer.c ****     }
 634:Generated_Source\PSoC5/RTOS_stream_buffer.c **** 
 635:Generated_Source\PSoC5/RTOS_stream_buffer.c ****     xReturn = prvWriteMessageToBuffer( pxStreamBuffer, pvTxData, xDataLengthBytes, xSpace, xRequire
 636:Generated_Source\PSoC5/RTOS_stream_buffer.c **** 
 637:Generated_Source\PSoC5/RTOS_stream_buffer.c ****     if( xReturn > ( size_t ) 0 )
 638:Generated_Source\PSoC5/RTOS_stream_buffer.c ****     {
 639:Generated_Source\PSoC5/RTOS_stream_buffer.c ****         traceSTREAM_BUFFER_SEND( xStreamBuffer, xReturn );
 640:Generated_Source\PSoC5/RTOS_stream_buffer.c **** 
 641:Generated_Source\PSoC5/RTOS_stream_buffer.c ****         /* Was a task waiting for the data? */
 642:Generated_Source\PSoC5/RTOS_stream_buffer.c ****         if( prvBytesInBuffer( pxStreamBuffer ) >= pxStreamBuffer->xTriggerLevelBytes )
 643:Generated_Source\PSoC5/RTOS_stream_buffer.c ****         {
 644:Generated_Source\PSoC5/RTOS_stream_buffer.c ****             sbSEND_COMPLETED( pxStreamBuffer );
 645:Generated_Source\PSoC5/RTOS_stream_buffer.c ****         }
 646:Generated_Source\PSoC5/RTOS_stream_buffer.c ****         else
 647:Generated_Source\PSoC5/RTOS_stream_buffer.c ****         {
 648:Generated_Source\PSoC5/RTOS_stream_buffer.c ****             mtCOVERAGE_TEST_MARKER();
 649:Generated_Source\PSoC5/RTOS_stream_buffer.c ****         }
 650:Generated_Source\PSoC5/RTOS_stream_buffer.c ****     }
 651:Generated_Source\PSoC5/RTOS_stream_buffer.c ****     else
 652:Generated_Source\PSoC5/RTOS_stream_buffer.c ****     {
 653:Generated_Source\PSoC5/RTOS_stream_buffer.c ****         mtCOVERAGE_TEST_MARKER();
 654:Generated_Source\PSoC5/RTOS_stream_buffer.c ****         traceSTREAM_BUFFER_SEND_FAILED( xStreamBuffer );
 655:Generated_Source\PSoC5/RTOS_stream_buffer.c ****     }
 656:Generated_Source\PSoC5/RTOS_stream_buffer.c **** 
 657:Generated_Source\PSoC5/RTOS_stream_buffer.c ****     return xReturn;
 658:Generated_Source\PSoC5/RTOS_stream_buffer.c **** }
ARM GAS  C:\Users\df16\AppData\Local\Temp\ccjld08w.s 			page 13


 659:Generated_Source\PSoC5/RTOS_stream_buffer.c **** /*-----------------------------------------------------------*/
 660:Generated_Source\PSoC5/RTOS_stream_buffer.c **** 
 661:Generated_Source\PSoC5/RTOS_stream_buffer.c **** size_t xStreamBufferSendFromISR( StreamBufferHandle_t xStreamBuffer,
 662:Generated_Source\PSoC5/RTOS_stream_buffer.c ****                                  const void * pvTxData,
 663:Generated_Source\PSoC5/RTOS_stream_buffer.c ****                                  size_t xDataLengthBytes,
 664:Generated_Source\PSoC5/RTOS_stream_buffer.c ****                                  BaseType_t * const pxHigherPriorityTaskWoken )
 665:Generated_Source\PSoC5/RTOS_stream_buffer.c **** {
 666:Generated_Source\PSoC5/RTOS_stream_buffer.c ****     StreamBuffer_t * const pxStreamBuffer = xStreamBuffer;
 667:Generated_Source\PSoC5/RTOS_stream_buffer.c ****     size_t xReturn, xSpace;
 668:Generated_Source\PSoC5/RTOS_stream_buffer.c ****     size_t xRequiredSpace = xDataLengthBytes;
 669:Generated_Source\PSoC5/RTOS_stream_buffer.c **** 
 670:Generated_Source\PSoC5/RTOS_stream_buffer.c ****     configASSERT( pvTxData );
 671:Generated_Source\PSoC5/RTOS_stream_buffer.c ****     configASSERT( pxStreamBuffer );
 672:Generated_Source\PSoC5/RTOS_stream_buffer.c **** 
 673:Generated_Source\PSoC5/RTOS_stream_buffer.c ****     /* This send function is used to write to both message buffers and stream
 674:Generated_Source\PSoC5/RTOS_stream_buffer.c ****      * buffers.  If this is a message buffer then the space needed must be
 675:Generated_Source\PSoC5/RTOS_stream_buffer.c ****      * increased by the amount of bytes needed to store the length of the
 676:Generated_Source\PSoC5/RTOS_stream_buffer.c ****      * message. */
 677:Generated_Source\PSoC5/RTOS_stream_buffer.c ****     if( ( pxStreamBuffer->ucFlags & sbFLAGS_IS_MESSAGE_BUFFER ) != ( uint8_t ) 0 )
 678:Generated_Source\PSoC5/RTOS_stream_buffer.c ****     {
 679:Generated_Source\PSoC5/RTOS_stream_buffer.c ****         xRequiredSpace += sbBYTES_TO_STORE_MESSAGE_LENGTH;
 680:Generated_Source\PSoC5/RTOS_stream_buffer.c ****     }
 681:Generated_Source\PSoC5/RTOS_stream_buffer.c ****     else
 682:Generated_Source\PSoC5/RTOS_stream_buffer.c ****     {
 683:Generated_Source\PSoC5/RTOS_stream_buffer.c ****         mtCOVERAGE_TEST_MARKER();
 684:Generated_Source\PSoC5/RTOS_stream_buffer.c ****     }
 685:Generated_Source\PSoC5/RTOS_stream_buffer.c **** 
 686:Generated_Source\PSoC5/RTOS_stream_buffer.c ****     xSpace = xStreamBufferSpacesAvailable( pxStreamBuffer );
 687:Generated_Source\PSoC5/RTOS_stream_buffer.c ****     xReturn = prvWriteMessageToBuffer( pxStreamBuffer, pvTxData, xDataLengthBytes, xSpace, xRequire
 688:Generated_Source\PSoC5/RTOS_stream_buffer.c **** 
 689:Generated_Source\PSoC5/RTOS_stream_buffer.c ****     if( xReturn > ( size_t ) 0 )
 690:Generated_Source\PSoC5/RTOS_stream_buffer.c ****     {
 691:Generated_Source\PSoC5/RTOS_stream_buffer.c ****         /* Was a task waiting for the data? */
 692:Generated_Source\PSoC5/RTOS_stream_buffer.c ****         if( prvBytesInBuffer( pxStreamBuffer ) >= pxStreamBuffer->xTriggerLevelBytes )
 693:Generated_Source\PSoC5/RTOS_stream_buffer.c ****         {
 694:Generated_Source\PSoC5/RTOS_stream_buffer.c ****             sbSEND_COMPLETE_FROM_ISR( pxStreamBuffer, pxHigherPriorityTaskWoken );
 695:Generated_Source\PSoC5/RTOS_stream_buffer.c ****         }
 696:Generated_Source\PSoC5/RTOS_stream_buffer.c ****         else
 697:Generated_Source\PSoC5/RTOS_stream_buffer.c ****         {
 698:Generated_Source\PSoC5/RTOS_stream_buffer.c ****             mtCOVERAGE_TEST_MARKER();
 699:Generated_Source\PSoC5/RTOS_stream_buffer.c ****         }
 700:Generated_Source\PSoC5/RTOS_stream_buffer.c ****     }
 701:Generated_Source\PSoC5/RTOS_stream_buffer.c ****     else
 702:Generated_Source\PSoC5/RTOS_stream_buffer.c ****     {
 703:Generated_Source\PSoC5/RTOS_stream_buffer.c ****         mtCOVERAGE_TEST_MARKER();
 704:Generated_Source\PSoC5/RTOS_stream_buffer.c ****     }
 705:Generated_Source\PSoC5/RTOS_stream_buffer.c **** 
 706:Generated_Source\PSoC5/RTOS_stream_buffer.c ****     traceSTREAM_BUFFER_SEND_FROM_ISR( xStreamBuffer, xReturn );
 707:Generated_Source\PSoC5/RTOS_stream_buffer.c **** 
 708:Generated_Source\PSoC5/RTOS_stream_buffer.c ****     return xReturn;
 709:Generated_Source\PSoC5/RTOS_stream_buffer.c **** }
 710:Generated_Source\PSoC5/RTOS_stream_buffer.c **** /*-----------------------------------------------------------*/
 711:Generated_Source\PSoC5/RTOS_stream_buffer.c **** 
 712:Generated_Source\PSoC5/RTOS_stream_buffer.c **** static size_t prvWriteMessageToBuffer( StreamBuffer_t * const pxStreamBuffer,
 713:Generated_Source\PSoC5/RTOS_stream_buffer.c ****                                        const void * pvTxData,
 714:Generated_Source\PSoC5/RTOS_stream_buffer.c ****                                        size_t xDataLengthBytes,
 715:Generated_Source\PSoC5/RTOS_stream_buffer.c ****                                        size_t xSpace,
ARM GAS  C:\Users\df16\AppData\Local\Temp\ccjld08w.s 			page 14


 716:Generated_Source\PSoC5/RTOS_stream_buffer.c ****                                        size_t xRequiredSpace )
 717:Generated_Source\PSoC5/RTOS_stream_buffer.c **** {
 718:Generated_Source\PSoC5/RTOS_stream_buffer.c ****     BaseType_t xShouldWrite;
 719:Generated_Source\PSoC5/RTOS_stream_buffer.c ****     size_t xReturn;
 720:Generated_Source\PSoC5/RTOS_stream_buffer.c **** 
 721:Generated_Source\PSoC5/RTOS_stream_buffer.c ****     if( xSpace == ( size_t ) 0 )
 722:Generated_Source\PSoC5/RTOS_stream_buffer.c ****     {
 723:Generated_Source\PSoC5/RTOS_stream_buffer.c ****         /* Doesn't matter if this is a stream buffer or a message buffer, there
 724:Generated_Source\PSoC5/RTOS_stream_buffer.c ****          * is no space to write. */
 725:Generated_Source\PSoC5/RTOS_stream_buffer.c ****         xShouldWrite = pdFALSE;
 726:Generated_Source\PSoC5/RTOS_stream_buffer.c ****     }
 727:Generated_Source\PSoC5/RTOS_stream_buffer.c ****     else if( ( pxStreamBuffer->ucFlags & sbFLAGS_IS_MESSAGE_BUFFER ) == ( uint8_t ) 0 )
 728:Generated_Source\PSoC5/RTOS_stream_buffer.c ****     {
 729:Generated_Source\PSoC5/RTOS_stream_buffer.c ****         /* This is a stream buffer, as opposed to a message buffer, so writing a
 730:Generated_Source\PSoC5/RTOS_stream_buffer.c ****          * stream of bytes rather than discrete messages.  Write as many bytes as
 731:Generated_Source\PSoC5/RTOS_stream_buffer.c ****          * possible. */
 732:Generated_Source\PSoC5/RTOS_stream_buffer.c ****         xShouldWrite = pdTRUE;
 733:Generated_Source\PSoC5/RTOS_stream_buffer.c ****         xDataLengthBytes = configMIN( xDataLengthBytes, xSpace );
 734:Generated_Source\PSoC5/RTOS_stream_buffer.c ****     }
 735:Generated_Source\PSoC5/RTOS_stream_buffer.c ****     else if( xSpace >= xRequiredSpace )
 736:Generated_Source\PSoC5/RTOS_stream_buffer.c ****     {
 737:Generated_Source\PSoC5/RTOS_stream_buffer.c ****         /* This is a message buffer, as opposed to a stream buffer, and there
 738:Generated_Source\PSoC5/RTOS_stream_buffer.c ****          * is enough space to write both the message length and the message itself
 739:Generated_Source\PSoC5/RTOS_stream_buffer.c ****          * into the buffer.  Start by writing the length of the data, the data
 740:Generated_Source\PSoC5/RTOS_stream_buffer.c ****          * itself will be written later in this function. */
 741:Generated_Source\PSoC5/RTOS_stream_buffer.c ****         xShouldWrite = pdTRUE;
 742:Generated_Source\PSoC5/RTOS_stream_buffer.c ****         ( void ) prvWriteBytesToBuffer( pxStreamBuffer, ( const uint8_t * ) &( xDataLengthBytes ), 
 743:Generated_Source\PSoC5/RTOS_stream_buffer.c ****     }
 744:Generated_Source\PSoC5/RTOS_stream_buffer.c ****     else
 745:Generated_Source\PSoC5/RTOS_stream_buffer.c ****     {
 746:Generated_Source\PSoC5/RTOS_stream_buffer.c ****         /* There is space available, but not enough space. */
 747:Generated_Source\PSoC5/RTOS_stream_buffer.c ****         xShouldWrite = pdFALSE;
 748:Generated_Source\PSoC5/RTOS_stream_buffer.c ****     }
 749:Generated_Source\PSoC5/RTOS_stream_buffer.c **** 
 750:Generated_Source\PSoC5/RTOS_stream_buffer.c ****     if( xShouldWrite != pdFALSE )
 751:Generated_Source\PSoC5/RTOS_stream_buffer.c ****     {
 752:Generated_Source\PSoC5/RTOS_stream_buffer.c ****         /* Writes the data itself. */
 753:Generated_Source\PSoC5/RTOS_stream_buffer.c ****         xReturn = prvWriteBytesToBuffer( pxStreamBuffer, ( const uint8_t * ) pvTxData, xDataLengthB
 754:Generated_Source\PSoC5/RTOS_stream_buffer.c ****     }
 755:Generated_Source\PSoC5/RTOS_stream_buffer.c ****     else
 756:Generated_Source\PSoC5/RTOS_stream_buffer.c ****     {
 757:Generated_Source\PSoC5/RTOS_stream_buffer.c ****         xReturn = 0;
 758:Generated_Source\PSoC5/RTOS_stream_buffer.c ****     }
 759:Generated_Source\PSoC5/RTOS_stream_buffer.c **** 
 760:Generated_Source\PSoC5/RTOS_stream_buffer.c ****     return xReturn;
 761:Generated_Source\PSoC5/RTOS_stream_buffer.c **** }
 762:Generated_Source\PSoC5/RTOS_stream_buffer.c **** /*-----------------------------------------------------------*/
 763:Generated_Source\PSoC5/RTOS_stream_buffer.c **** 
 764:Generated_Source\PSoC5/RTOS_stream_buffer.c **** size_t xStreamBufferReceive( StreamBufferHandle_t xStreamBuffer,
 765:Generated_Source\PSoC5/RTOS_stream_buffer.c ****                              void * pvRxData,
 766:Generated_Source\PSoC5/RTOS_stream_buffer.c ****                              size_t xBufferLengthBytes,
 767:Generated_Source\PSoC5/RTOS_stream_buffer.c ****                              TickType_t xTicksToWait )
 768:Generated_Source\PSoC5/RTOS_stream_buffer.c **** {
 769:Generated_Source\PSoC5/RTOS_stream_buffer.c ****     StreamBuffer_t * const pxStreamBuffer = xStreamBuffer;
 770:Generated_Source\PSoC5/RTOS_stream_buffer.c ****     size_t xReceivedLength = 0, xBytesAvailable, xBytesToStoreMessageLength;
 771:Generated_Source\PSoC5/RTOS_stream_buffer.c **** 
 772:Generated_Source\PSoC5/RTOS_stream_buffer.c ****     configASSERT( pvRxData );
ARM GAS  C:\Users\df16\AppData\Local\Temp\ccjld08w.s 			page 15


 773:Generated_Source\PSoC5/RTOS_stream_buffer.c ****     configASSERT( pxStreamBuffer );
 774:Generated_Source\PSoC5/RTOS_stream_buffer.c **** 
 775:Generated_Source\PSoC5/RTOS_stream_buffer.c ****     /* This receive function is used by both message buffers, which store
 776:Generated_Source\PSoC5/RTOS_stream_buffer.c ****      * discrete messages, and stream buffers, which store a continuous stream of
 777:Generated_Source\PSoC5/RTOS_stream_buffer.c ****      * bytes.  Discrete messages include an additional
 778:Generated_Source\PSoC5/RTOS_stream_buffer.c ****      * sbBYTES_TO_STORE_MESSAGE_LENGTH bytes that hold the length of the
 779:Generated_Source\PSoC5/RTOS_stream_buffer.c ****      * message. */
 780:Generated_Source\PSoC5/RTOS_stream_buffer.c ****     if( ( pxStreamBuffer->ucFlags & sbFLAGS_IS_MESSAGE_BUFFER ) != ( uint8_t ) 0 )
 781:Generated_Source\PSoC5/RTOS_stream_buffer.c ****     {
 782:Generated_Source\PSoC5/RTOS_stream_buffer.c ****         xBytesToStoreMessageLength = sbBYTES_TO_STORE_MESSAGE_LENGTH;
 783:Generated_Source\PSoC5/RTOS_stream_buffer.c ****     }
 784:Generated_Source\PSoC5/RTOS_stream_buffer.c ****     else
 785:Generated_Source\PSoC5/RTOS_stream_buffer.c ****     {
 786:Generated_Source\PSoC5/RTOS_stream_buffer.c ****         xBytesToStoreMessageLength = 0;
 787:Generated_Source\PSoC5/RTOS_stream_buffer.c ****     }
 788:Generated_Source\PSoC5/RTOS_stream_buffer.c **** 
 789:Generated_Source\PSoC5/RTOS_stream_buffer.c ****     if( xTicksToWait != ( TickType_t ) 0 )
 790:Generated_Source\PSoC5/RTOS_stream_buffer.c ****     {
 791:Generated_Source\PSoC5/RTOS_stream_buffer.c ****         /* Checking if there is data and clearing the notification state must be
 792:Generated_Source\PSoC5/RTOS_stream_buffer.c ****          * performed atomically. */
 793:Generated_Source\PSoC5/RTOS_stream_buffer.c ****         taskENTER_CRITICAL();
 794:Generated_Source\PSoC5/RTOS_stream_buffer.c ****         {
 795:Generated_Source\PSoC5/RTOS_stream_buffer.c ****             xBytesAvailable = prvBytesInBuffer( pxStreamBuffer );
 796:Generated_Source\PSoC5/RTOS_stream_buffer.c **** 
 797:Generated_Source\PSoC5/RTOS_stream_buffer.c ****             /* If this function was invoked by a message buffer read then
 798:Generated_Source\PSoC5/RTOS_stream_buffer.c ****              * xBytesToStoreMessageLength holds the number of bytes used to hold
 799:Generated_Source\PSoC5/RTOS_stream_buffer.c ****              * the length of the next discrete message.  If this function was
 800:Generated_Source\PSoC5/RTOS_stream_buffer.c ****              * invoked by a stream buffer read then xBytesToStoreMessageLength will
 801:Generated_Source\PSoC5/RTOS_stream_buffer.c ****              * be 0. */
 802:Generated_Source\PSoC5/RTOS_stream_buffer.c ****             if( xBytesAvailable <= xBytesToStoreMessageLength )
 803:Generated_Source\PSoC5/RTOS_stream_buffer.c ****             {
 804:Generated_Source\PSoC5/RTOS_stream_buffer.c ****                 /* Clear notification state as going to wait for data. */
 805:Generated_Source\PSoC5/RTOS_stream_buffer.c ****                 ( void ) xTaskNotifyStateClear( NULL );
 806:Generated_Source\PSoC5/RTOS_stream_buffer.c **** 
 807:Generated_Source\PSoC5/RTOS_stream_buffer.c ****                 /* Should only be one reader. */
 808:Generated_Source\PSoC5/RTOS_stream_buffer.c ****                 configASSERT( pxStreamBuffer->xTaskWaitingToReceive == NULL );
 809:Generated_Source\PSoC5/RTOS_stream_buffer.c ****                 pxStreamBuffer->xTaskWaitingToReceive = xTaskGetCurrentTaskHandle();
 810:Generated_Source\PSoC5/RTOS_stream_buffer.c ****             }
 811:Generated_Source\PSoC5/RTOS_stream_buffer.c ****             else
 812:Generated_Source\PSoC5/RTOS_stream_buffer.c ****             {
 813:Generated_Source\PSoC5/RTOS_stream_buffer.c ****                 mtCOVERAGE_TEST_MARKER();
 814:Generated_Source\PSoC5/RTOS_stream_buffer.c ****             }
 815:Generated_Source\PSoC5/RTOS_stream_buffer.c ****         }
 816:Generated_Source\PSoC5/RTOS_stream_buffer.c ****         taskEXIT_CRITICAL();
 817:Generated_Source\PSoC5/RTOS_stream_buffer.c **** 
 818:Generated_Source\PSoC5/RTOS_stream_buffer.c ****         if( xBytesAvailable <= xBytesToStoreMessageLength )
 819:Generated_Source\PSoC5/RTOS_stream_buffer.c ****         {
 820:Generated_Source\PSoC5/RTOS_stream_buffer.c ****             /* Wait for data to be available. */
 821:Generated_Source\PSoC5/RTOS_stream_buffer.c ****             traceBLOCKING_ON_STREAM_BUFFER_RECEIVE( xStreamBuffer );
 822:Generated_Source\PSoC5/RTOS_stream_buffer.c ****             ( void ) xTaskNotifyWait( ( uint32_t ) 0, ( uint32_t ) 0, NULL, xTicksToWait );
 823:Generated_Source\PSoC5/RTOS_stream_buffer.c ****             pxStreamBuffer->xTaskWaitingToReceive = NULL;
 824:Generated_Source\PSoC5/RTOS_stream_buffer.c **** 
 825:Generated_Source\PSoC5/RTOS_stream_buffer.c ****             /* Recheck the data available after blocking. */
 826:Generated_Source\PSoC5/RTOS_stream_buffer.c ****             xBytesAvailable = prvBytesInBuffer( pxStreamBuffer );
 827:Generated_Source\PSoC5/RTOS_stream_buffer.c ****         }
 828:Generated_Source\PSoC5/RTOS_stream_buffer.c ****         else
 829:Generated_Source\PSoC5/RTOS_stream_buffer.c ****         {
ARM GAS  C:\Users\df16\AppData\Local\Temp\ccjld08w.s 			page 16


 830:Generated_Source\PSoC5/RTOS_stream_buffer.c ****             mtCOVERAGE_TEST_MARKER();
 831:Generated_Source\PSoC5/RTOS_stream_buffer.c ****         }
 832:Generated_Source\PSoC5/RTOS_stream_buffer.c ****     }
 833:Generated_Source\PSoC5/RTOS_stream_buffer.c ****     else
 834:Generated_Source\PSoC5/RTOS_stream_buffer.c ****     {
 835:Generated_Source\PSoC5/RTOS_stream_buffer.c ****         xBytesAvailable = prvBytesInBuffer( pxStreamBuffer );
 836:Generated_Source\PSoC5/RTOS_stream_buffer.c ****     }
 837:Generated_Source\PSoC5/RTOS_stream_buffer.c **** 
 838:Generated_Source\PSoC5/RTOS_stream_buffer.c ****     /* Whether receiving a discrete message (where xBytesToStoreMessageLength
 839:Generated_Source\PSoC5/RTOS_stream_buffer.c ****      * holds the number of bytes used to store the message length) or a stream of
 840:Generated_Source\PSoC5/RTOS_stream_buffer.c ****      * bytes (where xBytesToStoreMessageLength is zero), the number of bytes
 841:Generated_Source\PSoC5/RTOS_stream_buffer.c ****      * available must be greater than xBytesToStoreMessageLength to be able to
 842:Generated_Source\PSoC5/RTOS_stream_buffer.c ****      * read bytes from the buffer. */
 843:Generated_Source\PSoC5/RTOS_stream_buffer.c ****     if( xBytesAvailable > xBytesToStoreMessageLength )
 844:Generated_Source\PSoC5/RTOS_stream_buffer.c ****     {
 845:Generated_Source\PSoC5/RTOS_stream_buffer.c ****         xReceivedLength = prvReadMessageFromBuffer( pxStreamBuffer, pvRxData, xBufferLengthBytes, x
 846:Generated_Source\PSoC5/RTOS_stream_buffer.c **** 
 847:Generated_Source\PSoC5/RTOS_stream_buffer.c ****         /* Was a task waiting for space in the buffer? */
 848:Generated_Source\PSoC5/RTOS_stream_buffer.c ****         if( xReceivedLength != ( size_t ) 0 )
 849:Generated_Source\PSoC5/RTOS_stream_buffer.c ****         {
 850:Generated_Source\PSoC5/RTOS_stream_buffer.c ****             traceSTREAM_BUFFER_RECEIVE( xStreamBuffer, xReceivedLength );
 851:Generated_Source\PSoC5/RTOS_stream_buffer.c ****             sbRECEIVE_COMPLETED( pxStreamBuffer );
 852:Generated_Source\PSoC5/RTOS_stream_buffer.c ****         }
 853:Generated_Source\PSoC5/RTOS_stream_buffer.c ****         else
 854:Generated_Source\PSoC5/RTOS_stream_buffer.c ****         {
 855:Generated_Source\PSoC5/RTOS_stream_buffer.c ****             mtCOVERAGE_TEST_MARKER();
 856:Generated_Source\PSoC5/RTOS_stream_buffer.c ****         }
 857:Generated_Source\PSoC5/RTOS_stream_buffer.c ****     }
 858:Generated_Source\PSoC5/RTOS_stream_buffer.c ****     else
 859:Generated_Source\PSoC5/RTOS_stream_buffer.c ****     {
 860:Generated_Source\PSoC5/RTOS_stream_buffer.c ****         traceSTREAM_BUFFER_RECEIVE_FAILED( xStreamBuffer );
 861:Generated_Source\PSoC5/RTOS_stream_buffer.c ****         mtCOVERAGE_TEST_MARKER();
 862:Generated_Source\PSoC5/RTOS_stream_buffer.c ****     }
 863:Generated_Source\PSoC5/RTOS_stream_buffer.c **** 
 864:Generated_Source\PSoC5/RTOS_stream_buffer.c ****     return xReceivedLength;
 865:Generated_Source\PSoC5/RTOS_stream_buffer.c **** }
 866:Generated_Source\PSoC5/RTOS_stream_buffer.c **** /*-----------------------------------------------------------*/
 867:Generated_Source\PSoC5/RTOS_stream_buffer.c **** 
 868:Generated_Source\PSoC5/RTOS_stream_buffer.c **** size_t xStreamBufferNextMessageLengthBytes( StreamBufferHandle_t xStreamBuffer )
 869:Generated_Source\PSoC5/RTOS_stream_buffer.c **** {
 870:Generated_Source\PSoC5/RTOS_stream_buffer.c ****     StreamBuffer_t * const pxStreamBuffer = xStreamBuffer;
 871:Generated_Source\PSoC5/RTOS_stream_buffer.c ****     size_t xReturn, xBytesAvailable, xOriginalTail;
 872:Generated_Source\PSoC5/RTOS_stream_buffer.c ****     configMESSAGE_BUFFER_LENGTH_TYPE xTempReturn;
 873:Generated_Source\PSoC5/RTOS_stream_buffer.c **** 
 874:Generated_Source\PSoC5/RTOS_stream_buffer.c ****     configASSERT( pxStreamBuffer );
 875:Generated_Source\PSoC5/RTOS_stream_buffer.c **** 
 876:Generated_Source\PSoC5/RTOS_stream_buffer.c ****     /* Ensure the stream buffer is being used as a message buffer. */
 877:Generated_Source\PSoC5/RTOS_stream_buffer.c ****     if( ( pxStreamBuffer->ucFlags & sbFLAGS_IS_MESSAGE_BUFFER ) != ( uint8_t ) 0 )
 878:Generated_Source\PSoC5/RTOS_stream_buffer.c ****     {
 879:Generated_Source\PSoC5/RTOS_stream_buffer.c ****         xBytesAvailable = prvBytesInBuffer( pxStreamBuffer );
 880:Generated_Source\PSoC5/RTOS_stream_buffer.c **** 
 881:Generated_Source\PSoC5/RTOS_stream_buffer.c ****         if( xBytesAvailable > sbBYTES_TO_STORE_MESSAGE_LENGTH )
 882:Generated_Source\PSoC5/RTOS_stream_buffer.c ****         {
 883:Generated_Source\PSoC5/RTOS_stream_buffer.c ****             /* The number of bytes available is greater than the number of bytes
 884:Generated_Source\PSoC5/RTOS_stream_buffer.c ****              * required to hold the length of the next message, so another message
 885:Generated_Source\PSoC5/RTOS_stream_buffer.c ****              * is available.  Return its length without removing the length bytes
 886:Generated_Source\PSoC5/RTOS_stream_buffer.c ****              * from the buffer.  A copy of the tail is stored so the buffer can be
ARM GAS  C:\Users\df16\AppData\Local\Temp\ccjld08w.s 			page 17


 887:Generated_Source\PSoC5/RTOS_stream_buffer.c ****              * returned to its prior state as the message is not actually being
 888:Generated_Source\PSoC5/RTOS_stream_buffer.c ****              * removed from the buffer. */
 889:Generated_Source\PSoC5/RTOS_stream_buffer.c ****             xOriginalTail = pxStreamBuffer->xTail;
 890:Generated_Source\PSoC5/RTOS_stream_buffer.c ****             ( void ) prvReadBytesFromBuffer( pxStreamBuffer, ( uint8_t * ) &xTempReturn, sbBYTES_TO
 891:Generated_Source\PSoC5/RTOS_stream_buffer.c ****             xReturn = ( size_t ) xTempReturn;
 892:Generated_Source\PSoC5/RTOS_stream_buffer.c ****             pxStreamBuffer->xTail = xOriginalTail;
 893:Generated_Source\PSoC5/RTOS_stream_buffer.c ****         }
 894:Generated_Source\PSoC5/RTOS_stream_buffer.c ****         else
 895:Generated_Source\PSoC5/RTOS_stream_buffer.c ****         {
 896:Generated_Source\PSoC5/RTOS_stream_buffer.c ****             /* The minimum amount of bytes in a message buffer is
 897:Generated_Source\PSoC5/RTOS_stream_buffer.c ****              * ( sbBYTES_TO_STORE_MESSAGE_LENGTH + 1 ), so if xBytesAvailable is
 898:Generated_Source\PSoC5/RTOS_stream_buffer.c ****              * less than sbBYTES_TO_STORE_MESSAGE_LENGTH the only other valid
 899:Generated_Source\PSoC5/RTOS_stream_buffer.c ****              * value is 0. */
 900:Generated_Source\PSoC5/RTOS_stream_buffer.c ****             configASSERT( xBytesAvailable == 0 );
 901:Generated_Source\PSoC5/RTOS_stream_buffer.c ****             xReturn = 0;
 902:Generated_Source\PSoC5/RTOS_stream_buffer.c ****         }
 903:Generated_Source\PSoC5/RTOS_stream_buffer.c ****     }
 904:Generated_Source\PSoC5/RTOS_stream_buffer.c ****     else
 905:Generated_Source\PSoC5/RTOS_stream_buffer.c ****     {
 906:Generated_Source\PSoC5/RTOS_stream_buffer.c ****         xReturn = 0;
 907:Generated_Source\PSoC5/RTOS_stream_buffer.c ****     }
 908:Generated_Source\PSoC5/RTOS_stream_buffer.c **** 
 909:Generated_Source\PSoC5/RTOS_stream_buffer.c ****     return xReturn;
 910:Generated_Source\PSoC5/RTOS_stream_buffer.c **** }
 911:Generated_Source\PSoC5/RTOS_stream_buffer.c **** /*-----------------------------------------------------------*/
 912:Generated_Source\PSoC5/RTOS_stream_buffer.c **** 
 913:Generated_Source\PSoC5/RTOS_stream_buffer.c **** size_t xStreamBufferReceiveFromISR( StreamBufferHandle_t xStreamBuffer,
 914:Generated_Source\PSoC5/RTOS_stream_buffer.c ****                                     void * pvRxData,
 915:Generated_Source\PSoC5/RTOS_stream_buffer.c ****                                     size_t xBufferLengthBytes,
 916:Generated_Source\PSoC5/RTOS_stream_buffer.c ****                                     BaseType_t * const pxHigherPriorityTaskWoken )
 917:Generated_Source\PSoC5/RTOS_stream_buffer.c **** {
 918:Generated_Source\PSoC5/RTOS_stream_buffer.c ****     StreamBuffer_t * const pxStreamBuffer = xStreamBuffer;
 919:Generated_Source\PSoC5/RTOS_stream_buffer.c ****     size_t xReceivedLength = 0, xBytesAvailable, xBytesToStoreMessageLength;
 920:Generated_Source\PSoC5/RTOS_stream_buffer.c **** 
 921:Generated_Source\PSoC5/RTOS_stream_buffer.c ****     configASSERT( pvRxData );
 922:Generated_Source\PSoC5/RTOS_stream_buffer.c ****     configASSERT( pxStreamBuffer );
 923:Generated_Source\PSoC5/RTOS_stream_buffer.c **** 
 924:Generated_Source\PSoC5/RTOS_stream_buffer.c ****     /* This receive function is used by both message buffers, which store
 925:Generated_Source\PSoC5/RTOS_stream_buffer.c ****      * discrete messages, and stream buffers, which store a continuous stream of
 926:Generated_Source\PSoC5/RTOS_stream_buffer.c ****      * bytes.  Discrete messages include an additional
 927:Generated_Source\PSoC5/RTOS_stream_buffer.c ****      * sbBYTES_TO_STORE_MESSAGE_LENGTH bytes that hold the length of the
 928:Generated_Source\PSoC5/RTOS_stream_buffer.c ****      * message. */
 929:Generated_Source\PSoC5/RTOS_stream_buffer.c ****     if( ( pxStreamBuffer->ucFlags & sbFLAGS_IS_MESSAGE_BUFFER ) != ( uint8_t ) 0 )
 930:Generated_Source\PSoC5/RTOS_stream_buffer.c ****     {
 931:Generated_Source\PSoC5/RTOS_stream_buffer.c ****         xBytesToStoreMessageLength = sbBYTES_TO_STORE_MESSAGE_LENGTH;
 932:Generated_Source\PSoC5/RTOS_stream_buffer.c ****     }
 933:Generated_Source\PSoC5/RTOS_stream_buffer.c ****     else
 934:Generated_Source\PSoC5/RTOS_stream_buffer.c ****     {
 935:Generated_Source\PSoC5/RTOS_stream_buffer.c ****         xBytesToStoreMessageLength = 0;
 936:Generated_Source\PSoC5/RTOS_stream_buffer.c ****     }
 937:Generated_Source\PSoC5/RTOS_stream_buffer.c **** 
 938:Generated_Source\PSoC5/RTOS_stream_buffer.c ****     xBytesAvailable = prvBytesInBuffer( pxStreamBuffer );
 939:Generated_Source\PSoC5/RTOS_stream_buffer.c **** 
 940:Generated_Source\PSoC5/RTOS_stream_buffer.c ****     /* Whether receiving a discrete message (where xBytesToStoreMessageLength
 941:Generated_Source\PSoC5/RTOS_stream_buffer.c ****      * holds the number of bytes used to store the message length) or a stream of
 942:Generated_Source\PSoC5/RTOS_stream_buffer.c ****      * bytes (where xBytesToStoreMessageLength is zero), the number of bytes
 943:Generated_Source\PSoC5/RTOS_stream_buffer.c ****      * available must be greater than xBytesToStoreMessageLength to be able to
ARM GAS  C:\Users\df16\AppData\Local\Temp\ccjld08w.s 			page 18


 944:Generated_Source\PSoC5/RTOS_stream_buffer.c ****      * read bytes from the buffer. */
 945:Generated_Source\PSoC5/RTOS_stream_buffer.c ****     if( xBytesAvailable > xBytesToStoreMessageLength )
 946:Generated_Source\PSoC5/RTOS_stream_buffer.c ****     {
 947:Generated_Source\PSoC5/RTOS_stream_buffer.c ****         xReceivedLength = prvReadMessageFromBuffer( pxStreamBuffer, pvRxData, xBufferLengthBytes, x
 948:Generated_Source\PSoC5/RTOS_stream_buffer.c **** 
 949:Generated_Source\PSoC5/RTOS_stream_buffer.c ****         /* Was a task waiting for space in the buffer? */
 950:Generated_Source\PSoC5/RTOS_stream_buffer.c ****         if( xReceivedLength != ( size_t ) 0 )
 951:Generated_Source\PSoC5/RTOS_stream_buffer.c ****         {
 952:Generated_Source\PSoC5/RTOS_stream_buffer.c ****             sbRECEIVE_COMPLETED_FROM_ISR( pxStreamBuffer, pxHigherPriorityTaskWoken );
 953:Generated_Source\PSoC5/RTOS_stream_buffer.c ****         }
 954:Generated_Source\PSoC5/RTOS_stream_buffer.c ****         else
 955:Generated_Source\PSoC5/RTOS_stream_buffer.c ****         {
 956:Generated_Source\PSoC5/RTOS_stream_buffer.c ****             mtCOVERAGE_TEST_MARKER();
 957:Generated_Source\PSoC5/RTOS_stream_buffer.c ****         }
 958:Generated_Source\PSoC5/RTOS_stream_buffer.c ****     }
 959:Generated_Source\PSoC5/RTOS_stream_buffer.c ****     else
 960:Generated_Source\PSoC5/RTOS_stream_buffer.c ****     {
 961:Generated_Source\PSoC5/RTOS_stream_buffer.c ****         mtCOVERAGE_TEST_MARKER();
 962:Generated_Source\PSoC5/RTOS_stream_buffer.c ****     }
 963:Generated_Source\PSoC5/RTOS_stream_buffer.c **** 
 964:Generated_Source\PSoC5/RTOS_stream_buffer.c ****     traceSTREAM_BUFFER_RECEIVE_FROM_ISR( xStreamBuffer, xReceivedLength );
 965:Generated_Source\PSoC5/RTOS_stream_buffer.c **** 
 966:Generated_Source\PSoC5/RTOS_stream_buffer.c ****     return xReceivedLength;
 967:Generated_Source\PSoC5/RTOS_stream_buffer.c **** }
 968:Generated_Source\PSoC5/RTOS_stream_buffer.c **** /*-----------------------------------------------------------*/
 969:Generated_Source\PSoC5/RTOS_stream_buffer.c **** 
 970:Generated_Source\PSoC5/RTOS_stream_buffer.c **** static size_t prvReadMessageFromBuffer( StreamBuffer_t * pxStreamBuffer,
 971:Generated_Source\PSoC5/RTOS_stream_buffer.c ****                                         void * pvRxData,
 972:Generated_Source\PSoC5/RTOS_stream_buffer.c ****                                         size_t xBufferLengthBytes,
 973:Generated_Source\PSoC5/RTOS_stream_buffer.c ****                                         size_t xBytesAvailable,
 974:Generated_Source\PSoC5/RTOS_stream_buffer.c ****                                         size_t xBytesToStoreMessageLength )
 975:Generated_Source\PSoC5/RTOS_stream_buffer.c **** {
 976:Generated_Source\PSoC5/RTOS_stream_buffer.c ****     size_t xOriginalTail, xReceivedLength, xNextMessageLength;
 977:Generated_Source\PSoC5/RTOS_stream_buffer.c ****     configMESSAGE_BUFFER_LENGTH_TYPE xTempNextMessageLength;
 978:Generated_Source\PSoC5/RTOS_stream_buffer.c **** 
 979:Generated_Source\PSoC5/RTOS_stream_buffer.c ****     if( xBytesToStoreMessageLength != ( size_t ) 0 )
 980:Generated_Source\PSoC5/RTOS_stream_buffer.c ****     {
 981:Generated_Source\PSoC5/RTOS_stream_buffer.c ****         /* A discrete message is being received.  First receive the length
 982:Generated_Source\PSoC5/RTOS_stream_buffer.c ****          * of the message.  A copy of the tail is stored so the buffer can be
 983:Generated_Source\PSoC5/RTOS_stream_buffer.c ****          * returned to its prior state if the length of the message is too
 984:Generated_Source\PSoC5/RTOS_stream_buffer.c ****          * large for the provided buffer. */
 985:Generated_Source\PSoC5/RTOS_stream_buffer.c ****         xOriginalTail = pxStreamBuffer->xTail;
 986:Generated_Source\PSoC5/RTOS_stream_buffer.c ****         ( void ) prvReadBytesFromBuffer( pxStreamBuffer, ( uint8_t * ) &xTempNextMessageLength, xBy
 987:Generated_Source\PSoC5/RTOS_stream_buffer.c ****         xNextMessageLength = ( size_t ) xTempNextMessageLength;
 988:Generated_Source\PSoC5/RTOS_stream_buffer.c **** 
 989:Generated_Source\PSoC5/RTOS_stream_buffer.c ****         /* Reduce the number of bytes available by the number of bytes just
 990:Generated_Source\PSoC5/RTOS_stream_buffer.c ****          * read out. */
 991:Generated_Source\PSoC5/RTOS_stream_buffer.c ****         xBytesAvailable -= xBytesToStoreMessageLength;
 992:Generated_Source\PSoC5/RTOS_stream_buffer.c **** 
 993:Generated_Source\PSoC5/RTOS_stream_buffer.c ****         /* Check there is enough space in the buffer provided by the
 994:Generated_Source\PSoC5/RTOS_stream_buffer.c ****          * user. */
 995:Generated_Source\PSoC5/RTOS_stream_buffer.c ****         if( xNextMessageLength > xBufferLengthBytes )
 996:Generated_Source\PSoC5/RTOS_stream_buffer.c ****         {
 997:Generated_Source\PSoC5/RTOS_stream_buffer.c ****             /* The user has provided insufficient space to read the message
 998:Generated_Source\PSoC5/RTOS_stream_buffer.c ****              * so return the buffer to its previous state (so the length of
 999:Generated_Source\PSoC5/RTOS_stream_buffer.c ****              * the message is in the buffer again). */
1000:Generated_Source\PSoC5/RTOS_stream_buffer.c ****             pxStreamBuffer->xTail = xOriginalTail;
ARM GAS  C:\Users\df16\AppData\Local\Temp\ccjld08w.s 			page 19


1001:Generated_Source\PSoC5/RTOS_stream_buffer.c ****             xNextMessageLength = 0;
1002:Generated_Source\PSoC5/RTOS_stream_buffer.c ****         }
1003:Generated_Source\PSoC5/RTOS_stream_buffer.c ****         else
1004:Generated_Source\PSoC5/RTOS_stream_buffer.c ****         {
1005:Generated_Source\PSoC5/RTOS_stream_buffer.c ****             mtCOVERAGE_TEST_MARKER();
1006:Generated_Source\PSoC5/RTOS_stream_buffer.c ****         }
1007:Generated_Source\PSoC5/RTOS_stream_buffer.c ****     }
1008:Generated_Source\PSoC5/RTOS_stream_buffer.c ****     else
1009:Generated_Source\PSoC5/RTOS_stream_buffer.c ****     {
1010:Generated_Source\PSoC5/RTOS_stream_buffer.c ****         /* A stream of bytes is being received (as opposed to a discrete
1011:Generated_Source\PSoC5/RTOS_stream_buffer.c ****          * message), so read as many bytes as possible. */
1012:Generated_Source\PSoC5/RTOS_stream_buffer.c ****         xNextMessageLength = xBufferLengthBytes;
1013:Generated_Source\PSoC5/RTOS_stream_buffer.c ****     }
1014:Generated_Source\PSoC5/RTOS_stream_buffer.c **** 
1015:Generated_Source\PSoC5/RTOS_stream_buffer.c ****     /* Read the actual data. */
1016:Generated_Source\PSoC5/RTOS_stream_buffer.c ****     xReceivedLength = prvReadBytesFromBuffer( pxStreamBuffer, ( uint8_t * ) pvRxData, xNextMessageL
1017:Generated_Source\PSoC5/RTOS_stream_buffer.c **** 
1018:Generated_Source\PSoC5/RTOS_stream_buffer.c ****     return xReceivedLength;
1019:Generated_Source\PSoC5/RTOS_stream_buffer.c **** }
1020:Generated_Source\PSoC5/RTOS_stream_buffer.c **** /*-----------------------------------------------------------*/
1021:Generated_Source\PSoC5/RTOS_stream_buffer.c **** 
1022:Generated_Source\PSoC5/RTOS_stream_buffer.c **** BaseType_t xStreamBufferIsEmpty( StreamBufferHandle_t xStreamBuffer )
1023:Generated_Source\PSoC5/RTOS_stream_buffer.c **** {
1024:Generated_Source\PSoC5/RTOS_stream_buffer.c ****     const StreamBuffer_t * const pxStreamBuffer = xStreamBuffer;
1025:Generated_Source\PSoC5/RTOS_stream_buffer.c ****     BaseType_t xReturn;
1026:Generated_Source\PSoC5/RTOS_stream_buffer.c ****     size_t xTail;
1027:Generated_Source\PSoC5/RTOS_stream_buffer.c **** 
1028:Generated_Source\PSoC5/RTOS_stream_buffer.c ****     configASSERT( pxStreamBuffer );
1029:Generated_Source\PSoC5/RTOS_stream_buffer.c **** 
1030:Generated_Source\PSoC5/RTOS_stream_buffer.c ****     /* True if no bytes are available. */
1031:Generated_Source\PSoC5/RTOS_stream_buffer.c ****     xTail = pxStreamBuffer->xTail;
1032:Generated_Source\PSoC5/RTOS_stream_buffer.c **** 
1033:Generated_Source\PSoC5/RTOS_stream_buffer.c ****     if( pxStreamBuffer->xHead == xTail )
1034:Generated_Source\PSoC5/RTOS_stream_buffer.c ****     {
1035:Generated_Source\PSoC5/RTOS_stream_buffer.c ****         xReturn = pdTRUE;
1036:Generated_Source\PSoC5/RTOS_stream_buffer.c ****     }
1037:Generated_Source\PSoC5/RTOS_stream_buffer.c ****     else
1038:Generated_Source\PSoC5/RTOS_stream_buffer.c ****     {
1039:Generated_Source\PSoC5/RTOS_stream_buffer.c ****         xReturn = pdFALSE;
1040:Generated_Source\PSoC5/RTOS_stream_buffer.c ****     }
1041:Generated_Source\PSoC5/RTOS_stream_buffer.c **** 
1042:Generated_Source\PSoC5/RTOS_stream_buffer.c ****     return xReturn;
1043:Generated_Source\PSoC5/RTOS_stream_buffer.c **** }
1044:Generated_Source\PSoC5/RTOS_stream_buffer.c **** /*-----------------------------------------------------------*/
1045:Generated_Source\PSoC5/RTOS_stream_buffer.c **** 
1046:Generated_Source\PSoC5/RTOS_stream_buffer.c **** BaseType_t xStreamBufferIsFull( StreamBufferHandle_t xStreamBuffer )
1047:Generated_Source\PSoC5/RTOS_stream_buffer.c **** {
1048:Generated_Source\PSoC5/RTOS_stream_buffer.c ****     BaseType_t xReturn;
1049:Generated_Source\PSoC5/RTOS_stream_buffer.c ****     size_t xBytesToStoreMessageLength;
1050:Generated_Source\PSoC5/RTOS_stream_buffer.c ****     const StreamBuffer_t * const pxStreamBuffer = xStreamBuffer;
1051:Generated_Source\PSoC5/RTOS_stream_buffer.c **** 
1052:Generated_Source\PSoC5/RTOS_stream_buffer.c ****     configASSERT( pxStreamBuffer );
1053:Generated_Source\PSoC5/RTOS_stream_buffer.c **** 
1054:Generated_Source\PSoC5/RTOS_stream_buffer.c ****     /* This generic version of the receive function is used by both message
1055:Generated_Source\PSoC5/RTOS_stream_buffer.c ****      * buffers, which store discrete messages, and stream buffers, which store a
1056:Generated_Source\PSoC5/RTOS_stream_buffer.c ****      * continuous stream of bytes.  Discrete messages include an additional
1057:Generated_Source\PSoC5/RTOS_stream_buffer.c ****      * sbBYTES_TO_STORE_MESSAGE_LENGTH bytes that hold the length of the message. */
ARM GAS  C:\Users\df16\AppData\Local\Temp\ccjld08w.s 			page 20


1058:Generated_Source\PSoC5/RTOS_stream_buffer.c ****     if( ( pxStreamBuffer->ucFlags & sbFLAGS_IS_MESSAGE_BUFFER ) != ( uint8_t ) 0 )
1059:Generated_Source\PSoC5/RTOS_stream_buffer.c ****     {
1060:Generated_Source\PSoC5/RTOS_stream_buffer.c ****         xBytesToStoreMessageLength = sbBYTES_TO_STORE_MESSAGE_LENGTH;
1061:Generated_Source\PSoC5/RTOS_stream_buffer.c ****     }
1062:Generated_Source\PSoC5/RTOS_stream_buffer.c ****     else
1063:Generated_Source\PSoC5/RTOS_stream_buffer.c ****     {
1064:Generated_Source\PSoC5/RTOS_stream_buffer.c ****         xBytesToStoreMessageLength = 0;
1065:Generated_Source\PSoC5/RTOS_stream_buffer.c ****     }
1066:Generated_Source\PSoC5/RTOS_stream_buffer.c **** 
1067:Generated_Source\PSoC5/RTOS_stream_buffer.c ****     /* True if the available space equals zero. */
1068:Generated_Source\PSoC5/RTOS_stream_buffer.c ****     if( xStreamBufferSpacesAvailable( xStreamBuffer ) <= xBytesToStoreMessageLength )
1069:Generated_Source\PSoC5/RTOS_stream_buffer.c ****     {
1070:Generated_Source\PSoC5/RTOS_stream_buffer.c ****         xReturn = pdTRUE;
1071:Generated_Source\PSoC5/RTOS_stream_buffer.c ****     }
1072:Generated_Source\PSoC5/RTOS_stream_buffer.c ****     else
1073:Generated_Source\PSoC5/RTOS_stream_buffer.c ****     {
1074:Generated_Source\PSoC5/RTOS_stream_buffer.c ****         xReturn = pdFALSE;
1075:Generated_Source\PSoC5/RTOS_stream_buffer.c ****     }
1076:Generated_Source\PSoC5/RTOS_stream_buffer.c **** 
1077:Generated_Source\PSoC5/RTOS_stream_buffer.c ****     return xReturn;
1078:Generated_Source\PSoC5/RTOS_stream_buffer.c **** }
1079:Generated_Source\PSoC5/RTOS_stream_buffer.c **** /*-----------------------------------------------------------*/
1080:Generated_Source\PSoC5/RTOS_stream_buffer.c **** 
1081:Generated_Source\PSoC5/RTOS_stream_buffer.c **** BaseType_t xStreamBufferSendCompletedFromISR( StreamBufferHandle_t xStreamBuffer,
1082:Generated_Source\PSoC5/RTOS_stream_buffer.c ****                                               BaseType_t * pxHigherPriorityTaskWoken )
1083:Generated_Source\PSoC5/RTOS_stream_buffer.c **** {
1084:Generated_Source\PSoC5/RTOS_stream_buffer.c ****     StreamBuffer_t * const pxStreamBuffer = xStreamBuffer;
1085:Generated_Source\PSoC5/RTOS_stream_buffer.c ****     BaseType_t xReturn;
1086:Generated_Source\PSoC5/RTOS_stream_buffer.c ****     UBaseType_t uxSavedInterruptStatus;
1087:Generated_Source\PSoC5/RTOS_stream_buffer.c **** 
1088:Generated_Source\PSoC5/RTOS_stream_buffer.c ****     configASSERT( pxStreamBuffer );
1089:Generated_Source\PSoC5/RTOS_stream_buffer.c **** 
1090:Generated_Source\PSoC5/RTOS_stream_buffer.c ****     uxSavedInterruptStatus = ( UBaseType_t ) portSET_INTERRUPT_MASK_FROM_ISR();
1091:Generated_Source\PSoC5/RTOS_stream_buffer.c ****     {
1092:Generated_Source\PSoC5/RTOS_stream_buffer.c ****         if( ( pxStreamBuffer )->xTaskWaitingToReceive != NULL )
1093:Generated_Source\PSoC5/RTOS_stream_buffer.c ****         {
1094:Generated_Source\PSoC5/RTOS_stream_buffer.c ****             ( void ) xTaskNotifyFromISR( ( pxStreamBuffer )->xTaskWaitingToReceive,
1095:Generated_Source\PSoC5/RTOS_stream_buffer.c ****                                          ( uint32_t ) 0,
1096:Generated_Source\PSoC5/RTOS_stream_buffer.c ****                                          eNoAction,
1097:Generated_Source\PSoC5/RTOS_stream_buffer.c ****                                          pxHigherPriorityTaskWoken );
1098:Generated_Source\PSoC5/RTOS_stream_buffer.c ****             ( pxStreamBuffer )->xTaskWaitingToReceive = NULL;
1099:Generated_Source\PSoC5/RTOS_stream_buffer.c ****             xReturn = pdTRUE;
1100:Generated_Source\PSoC5/RTOS_stream_buffer.c ****         }
1101:Generated_Source\PSoC5/RTOS_stream_buffer.c ****         else
1102:Generated_Source\PSoC5/RTOS_stream_buffer.c ****         {
1103:Generated_Source\PSoC5/RTOS_stream_buffer.c ****             xReturn = pdFALSE;
1104:Generated_Source\PSoC5/RTOS_stream_buffer.c ****         }
1105:Generated_Source\PSoC5/RTOS_stream_buffer.c ****     }
1106:Generated_Source\PSoC5/RTOS_stream_buffer.c ****     portCLEAR_INTERRUPT_MASK_FROM_ISR( uxSavedInterruptStatus );
1107:Generated_Source\PSoC5/RTOS_stream_buffer.c **** 
1108:Generated_Source\PSoC5/RTOS_stream_buffer.c ****     return xReturn;
1109:Generated_Source\PSoC5/RTOS_stream_buffer.c **** }
1110:Generated_Source\PSoC5/RTOS_stream_buffer.c **** /*-----------------------------------------------------------*/
1111:Generated_Source\PSoC5/RTOS_stream_buffer.c **** 
1112:Generated_Source\PSoC5/RTOS_stream_buffer.c **** BaseType_t xStreamBufferReceiveCompletedFromISR( StreamBufferHandle_t xStreamBuffer,
1113:Generated_Source\PSoC5/RTOS_stream_buffer.c ****                                                  BaseType_t * pxHigherPriorityTaskWoken )
1114:Generated_Source\PSoC5/RTOS_stream_buffer.c **** {
ARM GAS  C:\Users\df16\AppData\Local\Temp\ccjld08w.s 			page 21


1115:Generated_Source\PSoC5/RTOS_stream_buffer.c ****     StreamBuffer_t * const pxStreamBuffer = xStreamBuffer;
1116:Generated_Source\PSoC5/RTOS_stream_buffer.c ****     BaseType_t xReturn;
1117:Generated_Source\PSoC5/RTOS_stream_buffer.c ****     UBaseType_t uxSavedInterruptStatus;
1118:Generated_Source\PSoC5/RTOS_stream_buffer.c **** 
1119:Generated_Source\PSoC5/RTOS_stream_buffer.c ****     configASSERT( pxStreamBuffer );
1120:Generated_Source\PSoC5/RTOS_stream_buffer.c **** 
1121:Generated_Source\PSoC5/RTOS_stream_buffer.c ****     uxSavedInterruptStatus = ( UBaseType_t ) portSET_INTERRUPT_MASK_FROM_ISR();
1122:Generated_Source\PSoC5/RTOS_stream_buffer.c ****     {
1123:Generated_Source\PSoC5/RTOS_stream_buffer.c ****         if( ( pxStreamBuffer )->xTaskWaitingToSend != NULL )
1124:Generated_Source\PSoC5/RTOS_stream_buffer.c ****         {
1125:Generated_Source\PSoC5/RTOS_stream_buffer.c ****             ( void ) xTaskNotifyFromISR( ( pxStreamBuffer )->xTaskWaitingToSend,
1126:Generated_Source\PSoC5/RTOS_stream_buffer.c ****                                          ( uint32_t ) 0,
1127:Generated_Source\PSoC5/RTOS_stream_buffer.c ****                                          eNoAction,
1128:Generated_Source\PSoC5/RTOS_stream_buffer.c ****                                          pxHigherPriorityTaskWoken );
1129:Generated_Source\PSoC5/RTOS_stream_buffer.c ****             ( pxStreamBuffer )->xTaskWaitingToSend = NULL;
1130:Generated_Source\PSoC5/RTOS_stream_buffer.c ****             xReturn = pdTRUE;
1131:Generated_Source\PSoC5/RTOS_stream_buffer.c ****         }
1132:Generated_Source\PSoC5/RTOS_stream_buffer.c ****         else
1133:Generated_Source\PSoC5/RTOS_stream_buffer.c ****         {
1134:Generated_Source\PSoC5/RTOS_stream_buffer.c ****             xReturn = pdFALSE;
1135:Generated_Source\PSoC5/RTOS_stream_buffer.c ****         }
1136:Generated_Source\PSoC5/RTOS_stream_buffer.c ****     }
1137:Generated_Source\PSoC5/RTOS_stream_buffer.c ****     portCLEAR_INTERRUPT_MASK_FROM_ISR( uxSavedInterruptStatus );
1138:Generated_Source\PSoC5/RTOS_stream_buffer.c **** 
1139:Generated_Source\PSoC5/RTOS_stream_buffer.c ****     return xReturn;
1140:Generated_Source\PSoC5/RTOS_stream_buffer.c **** }
1141:Generated_Source\PSoC5/RTOS_stream_buffer.c **** /*-----------------------------------------------------------*/
1142:Generated_Source\PSoC5/RTOS_stream_buffer.c **** 
1143:Generated_Source\PSoC5/RTOS_stream_buffer.c **** static size_t prvWriteBytesToBuffer( StreamBuffer_t * const pxStreamBuffer,
1144:Generated_Source\PSoC5/RTOS_stream_buffer.c ****                                      const uint8_t * pucData,
1145:Generated_Source\PSoC5/RTOS_stream_buffer.c ****                                      size_t xCount )
1146:Generated_Source\PSoC5/RTOS_stream_buffer.c **** {
1147:Generated_Source\PSoC5/RTOS_stream_buffer.c ****     size_t xNextHead, xFirstLength;
1148:Generated_Source\PSoC5/RTOS_stream_buffer.c **** 
1149:Generated_Source\PSoC5/RTOS_stream_buffer.c ****     configASSERT( xCount > ( size_t ) 0 );
1150:Generated_Source\PSoC5/RTOS_stream_buffer.c **** 
1151:Generated_Source\PSoC5/RTOS_stream_buffer.c ****     xNextHead = pxStreamBuffer->xHead;
1152:Generated_Source\PSoC5/RTOS_stream_buffer.c **** 
1153:Generated_Source\PSoC5/RTOS_stream_buffer.c ****     /* Calculate the number of bytes that can be added in the first write -
1154:Generated_Source\PSoC5/RTOS_stream_buffer.c ****      * which may be less than the total number of bytes that need to be added if
1155:Generated_Source\PSoC5/RTOS_stream_buffer.c ****      * the buffer will wrap back to the beginning. */
1156:Generated_Source\PSoC5/RTOS_stream_buffer.c ****     xFirstLength = configMIN( pxStreamBuffer->xLength - xNextHead, xCount );
1157:Generated_Source\PSoC5/RTOS_stream_buffer.c **** 
1158:Generated_Source\PSoC5/RTOS_stream_buffer.c ****     /* Write as many bytes as can be written in the first write. */
1159:Generated_Source\PSoC5/RTOS_stream_buffer.c ****     configASSERT( ( xNextHead + xFirstLength ) <= pxStreamBuffer->xLength );
1160:Generated_Source\PSoC5/RTOS_stream_buffer.c ****     ( void ) memcpy( ( void * ) ( &( pxStreamBuffer->pucBuffer[ xNextHead ] ) ), ( const void * ) p
1161:Generated_Source\PSoC5/RTOS_stream_buffer.c **** 
1162:Generated_Source\PSoC5/RTOS_stream_buffer.c ****     /* If the number of bytes written was less than the number that could be
1163:Generated_Source\PSoC5/RTOS_stream_buffer.c ****      * written in the first write... */
1164:Generated_Source\PSoC5/RTOS_stream_buffer.c ****     if( xCount > xFirstLength )
1165:Generated_Source\PSoC5/RTOS_stream_buffer.c ****     {
1166:Generated_Source\PSoC5/RTOS_stream_buffer.c ****         /* ...then write the remaining bytes to the start of the buffer. */
1167:Generated_Source\PSoC5/RTOS_stream_buffer.c ****         configASSERT( ( xCount - xFirstLength ) <= pxStreamBuffer->xLength );
1168:Generated_Source\PSoC5/RTOS_stream_buffer.c ****         ( void ) memcpy( ( void * ) pxStreamBuffer->pucBuffer, ( const void * ) &( pucData[ xFirstL
1169:Generated_Source\PSoC5/RTOS_stream_buffer.c ****     }
1170:Generated_Source\PSoC5/RTOS_stream_buffer.c ****     else
1171:Generated_Source\PSoC5/RTOS_stream_buffer.c ****     {
ARM GAS  C:\Users\df16\AppData\Local\Temp\ccjld08w.s 			page 22


1172:Generated_Source\PSoC5/RTOS_stream_buffer.c ****         mtCOVERAGE_TEST_MARKER();
1173:Generated_Source\PSoC5/RTOS_stream_buffer.c ****     }
1174:Generated_Source\PSoC5/RTOS_stream_buffer.c **** 
1175:Generated_Source\PSoC5/RTOS_stream_buffer.c ****     xNextHead += xCount;
1176:Generated_Source\PSoC5/RTOS_stream_buffer.c **** 
1177:Generated_Source\PSoC5/RTOS_stream_buffer.c ****     if( xNextHead >= pxStreamBuffer->xLength )
1178:Generated_Source\PSoC5/RTOS_stream_buffer.c ****     {
1179:Generated_Source\PSoC5/RTOS_stream_buffer.c ****         xNextHead -= pxStreamBuffer->xLength;
1180:Generated_Source\PSoC5/RTOS_stream_buffer.c ****     }
1181:Generated_Source\PSoC5/RTOS_stream_buffer.c ****     else
1182:Generated_Source\PSoC5/RTOS_stream_buffer.c ****     {
1183:Generated_Source\PSoC5/RTOS_stream_buffer.c ****         mtCOVERAGE_TEST_MARKER();
1184:Generated_Source\PSoC5/RTOS_stream_buffer.c ****     }
1185:Generated_Source\PSoC5/RTOS_stream_buffer.c **** 
1186:Generated_Source\PSoC5/RTOS_stream_buffer.c ****     pxStreamBuffer->xHead = xNextHead;
1187:Generated_Source\PSoC5/RTOS_stream_buffer.c **** 
1188:Generated_Source\PSoC5/RTOS_stream_buffer.c ****     return xCount;
1189:Generated_Source\PSoC5/RTOS_stream_buffer.c **** }
1190:Generated_Source\PSoC5/RTOS_stream_buffer.c **** /*-----------------------------------------------------------*/
1191:Generated_Source\PSoC5/RTOS_stream_buffer.c **** 
1192:Generated_Source\PSoC5/RTOS_stream_buffer.c **** static size_t prvReadBytesFromBuffer( StreamBuffer_t * pxStreamBuffer,
1193:Generated_Source\PSoC5/RTOS_stream_buffer.c ****                                       uint8_t * pucData,
1194:Generated_Source\PSoC5/RTOS_stream_buffer.c ****                                       size_t xMaxCount,
1195:Generated_Source\PSoC5/RTOS_stream_buffer.c ****                                       size_t xBytesAvailable )
1196:Generated_Source\PSoC5/RTOS_stream_buffer.c **** {
1197:Generated_Source\PSoC5/RTOS_stream_buffer.c ****     size_t xCount, xFirstLength, xNextTail;
1198:Generated_Source\PSoC5/RTOS_stream_buffer.c **** 
1199:Generated_Source\PSoC5/RTOS_stream_buffer.c ****     /* Use the minimum of the wanted bytes and the available bytes. */
1200:Generated_Source\PSoC5/RTOS_stream_buffer.c ****     xCount = configMIN( xBytesAvailable, xMaxCount );
1201:Generated_Source\PSoC5/RTOS_stream_buffer.c **** 
1202:Generated_Source\PSoC5/RTOS_stream_buffer.c ****     if( xCount > ( size_t ) 0 )
1203:Generated_Source\PSoC5/RTOS_stream_buffer.c ****     {
1204:Generated_Source\PSoC5/RTOS_stream_buffer.c ****         xNextTail = pxStreamBuffer->xTail;
1205:Generated_Source\PSoC5/RTOS_stream_buffer.c **** 
1206:Generated_Source\PSoC5/RTOS_stream_buffer.c ****         /* Calculate the number of bytes that can be read - which may be
1207:Generated_Source\PSoC5/RTOS_stream_buffer.c ****          * less than the number wanted if the data wraps around to the start of
1208:Generated_Source\PSoC5/RTOS_stream_buffer.c ****          * the buffer. */
1209:Generated_Source\PSoC5/RTOS_stream_buffer.c ****         xFirstLength = configMIN( pxStreamBuffer->xLength - xNextTail, xCount );
1210:Generated_Source\PSoC5/RTOS_stream_buffer.c **** 
1211:Generated_Source\PSoC5/RTOS_stream_buffer.c ****         /* Obtain the number of bytes it is possible to obtain in the first
1212:Generated_Source\PSoC5/RTOS_stream_buffer.c ****          * read.  Asserts check bounds of read and write. */
1213:Generated_Source\PSoC5/RTOS_stream_buffer.c ****         configASSERT( xFirstLength <= xMaxCount );
1214:Generated_Source\PSoC5/RTOS_stream_buffer.c ****         configASSERT( ( xNextTail + xFirstLength ) <= pxStreamBuffer->xLength );
1215:Generated_Source\PSoC5/RTOS_stream_buffer.c ****         ( void ) memcpy( ( void * ) pucData, ( const void * ) &( pxStreamBuffer->pucBuffer[ xNextTa
1216:Generated_Source\PSoC5/RTOS_stream_buffer.c **** 
1217:Generated_Source\PSoC5/RTOS_stream_buffer.c ****         /* If the total number of wanted bytes is greater than the number
1218:Generated_Source\PSoC5/RTOS_stream_buffer.c ****          * that could be read in the first read... */
1219:Generated_Source\PSoC5/RTOS_stream_buffer.c ****         if( xCount > xFirstLength )
1220:Generated_Source\PSoC5/RTOS_stream_buffer.c ****         {
1221:Generated_Source\PSoC5/RTOS_stream_buffer.c ****             /*...then read the remaining bytes from the start of the buffer. */
1222:Generated_Source\PSoC5/RTOS_stream_buffer.c ****             configASSERT( xCount <= xMaxCount );
1223:Generated_Source\PSoC5/RTOS_stream_buffer.c ****             ( void ) memcpy( ( void * ) &( pucData[ xFirstLength ] ), ( void * ) ( pxStreamBuffer->
1224:Generated_Source\PSoC5/RTOS_stream_buffer.c ****         }
1225:Generated_Source\PSoC5/RTOS_stream_buffer.c ****         else
1226:Generated_Source\PSoC5/RTOS_stream_buffer.c ****         {
1227:Generated_Source\PSoC5/RTOS_stream_buffer.c ****             mtCOVERAGE_TEST_MARKER();
1228:Generated_Source\PSoC5/RTOS_stream_buffer.c ****         }
ARM GAS  C:\Users\df16\AppData\Local\Temp\ccjld08w.s 			page 23


1229:Generated_Source\PSoC5/RTOS_stream_buffer.c **** 
1230:Generated_Source\PSoC5/RTOS_stream_buffer.c ****         /* Move the tail pointer to effectively remove the data read from
1231:Generated_Source\PSoC5/RTOS_stream_buffer.c ****          * the buffer. */
1232:Generated_Source\PSoC5/RTOS_stream_buffer.c ****         xNextTail += xCount;
1233:Generated_Source\PSoC5/RTOS_stream_buffer.c **** 
1234:Generated_Source\PSoC5/RTOS_stream_buffer.c ****         if( xNextTail >= pxStreamBuffer->xLength )
1235:Generated_Source\PSoC5/RTOS_stream_buffer.c ****         {
1236:Generated_Source\PSoC5/RTOS_stream_buffer.c ****             xNextTail -= pxStreamBuffer->xLength;
1237:Generated_Source\PSoC5/RTOS_stream_buffer.c ****         }
1238:Generated_Source\PSoC5/RTOS_stream_buffer.c **** 
1239:Generated_Source\PSoC5/RTOS_stream_buffer.c ****         pxStreamBuffer->xTail = xNextTail;
1240:Generated_Source\PSoC5/RTOS_stream_buffer.c ****     }
1241:Generated_Source\PSoC5/RTOS_stream_buffer.c ****     else
1242:Generated_Source\PSoC5/RTOS_stream_buffer.c ****     {
1243:Generated_Source\PSoC5/RTOS_stream_buffer.c ****         mtCOVERAGE_TEST_MARKER();
1244:Generated_Source\PSoC5/RTOS_stream_buffer.c ****     }
1245:Generated_Source\PSoC5/RTOS_stream_buffer.c **** 
1246:Generated_Source\PSoC5/RTOS_stream_buffer.c ****     return xCount;
1247:Generated_Source\PSoC5/RTOS_stream_buffer.c **** }
1248:Generated_Source\PSoC5/RTOS_stream_buffer.c **** /*-----------------------------------------------------------*/
1249:Generated_Source\PSoC5/RTOS_stream_buffer.c **** 
1250:Generated_Source\PSoC5/RTOS_stream_buffer.c **** static size_t prvBytesInBuffer( const StreamBuffer_t * const pxStreamBuffer )
1251:Generated_Source\PSoC5/RTOS_stream_buffer.c **** {
  27              		.loc 1 1251 0
  28              		.cfi_startproc
  29              		@ args = 0, pretend = 0, frame = 0
  30              		@ frame_needed = 0, uses_anonymous_args = 0
  31              		@ link register save eliminated.
  32              	.LVL0:
1252:Generated_Source\PSoC5/RTOS_stream_buffer.c **** /* Returns the distance between xTail and xHead. */
1253:Generated_Source\PSoC5/RTOS_stream_buffer.c ****     size_t xCount;
1254:Generated_Source\PSoC5/RTOS_stream_buffer.c **** 
1255:Generated_Source\PSoC5/RTOS_stream_buffer.c ****     xCount = pxStreamBuffer->xLength + pxStreamBuffer->xHead;
  33              		.loc 1 1255 0
  34 0000 8268     		ldr	r2, [r0, #8]
  35 0002 4368     		ldr	r3, [r0, #4]
  36 0004 1344     		add	r3, r3, r2
  37              	.LVL1:
1256:Generated_Source\PSoC5/RTOS_stream_buffer.c ****     xCount -= pxStreamBuffer->xTail;
  38              		.loc 1 1256 0
  39 0006 0068     		ldr	r0, [r0]
  40              	.LVL2:
  41 0008 181A     		subs	r0, r3, r0
  42              	.LVL3:
1257:Generated_Source\PSoC5/RTOS_stream_buffer.c **** 
1258:Generated_Source\PSoC5/RTOS_stream_buffer.c ****     if( xCount >= pxStreamBuffer->xLength )
  43              		.loc 1 1258 0
  44 000a 8242     		cmp	r2, r0
  45 000c 00D8     		bhi	.L2
1259:Generated_Source\PSoC5/RTOS_stream_buffer.c ****     {
1260:Generated_Source\PSoC5/RTOS_stream_buffer.c ****         xCount -= pxStreamBuffer->xLength;
  46              		.loc 1 1260 0
  47 000e 801A     		subs	r0, r0, r2
  48              	.LVL4:
  49              	.L2:
1261:Generated_Source\PSoC5/RTOS_stream_buffer.c ****     }
1262:Generated_Source\PSoC5/RTOS_stream_buffer.c ****     else
ARM GAS  C:\Users\df16\AppData\Local\Temp\ccjld08w.s 			page 24


1263:Generated_Source\PSoC5/RTOS_stream_buffer.c ****     {
1264:Generated_Source\PSoC5/RTOS_stream_buffer.c ****         mtCOVERAGE_TEST_MARKER();
1265:Generated_Source\PSoC5/RTOS_stream_buffer.c ****     }
1266:Generated_Source\PSoC5/RTOS_stream_buffer.c **** 
1267:Generated_Source\PSoC5/RTOS_stream_buffer.c ****     return xCount;
1268:Generated_Source\PSoC5/RTOS_stream_buffer.c **** }
  50              		.loc 1 1268 0
  51 0010 7047     		bx	lr
  52              		.cfi_endproc
  53              	.LFE86:
  54              		.size	prvBytesInBuffer, .-prvBytesInBuffer
  55 0012 00BF     		.section	.text.prvInitialiseNewStreamBuffer,"ax",%progbits
  56              		.align	2
  57              		.thumb
  58              		.thumb_func
  59              		.type	prvInitialiseNewStreamBuffer, %function
  60              	prvInitialiseNewStreamBuffer:
  61              	.LFB87:
1269:Generated_Source\PSoC5/RTOS_stream_buffer.c **** /*-----------------------------------------------------------*/
1270:Generated_Source\PSoC5/RTOS_stream_buffer.c **** 
1271:Generated_Source\PSoC5/RTOS_stream_buffer.c **** static void prvInitialiseNewStreamBuffer( StreamBuffer_t * const pxStreamBuffer,
1272:Generated_Source\PSoC5/RTOS_stream_buffer.c ****                                           uint8_t * const pucBuffer,
1273:Generated_Source\PSoC5/RTOS_stream_buffer.c ****                                           size_t xBufferSizeBytes,
1274:Generated_Source\PSoC5/RTOS_stream_buffer.c ****                                           size_t xTriggerLevelBytes,
1275:Generated_Source\PSoC5/RTOS_stream_buffer.c ****                                           uint8_t ucFlags )
1276:Generated_Source\PSoC5/RTOS_stream_buffer.c **** {
  62              		.loc 1 1276 0
  63              		.cfi_startproc
  64              		@ args = 4, pretend = 0, frame = 0
  65              		@ frame_needed = 0, uses_anonymous_args = 0
  66              	.LVL5:
  67 0000 F8B5     		push	{r3, r4, r5, r6, r7, lr}
  68              		.cfi_def_cfa_offset 24
  69              		.cfi_offset 3, -24
  70              		.cfi_offset 4, -20
  71              		.cfi_offset 5, -16
  72              		.cfi_offset 6, -12
  73              		.cfi_offset 7, -8
  74              		.cfi_offset 14, -4
  75 0002 0446     		mov	r4, r0
  76 0004 0F46     		mov	r7, r1
  77 0006 1646     		mov	r6, r2
  78 0008 1D46     		mov	r5, r3
1277:Generated_Source\PSoC5/RTOS_stream_buffer.c ****     /* Assert here is deliberately writing to the entire buffer to ensure it can
1278:Generated_Source\PSoC5/RTOS_stream_buffer.c ****      * be written to without generating exceptions, and is setting the buffer to a
1279:Generated_Source\PSoC5/RTOS_stream_buffer.c ****      * known value to assist in development/debugging. */
1280:Generated_Source\PSoC5/RTOS_stream_buffer.c ****     #if ( configASSERT_DEFINED == 1 )
1281:Generated_Source\PSoC5/RTOS_stream_buffer.c ****         {
1282:Generated_Source\PSoC5/RTOS_stream_buffer.c ****             /* The value written just has to be identifiable when looking at the
1283:Generated_Source\PSoC5/RTOS_stream_buffer.c ****              * memory.  Don't use 0xA5 as that is the stack fill value and could
1284:Generated_Source\PSoC5/RTOS_stream_buffer.c ****              * result in confusion as to what is actually being observed. */
1285:Generated_Source\PSoC5/RTOS_stream_buffer.c ****             const BaseType_t xWriteValue = 0x55;
1286:Generated_Source\PSoC5/RTOS_stream_buffer.c ****             configASSERT( memset( pucBuffer, ( int ) xWriteValue, xBufferSizeBytes ) == pucBuffer )
1287:Generated_Source\PSoC5/RTOS_stream_buffer.c ****         } /*lint !e529 !e438 xWriteValue is only used if configASSERT() is defined. */
1288:Generated_Source\PSoC5/RTOS_stream_buffer.c ****     #endif
1289:Generated_Source\PSoC5/RTOS_stream_buffer.c **** 
1290:Generated_Source\PSoC5/RTOS_stream_buffer.c ****     ( void ) memset( ( void * ) pxStreamBuffer, 0x00, sizeof( StreamBuffer_t ) ); /*lint !e9087 mem
ARM GAS  C:\Users\df16\AppData\Local\Temp\ccjld08w.s 			page 25


  79              		.loc 1 1290 0
  80 000a 2022     		movs	r2, #32
  81              	.LVL6:
  82 000c 0021     		movs	r1, #0
  83              	.LVL7:
  84 000e FFF7FEFF 		bl	memset
  85              	.LVL8:
1291:Generated_Source\PSoC5/RTOS_stream_buffer.c ****     pxStreamBuffer->pucBuffer = pucBuffer;
  86              		.loc 1 1291 0
  87 0012 A761     		str	r7, [r4, #24]
1292:Generated_Source\PSoC5/RTOS_stream_buffer.c ****     pxStreamBuffer->xLength = xBufferSizeBytes;
  88              		.loc 1 1292 0
  89 0014 A660     		str	r6, [r4, #8]
1293:Generated_Source\PSoC5/RTOS_stream_buffer.c ****     pxStreamBuffer->xTriggerLevelBytes = xTriggerLevelBytes;
  90              		.loc 1 1293 0
  91 0016 E560     		str	r5, [r4, #12]
1294:Generated_Source\PSoC5/RTOS_stream_buffer.c ****     pxStreamBuffer->ucFlags = ucFlags;
  92              		.loc 1 1294 0
  93 0018 9DF81830 		ldrb	r3, [sp, #24]	@ zero_extendqisi2
  94 001c 2377     		strb	r3, [r4, #28]
  95 001e F8BD     		pop	{r3, r4, r5, r6, r7, pc}
  96              		.cfi_endproc
  97              	.LFE87:
  98              		.size	prvInitialiseNewStreamBuffer, .-prvInitialiseNewStreamBuffer
  99              		.section	.text.prvWriteBytesToBuffer,"ax",%progbits
 100              		.align	2
 101              		.thumb
 102              		.thumb_func
 103              		.type	prvWriteBytesToBuffer, %function
 104              	prvWriteBytesToBuffer:
 105              	.LFB84:
1146:Generated_Source\PSoC5/RTOS_stream_buffer.c ****     size_t xNextHead, xFirstLength;
 106              		.loc 1 1146 0
 107              		.cfi_startproc
 108              		@ args = 0, pretend = 0, frame = 0
 109              		@ frame_needed = 0, uses_anonymous_args = 0
 110              	.LVL9:
 111 0000 2DE9F041 		push	{r4, r5, r6, r7, r8, lr}
 112              		.cfi_def_cfa_offset 24
 113              		.cfi_offset 4, -24
 114              		.cfi_offset 5, -20
 115              		.cfi_offset 6, -16
 116              		.cfi_offset 7, -12
 117              		.cfi_offset 8, -8
 118              		.cfi_offset 14, -4
 119 0004 0646     		mov	r6, r0
 120 0006 8846     		mov	r8, r1
 121 0008 1746     		mov	r7, r2
1151:Generated_Source\PSoC5/RTOS_stream_buffer.c **** 
 122              		.loc 1 1151 0
 123 000a 4468     		ldr	r4, [r0, #4]
 124              	.LVL10:
1156:Generated_Source\PSoC5/RTOS_stream_buffer.c **** 
 125              		.loc 1 1156 0
 126 000c 8568     		ldr	r5, [r0, #8]
 127 000e 2D1B     		subs	r5, r5, r4
 128 0010 9542     		cmp	r5, r2
ARM GAS  C:\Users\df16\AppData\Local\Temp\ccjld08w.s 			page 26


 129 0012 28BF     		it	cs
 130 0014 1546     		movcs	r5, r2
 131              	.LVL11:
1160:Generated_Source\PSoC5/RTOS_stream_buffer.c **** 
 132              		.loc 1 1160 0
 133 0016 8069     		ldr	r0, [r0, #24]
 134              	.LVL12:
 135 0018 2A46     		mov	r2, r5
 136              	.LVL13:
 137 001a 2044     		add	r0, r0, r4
 138 001c FFF7FEFF 		bl	memcpy
 139              	.LVL14:
1164:Generated_Source\PSoC5/RTOS_stream_buffer.c ****     {
 140              		.loc 1 1164 0
 141 0020 AF42     		cmp	r7, r5
 142 0022 05D9     		bls	.L6
1168:Generated_Source\PSoC5/RTOS_stream_buffer.c ****     }
 143              		.loc 1 1168 0
 144 0024 7A1B     		subs	r2, r7, r5
 145 0026 08EB0501 		add	r1, r8, r5
 146 002a B069     		ldr	r0, [r6, #24]
 147 002c FFF7FEFF 		bl	memcpy
 148              	.LVL15:
 149              	.L6:
1175:Generated_Source\PSoC5/RTOS_stream_buffer.c **** 
 150              		.loc 1 1175 0
 151 0030 E319     		adds	r3, r4, r7
 152              	.LVL16:
1177:Generated_Source\PSoC5/RTOS_stream_buffer.c ****     {
 153              		.loc 1 1177 0
 154 0032 B268     		ldr	r2, [r6, #8]
 155 0034 9342     		cmp	r3, r2
 156 0036 00D3     		bcc	.L7
1179:Generated_Source\PSoC5/RTOS_stream_buffer.c ****     }
 157              		.loc 1 1179 0
 158 0038 9B1A     		subs	r3, r3, r2
 159              	.LVL17:
 160              	.L7:
1186:Generated_Source\PSoC5/RTOS_stream_buffer.c **** 
 161              		.loc 1 1186 0
 162 003a 7360     		str	r3, [r6, #4]
1189:Generated_Source\PSoC5/RTOS_stream_buffer.c **** /*-----------------------------------------------------------*/
 163              		.loc 1 1189 0
 164 003c 3846     		mov	r0, r7
 165 003e BDE8F081 		pop	{r4, r5, r6, r7, r8, pc}
 166              		.cfi_endproc
 167              	.LFE84:
 168              		.size	prvWriteBytesToBuffer, .-prvWriteBytesToBuffer
 169 0042 00BF     		.section	.text.prvWriteMessageToBuffer,"ax",%progbits
 170              		.align	2
 171              		.thumb
 172              		.thumb_func
 173              		.type	prvWriteMessageToBuffer, %function
 174              	prvWriteMessageToBuffer:
 175              	.LFB75:
 717:Generated_Source\PSoC5/RTOS_stream_buffer.c ****     BaseType_t xShouldWrite;
 176              		.loc 1 717 0
ARM GAS  C:\Users\df16\AppData\Local\Temp\ccjld08w.s 			page 27


 177              		.cfi_startproc
 178              		@ args = 4, pretend = 0, frame = 8
 179              		@ frame_needed = 0, uses_anonymous_args = 0
 180              	.LVL18:
 181 0000 30B5     		push	{r4, r5, lr}
 182              		.cfi_def_cfa_offset 12
 183              		.cfi_offset 4, -12
 184              		.cfi_offset 5, -8
 185              		.cfi_offset 14, -4
 186 0002 83B0     		sub	sp, sp, #12
 187              		.cfi_def_cfa_offset 24
 188 0004 0446     		mov	r4, r0
 189 0006 0D46     		mov	r5, r1
 190 0008 0192     		str	r2, [sp, #4]
 721:Generated_Source\PSoC5/RTOS_stream_buffer.c ****     {
 191              		.loc 1 721 0
 192 000a ABB1     		cbz	r3, .L13
 193 000c 1A46     		mov	r2, r3
 194              	.LVL19:
 727:Generated_Source\PSoC5/RTOS_stream_buffer.c ****     {
 195              		.loc 1 727 0
 196 000e 037F     		ldrb	r3, [r0, #28]	@ zero_extendqisi2
 197              	.LVL20:
 198 0010 13F0010F 		tst	r3, #1
 199 0014 06D1     		bne	.L11
 200              	.LVL21:
 733:Generated_Source\PSoC5/RTOS_stream_buffer.c ****     }
 201              		.loc 1 733 0
 202 0016 019B     		ldr	r3, [sp, #4]
 203 0018 9A42     		cmp	r2, r3
 204 001a 28BF     		it	cs
 205 001c 1A46     		movcs	r2, r3
 206              	.LVL22:
 207 001e 0192     		str	r2, [sp, #4]
 208              	.LVL23:
 732:Generated_Source\PSoC5/RTOS_stream_buffer.c ****         xDataLengthBytes = configMIN( xDataLengthBytes, xSpace );
 209              		.loc 1 732 0
 210 0020 0123     		movs	r3, #1
 211              	.LVL24:
 212 0022 0CE0     		b	.L10
 213              	.LVL25:
 214              	.L11:
 735:Generated_Source\PSoC5/RTOS_stream_buffer.c ****     {
 215              		.loc 1 735 0
 216 0024 069B     		ldr	r3, [sp, #24]
 217 0026 9A42     		cmp	r2, r3
 218 0028 08D3     		bcc	.L14
 219              	.LVL26:
 742:Generated_Source\PSoC5/RTOS_stream_buffer.c ****     }
 220              		.loc 1 742 0
 221 002a 0422     		movs	r2, #4
 222              	.LVL27:
 223 002c 0DEB0201 		add	r1, sp, r2
 224              	.LVL28:
 225 0030 FFF7FEFF 		bl	prvWriteBytesToBuffer
 226              	.LVL29:
 741:Generated_Source\PSoC5/RTOS_stream_buffer.c ****         ( void ) prvWriteBytesToBuffer( pxStreamBuffer, ( const uint8_t * ) &( xDataLengthBytes ), 
ARM GAS  C:\Users\df16\AppData\Local\Temp\ccjld08w.s 			page 28


 227              		.loc 1 741 0
 228 0034 0123     		movs	r3, #1
 229 0036 02E0     		b	.L10
 230              	.LVL30:
 231              	.L13:
 725:Generated_Source\PSoC5/RTOS_stream_buffer.c ****     }
 232              		.loc 1 725 0
 233 0038 0023     		movs	r3, #0
 234              	.LVL31:
 235 003a 00E0     		b	.L10
 236              	.LVL32:
 237              	.L14:
 747:Generated_Source\PSoC5/RTOS_stream_buffer.c ****     }
 238              		.loc 1 747 0
 239 003c 0023     		movs	r3, #0
 240              	.LVL33:
 241              	.L10:
 750:Generated_Source\PSoC5/RTOS_stream_buffer.c ****     {
 242              		.loc 1 750 0
 243 003e 2BB1     		cbz	r3, .L15
 753:Generated_Source\PSoC5/RTOS_stream_buffer.c ****     }
 244              		.loc 1 753 0
 245 0040 019A     		ldr	r2, [sp, #4]
 246 0042 2946     		mov	r1, r5
 247 0044 2046     		mov	r0, r4
 248 0046 FFF7FEFF 		bl	prvWriteBytesToBuffer
 249              	.LVL34:
 250 004a 00E0     		b	.L12
 251              	.LVL35:
 252              	.L15:
 757:Generated_Source\PSoC5/RTOS_stream_buffer.c ****     }
 253              		.loc 1 757 0
 254 004c 0020     		movs	r0, #0
 255              	.LVL36:
 256              	.L12:
 761:Generated_Source\PSoC5/RTOS_stream_buffer.c **** /*-----------------------------------------------------------*/
 257              		.loc 1 761 0
 258 004e 03B0     		add	sp, sp, #12
 259              		.cfi_def_cfa_offset 12
 260              		@ sp needed
 261 0050 30BD     		pop	{r4, r5, pc}
 262              		.cfi_endproc
 263              	.LFE75:
 264              		.size	prvWriteMessageToBuffer, .-prvWriteMessageToBuffer
 265 0052 00BF     		.section	.text.prvReadBytesFromBuffer,"ax",%progbits
 266              		.align	2
 267              		.thumb
 268              		.thumb_func
 269              		.type	prvReadBytesFromBuffer, %function
 270              	prvReadBytesFromBuffer:
 271              	.LFB85:
1196:Generated_Source\PSoC5/RTOS_stream_buffer.c ****     size_t xCount, xFirstLength, xNextTail;
 272              		.loc 1 1196 0
 273              		.cfi_startproc
 274              		@ args = 0, pretend = 0, frame = 0
 275              		@ frame_needed = 0, uses_anonymous_args = 0
 276              	.LVL37:
ARM GAS  C:\Users\df16\AppData\Local\Temp\ccjld08w.s 			page 29


 277 0000 2DE9F041 		push	{r4, r5, r6, r7, r8, lr}
 278              		.cfi_def_cfa_offset 24
 279              		.cfi_offset 4, -24
 280              		.cfi_offset 5, -20
 281              		.cfi_offset 6, -16
 282              		.cfi_offset 7, -12
 283              		.cfi_offset 8, -8
 284              		.cfi_offset 14, -4
1200:Generated_Source\PSoC5/RTOS_stream_buffer.c **** 
 285              		.loc 1 1200 0
 286 0004 9A42     		cmp	r2, r3
 287 0006 28BF     		it	cs
 288 0008 1A46     		movcs	r2, r3
 289              	.LVL38:
 290 000a 1446     		mov	r4, r2
 291              	.LVL39:
1202:Generated_Source\PSoC5/RTOS_stream_buffer.c ****     {
 292              		.loc 1 1202 0
 293 000c DAB1     		cbz	r2, .L18
 294 000e 8846     		mov	r8, r1
 295 0010 0546     		mov	r5, r0
1204:Generated_Source\PSoC5/RTOS_stream_buffer.c **** 
 296              		.loc 1 1204 0
 297 0012 0668     		ldr	r6, [r0]
 298              	.LVL40:
1209:Generated_Source\PSoC5/RTOS_stream_buffer.c **** 
 299              		.loc 1 1209 0
 300 0014 8768     		ldr	r7, [r0, #8]
 301 0016 BF1B     		subs	r7, r7, r6
 302 0018 9742     		cmp	r7, r2
 303 001a 28BF     		it	cs
 304 001c 1746     		movcs	r7, r2
 305              	.LVL41:
1215:Generated_Source\PSoC5/RTOS_stream_buffer.c **** 
 306              		.loc 1 1215 0
 307 001e 8169     		ldr	r1, [r0, #24]
 308              	.LVL42:
 309 0020 3A46     		mov	r2, r7
 310              	.LVL43:
 311 0022 3144     		add	r1, r1, r6
 312 0024 4046     		mov	r0, r8
 313              	.LVL44:
 314 0026 FFF7FEFF 		bl	memcpy
 315              	.LVL45:
1219:Generated_Source\PSoC5/RTOS_stream_buffer.c ****         {
 316              		.loc 1 1219 0
 317 002a BC42     		cmp	r4, r7
 318 002c 05D9     		bls	.L19
1223:Generated_Source\PSoC5/RTOS_stream_buffer.c ****         }
 319              		.loc 1 1223 0
 320 002e E21B     		subs	r2, r4, r7
 321 0030 A969     		ldr	r1, [r5, #24]
 322 0032 08EB0700 		add	r0, r8, r7
 323 0036 FFF7FEFF 		bl	memcpy
 324              	.LVL46:
 325              	.L19:
1232:Generated_Source\PSoC5/RTOS_stream_buffer.c **** 
ARM GAS  C:\Users\df16\AppData\Local\Temp\ccjld08w.s 			page 30


 326              		.loc 1 1232 0
 327 003a 2644     		add	r6, r6, r4
 328              	.LVL47:
1234:Generated_Source\PSoC5/RTOS_stream_buffer.c ****         {
 329              		.loc 1 1234 0
 330 003c AB68     		ldr	r3, [r5, #8]
 331 003e 9E42     		cmp	r6, r3
 332 0040 00D3     		bcc	.L20
1236:Generated_Source\PSoC5/RTOS_stream_buffer.c ****         }
 333              		.loc 1 1236 0
 334 0042 F61A     		subs	r6, r6, r3
 335              	.LVL48:
 336              	.L20:
1239:Generated_Source\PSoC5/RTOS_stream_buffer.c ****     }
 337              		.loc 1 1239 0
 338 0044 2E60     		str	r6, [r5]
 339              	.LVL49:
 340              	.L18:
1247:Generated_Source\PSoC5/RTOS_stream_buffer.c **** /*-----------------------------------------------------------*/
 341              		.loc 1 1247 0
 342 0046 2046     		mov	r0, r4
 343 0048 BDE8F081 		pop	{r4, r5, r6, r7, r8, pc}
 344              		.cfi_endproc
 345              	.LFE85:
 346              		.size	prvReadBytesFromBuffer, .-prvReadBytesFromBuffer
 347              		.section	.text.prvReadMessageFromBuffer,"ax",%progbits
 348              		.align	2
 349              		.thumb
 350              		.thumb_func
 351              		.type	prvReadMessageFromBuffer, %function
 352              	prvReadMessageFromBuffer:
 353              	.LFB79:
 975:Generated_Source\PSoC5/RTOS_stream_buffer.c ****     size_t xOriginalTail, xReceivedLength, xNextMessageLength;
 354              		.loc 1 975 0
 355              		.cfi_startproc
 356              		@ args = 4, pretend = 0, frame = 8
 357              		@ frame_needed = 0, uses_anonymous_args = 0
 358              	.LVL50:
 359 0000 2DE9F043 		push	{r4, r5, r6, r7, r8, r9, lr}
 360              		.cfi_def_cfa_offset 28
 361              		.cfi_offset 4, -28
 362              		.cfi_offset 5, -24
 363              		.cfi_offset 6, -20
 364              		.cfi_offset 7, -16
 365              		.cfi_offset 8, -12
 366              		.cfi_offset 9, -8
 367              		.cfi_offset 14, -4
 368 0004 83B0     		sub	sp, sp, #12
 369              		.cfi_def_cfa_offset 40
 370 0006 0546     		mov	r5, r0
 371 0008 8846     		mov	r8, r1
 372 000a 1646     		mov	r6, r2
 373 000c 1C46     		mov	r4, r3
 374 000e 0A9F     		ldr	r7, [sp, #40]
 979:Generated_Source\PSoC5/RTOS_stream_buffer.c ****     {
 375              		.loc 1 979 0
 376 0010 77B1     		cbz	r7, .L23
ARM GAS  C:\Users\df16\AppData\Local\Temp\ccjld08w.s 			page 31


 985:Generated_Source\PSoC5/RTOS_stream_buffer.c ****         ( void ) prvReadBytesFromBuffer( pxStreamBuffer, ( uint8_t * ) &xTempNextMessageLength, xBy
 377              		.loc 1 985 0
 378 0012 D0F80090 		ldr	r9, [r0]
 379              	.LVL51:
 986:Generated_Source\PSoC5/RTOS_stream_buffer.c ****         xNextMessageLength = ( size_t ) xTempNextMessageLength;
 380              		.loc 1 986 0
 381 0016 3A46     		mov	r2, r7
 382              	.LVL52:
 383 0018 01A9     		add	r1, sp, #4
 384              	.LVL53:
 385 001a FFF7FEFF 		bl	prvReadBytesFromBuffer
 386              	.LVL54:
 987:Generated_Source\PSoC5/RTOS_stream_buffer.c **** 
 387              		.loc 1 987 0
 388 001e 019B     		ldr	r3, [sp, #4]
 389              	.LVL55:
 991:Generated_Source\PSoC5/RTOS_stream_buffer.c **** 
 390              		.loc 1 991 0
 391 0020 E41B     		subs	r4, r4, r7
 392              	.LVL56:
 995:Generated_Source\PSoC5/RTOS_stream_buffer.c ****         {
 393              		.loc 1 995 0
 394 0022 B342     		cmp	r3, r6
 395 0024 03D9     		bls	.L24
1000:Generated_Source\PSoC5/RTOS_stream_buffer.c ****             xNextMessageLength = 0;
 396              		.loc 1 1000 0
 397 0026 C5F80090 		str	r9, [r5]
 398              	.LVL57:
1001:Generated_Source\PSoC5/RTOS_stream_buffer.c ****         }
 399              		.loc 1 1001 0
 400 002a 0026     		movs	r6, #0
 401              	.LVL58:
 402 002c 00E0     		b	.L23
 403              	.LVL59:
 404              	.L24:
 987:Generated_Source\PSoC5/RTOS_stream_buffer.c **** 
 405              		.loc 1 987 0
 406 002e 1E46     		mov	r6, r3
 407              	.LVL60:
 408              	.L23:
1016:Generated_Source\PSoC5/RTOS_stream_buffer.c **** 
 409              		.loc 1 1016 0
 410 0030 2346     		mov	r3, r4
 411 0032 3246     		mov	r2, r6
 412 0034 4146     		mov	r1, r8
 413 0036 2846     		mov	r0, r5
 414 0038 FFF7FEFF 		bl	prvReadBytesFromBuffer
 415              	.LVL61:
1019:Generated_Source\PSoC5/RTOS_stream_buffer.c **** /*-----------------------------------------------------------*/
 416              		.loc 1 1019 0
 417 003c 03B0     		add	sp, sp, #12
 418              		.cfi_def_cfa_offset 28
 419              		@ sp needed
 420 003e BDE8F083 		pop	{r4, r5, r6, r7, r8, r9, pc}
 421              		.cfi_endproc
 422              	.LFE79:
 423              		.size	prvReadMessageFromBuffer, .-prvReadMessageFromBuffer
ARM GAS  C:\Users\df16\AppData\Local\Temp\ccjld08w.s 			page 32


 424 0042 00BF     		.section	.text.xStreamBufferGenericCreate,"ax",%progbits
 425              		.align	2
 426              		.global	xStreamBufferGenericCreate
 427              		.thumb
 428              		.thumb_func
 429              		.type	xStreamBufferGenericCreate, %function
 430              	xStreamBufferGenericCreate:
 431              	.LFB67:
 223:Generated_Source\PSoC5/RTOS_stream_buffer.c ****         uint8_t * pucAllocatedMemory;
 432              		.loc 1 223 0
 433              		.cfi_startproc
 434              		@ args = 0, pretend = 0, frame = 0
 435              		@ frame_needed = 0, uses_anonymous_args = 0
 436              	.LVL62:
 437 0000 F0B5     		push	{r4, r5, r6, r7, lr}
 438              		.cfi_def_cfa_offset 20
 439              		.cfi_offset 4, -20
 440              		.cfi_offset 5, -16
 441              		.cfi_offset 6, -12
 442              		.cfi_offset 7, -8
 443              		.cfi_offset 14, -4
 444 0002 83B0     		sub	sp, sp, #12
 445              		.cfi_def_cfa_offset 32
 446 0004 0D46     		mov	r5, r1
 231:Generated_Source\PSoC5/RTOS_stream_buffer.c ****         {
 447              		.loc 1 231 0
 448 0006 012A     		cmp	r2, #1
 449 0008 01D1     		bne	.L30
 234:Generated_Source\PSoC5/RTOS_stream_buffer.c ****             configASSERT( xBufferSizeBytes > sbBYTES_TO_STORE_MESSAGE_LENGTH );
 450              		.loc 1 234 0
 451 000a 0127     		movs	r7, #1
 452 000c 00E0     		b	.L27
 453              	.L30:
 240:Generated_Source\PSoC5/RTOS_stream_buffer.c ****             configASSERT( xBufferSizeBytes > 0 );
 454              		.loc 1 240 0
 455 000e 0027     		movs	r7, #0
 456              	.L27:
 457              	.LVL63:
 248:Generated_Source\PSoC5/RTOS_stream_buffer.c ****         {
 458              		.loc 1 248 0
 459 0010 05B9     		cbnz	r5, .L28
 250:Generated_Source\PSoC5/RTOS_stream_buffer.c ****         }
 460              		.loc 1 250 0
 461 0012 0125     		movs	r5, #1
 462              	.L28:
 463              	.LVL64:
 261:Generated_Source\PSoC5/RTOS_stream_buffer.c ****         pucAllocatedMemory = ( uint8_t * ) pvPortMalloc( xBufferSizeBytes + sizeof( StreamBuffer_t 
 464              		.loc 1 261 0
 465 0014 461C     		adds	r6, r0, #1
 466              	.LVL65:
 262:Generated_Source\PSoC5/RTOS_stream_buffer.c **** 
 467              		.loc 1 262 0
 468 0016 2130     		adds	r0, r0, #33
 469 0018 FFF7FEFF 		bl	pvPortMalloc
 470              	.LVL66:
 264:Generated_Source\PSoC5/RTOS_stream_buffer.c ****         {
 471              		.loc 1 264 0
ARM GAS  C:\Users\df16\AppData\Local\Temp\ccjld08w.s 			page 33


 472 001c 0446     		mov	r4, r0
 473 001e 30B1     		cbz	r0, .L29
 266:Generated_Source\PSoC5/RTOS_stream_buffer.c ****                                           pucAllocatedMemory + sizeof( StreamBuffer_t ), /* Storage
 474              		.loc 1 266 0
 475 0020 0097     		str	r7, [sp]
 476 0022 2B46     		mov	r3, r5
 477 0024 3246     		mov	r2, r6
 478 0026 00F12001 		add	r1, r0, #32
 479 002a FFF7FEFF 		bl	prvInitialiseNewStreamBuffer
 480              	.LVL67:
 481              	.L29:
 280:Generated_Source\PSoC5/RTOS_stream_buffer.c **** 
 482              		.loc 1 280 0
 483 002e 2046     		mov	r0, r4
 484 0030 03B0     		add	sp, sp, #12
 485              		.cfi_def_cfa_offset 20
 486              		@ sp needed
 487 0032 F0BD     		pop	{r4, r5, r6, r7, pc}
 488              		.cfi_endproc
 489              	.LFE67:
 490              		.size	xStreamBufferGenericCreate, .-xStreamBufferGenericCreate
 491              		.section	.text.vStreamBufferDelete,"ax",%progbits
 492              		.align	2
 493              		.global	vStreamBufferDelete
 494              		.thumb
 495              		.thumb_func
 496              		.type	vStreamBufferDelete, %function
 497              	vStreamBufferDelete:
 498              	.LFB68:
 364:Generated_Source\PSoC5/RTOS_stream_buffer.c ****     StreamBuffer_t * pxStreamBuffer = xStreamBuffer;
 499              		.loc 1 364 0
 500              		.cfi_startproc
 501              		@ args = 0, pretend = 0, frame = 0
 502              		@ frame_needed = 0, uses_anonymous_args = 0
 503              	.LVL68:
 504 0000 08B5     		push	{r3, lr}
 505              		.cfi_def_cfa_offset 8
 506              		.cfi_offset 3, -8
 507              		.cfi_offset 14, -4
 508              	.LVL69:
 371:Generated_Source\PSoC5/RTOS_stream_buffer.c ****     {
 509              		.loc 1 371 0
 510 0002 037F     		ldrb	r3, [r0, #28]	@ zero_extendqisi2
 511 0004 13F0020F 		tst	r3, #2
 512 0008 02D1     		bne	.L34
 377:Generated_Source\PSoC5/RTOS_stream_buffer.c ****             }
 513              		.loc 1 377 0
 514 000a FFF7FEFF 		bl	vPortFree
 515              	.LVL70:
 516 000e 08BD     		pop	{r3, pc}
 517              	.LVL71:
 518              	.L34:
 391:Generated_Source\PSoC5/RTOS_stream_buffer.c ****     }
 519              		.loc 1 391 0
 520 0010 2022     		movs	r2, #32
 521 0012 0021     		movs	r1, #0
 522 0014 FFF7FEFF 		bl	memset
ARM GAS  C:\Users\df16\AppData\Local\Temp\ccjld08w.s 			page 34


 523              	.LVL72:
 524 0018 08BD     		pop	{r3, pc}
 525              		.cfi_endproc
 526              	.LFE68:
 527              		.size	vStreamBufferDelete, .-vStreamBufferDelete
 528 001a 00BF     		.section	.text.xStreamBufferReset,"ax",%progbits
 529              		.align	2
 530              		.global	xStreamBufferReset
 531              		.thumb
 532              		.thumb_func
 533              		.type	xStreamBufferReset, %function
 534              	xStreamBufferReset:
 535              	.LFB69:
 397:Generated_Source\PSoC5/RTOS_stream_buffer.c ****     StreamBuffer_t * const pxStreamBuffer = xStreamBuffer;
 536              		.loc 1 397 0
 537              		.cfi_startproc
 538              		@ args = 0, pretend = 0, frame = 0
 539              		@ frame_needed = 0, uses_anonymous_args = 0
 540              	.LVL73:
 541 0000 10B5     		push	{r4, lr}
 542              		.cfi_def_cfa_offset 8
 543              		.cfi_offset 4, -8
 544              		.cfi_offset 14, -4
 545 0002 82B0     		sub	sp, sp, #8
 546              		.cfi_def_cfa_offset 16
 547 0004 0446     		mov	r4, r0
 548              	.LVL74:
 416:Generated_Source\PSoC5/RTOS_stream_buffer.c ****     {
 549              		.loc 1 416 0
 550 0006 FFF7FEFF 		bl	vPortEnterCritical
 551              	.LVL75:
 418:Generated_Source\PSoC5/RTOS_stream_buffer.c ****         {
 552              		.loc 1 418 0
 553 000a 2369     		ldr	r3, [r4, #16]
 554 000c 5BB9     		cbnz	r3, .L39
 420:Generated_Source\PSoC5/RTOS_stream_buffer.c ****             {
 555              		.loc 1 420 0
 556 000e 6369     		ldr	r3, [r4, #20]
 557 0010 5BB9     		cbnz	r3, .L40
 422:Generated_Source\PSoC5/RTOS_stream_buffer.c ****                                               pxStreamBuffer->pucBuffer,
 558              		.loc 1 422 0
 559 0012 237F     		ldrb	r3, [r4, #28]	@ zero_extendqisi2
 560 0014 0093     		str	r3, [sp]
 561 0016 E368     		ldr	r3, [r4, #12]
 562 0018 A268     		ldr	r2, [r4, #8]
 563 001a A169     		ldr	r1, [r4, #24]
 564 001c 2046     		mov	r0, r4
 565 001e FFF7FEFF 		bl	prvInitialiseNewStreamBuffer
 566              	.LVL76:
 427:Generated_Source\PSoC5/RTOS_stream_buffer.c **** 
 567              		.loc 1 427 0
 568 0022 0124     		movs	r4, #1
 569              	.LVL77:
 570 0024 02E0     		b	.L38
 571              	.LVL78:
 572              	.L39:
 399:Generated_Source\PSoC5/RTOS_stream_buffer.c **** 
ARM GAS  C:\Users\df16\AppData\Local\Temp\ccjld08w.s 			page 35


 573              		.loc 1 399 0
 574 0026 0024     		movs	r4, #0
 575              	.LVL79:
 576 0028 00E0     		b	.L38
 577              	.LVL80:
 578              	.L40:
 579 002a 0024     		movs	r4, #0
 580              	.LVL81:
 581              	.L38:
 439:Generated_Source\PSoC5/RTOS_stream_buffer.c **** 
 582              		.loc 1 439 0
 583 002c FFF7FEFF 		bl	vPortExitCritical
 584              	.LVL82:
 442:Generated_Source\PSoC5/RTOS_stream_buffer.c **** /*-----------------------------------------------------------*/
 585              		.loc 1 442 0
 586 0030 2046     		mov	r0, r4
 587 0032 02B0     		add	sp, sp, #8
 588              		.cfi_def_cfa_offset 8
 589              		@ sp needed
 590 0034 10BD     		pop	{r4, pc}
 591              		.cfi_endproc
 592              	.LFE69:
 593              		.size	xStreamBufferReset, .-xStreamBufferReset
 594 0036 00BF     		.section	.text.xStreamBufferSetTriggerLevel,"ax",%progbits
 595              		.align	2
 596              		.global	xStreamBufferSetTriggerLevel
 597              		.thumb
 598              		.thumb_func
 599              		.type	xStreamBufferSetTriggerLevel, %function
 600              	xStreamBufferSetTriggerLevel:
 601              	.LFB70:
 447:Generated_Source\PSoC5/RTOS_stream_buffer.c ****     StreamBuffer_t * const pxStreamBuffer = xStreamBuffer;
 602              		.loc 1 447 0
 603              		.cfi_startproc
 604              		@ args = 0, pretend = 0, frame = 0
 605              		@ frame_needed = 0, uses_anonymous_args = 0
 606              		@ link register save eliminated.
 607              	.LVL83:
 454:Generated_Source\PSoC5/RTOS_stream_buffer.c ****     {
 608              		.loc 1 454 0
 609 0000 0B46     		mov	r3, r1
 610 0002 01B9     		cbnz	r1, .L43
 456:Generated_Source\PSoC5/RTOS_stream_buffer.c ****     }
 611              		.loc 1 456 0
 612 0004 0123     		movs	r3, #1
 613              	.L43:
 614              	.LVL84:
 461:Generated_Source\PSoC5/RTOS_stream_buffer.c ****     {
 615              		.loc 1 461 0
 616 0006 8268     		ldr	r2, [r0, #8]
 617 0008 9342     		cmp	r3, r2
 618 000a 02D8     		bhi	.L46
 463:Generated_Source\PSoC5/RTOS_stream_buffer.c ****         xReturn = pdPASS;
 619              		.loc 1 463 0
 620 000c C360     		str	r3, [r0, #12]
 621              	.LVL85:
 464:Generated_Source\PSoC5/RTOS_stream_buffer.c ****     }
ARM GAS  C:\Users\df16\AppData\Local\Temp\ccjld08w.s 			page 36


 622              		.loc 1 464 0
 623 000e 0120     		movs	r0, #1
 624              	.LVL86:
 625 0010 7047     		bx	lr
 626              	.LVL87:
 627              	.L46:
 468:Generated_Source\PSoC5/RTOS_stream_buffer.c ****     }
 628              		.loc 1 468 0
 629 0012 0020     		movs	r0, #0
 630              	.LVL88:
 472:Generated_Source\PSoC5/RTOS_stream_buffer.c **** /*-----------------------------------------------------------*/
 631              		.loc 1 472 0
 632 0014 7047     		bx	lr
 633              		.cfi_endproc
 634              	.LFE70:
 635              		.size	xStreamBufferSetTriggerLevel, .-xStreamBufferSetTriggerLevel
 636 0016 00BF     		.section	.text.xStreamBufferSpacesAvailable,"ax",%progbits
 637              		.align	2
 638              		.global	xStreamBufferSpacesAvailable
 639              		.thumb
 640              		.thumb_func
 641              		.type	xStreamBufferSpacesAvailable, %function
 642              	xStreamBufferSpacesAvailable:
 643              	.LFB71:
 476:Generated_Source\PSoC5/RTOS_stream_buffer.c ****     const StreamBuffer_t * const pxStreamBuffer = xStreamBuffer;
 644              		.loc 1 476 0
 645              		.cfi_startproc
 646              		@ args = 0, pretend = 0, frame = 0
 647              		@ frame_needed = 0, uses_anonymous_args = 0
 648              		@ link register save eliminated.
 649              	.LVL89:
 482:Generated_Source\PSoC5/RTOS_stream_buffer.c ****     xSpace -= pxStreamBuffer->xHead;
 650              		.loc 1 482 0
 651 0000 8268     		ldr	r2, [r0, #8]
 652 0002 0368     		ldr	r3, [r0]
 653 0004 1344     		add	r3, r3, r2
 654              	.LVL90:
 483:Generated_Source\PSoC5/RTOS_stream_buffer.c ****     xSpace -= ( size_t ) 1;
 655              		.loc 1 483 0
 656 0006 4068     		ldr	r0, [r0, #4]
 657              	.LVL91:
 658 0008 181A     		subs	r0, r3, r0
 659              	.LVL92:
 484:Generated_Source\PSoC5/RTOS_stream_buffer.c **** 
 660              		.loc 1 484 0
 661 000a 0138     		subs	r0, r0, #1
 662              	.LVL93:
 486:Generated_Source\PSoC5/RTOS_stream_buffer.c ****     {
 663              		.loc 1 486 0
 664 000c 8242     		cmp	r2, r0
 665 000e 00D8     		bhi	.L48
 488:Generated_Source\PSoC5/RTOS_stream_buffer.c ****     }
 666              		.loc 1 488 0
 667 0010 801A     		subs	r0, r0, r2
 668              	.LVL94:
 669              	.L48:
 496:Generated_Source\PSoC5/RTOS_stream_buffer.c **** /*-----------------------------------------------------------*/
ARM GAS  C:\Users\df16\AppData\Local\Temp\ccjld08w.s 			page 37


 670              		.loc 1 496 0
 671 0012 7047     		bx	lr
 672              		.cfi_endproc
 673              	.LFE71:
 674              		.size	xStreamBufferSpacesAvailable, .-xStreamBufferSpacesAvailable
 675              		.section	.text.xStreamBufferBytesAvailable,"ax",%progbits
 676              		.align	2
 677              		.global	xStreamBufferBytesAvailable
 678              		.thumb
 679              		.thumb_func
 680              		.type	xStreamBufferBytesAvailable, %function
 681              	xStreamBufferBytesAvailable:
 682              	.LFB72:
 500:Generated_Source\PSoC5/RTOS_stream_buffer.c ****     const StreamBuffer_t * const pxStreamBuffer = xStreamBuffer;
 683              		.loc 1 500 0
 684              		.cfi_startproc
 685              		@ args = 0, pretend = 0, frame = 0
 686              		@ frame_needed = 0, uses_anonymous_args = 0
 687              	.LVL95:
 688 0000 08B5     		push	{r3, lr}
 689              		.cfi_def_cfa_offset 8
 690              		.cfi_offset 3, -8
 691              		.cfi_offset 14, -4
 692              	.LVL96:
 506:Generated_Source\PSoC5/RTOS_stream_buffer.c ****     return xReturn;
 693              		.loc 1 506 0
 694 0002 FFF7FEFF 		bl	prvBytesInBuffer
 695              	.LVL97:
 508:Generated_Source\PSoC5/RTOS_stream_buffer.c **** /*-----------------------------------------------------------*/
 696              		.loc 1 508 0
 697 0006 08BD     		pop	{r3, pc}
 698              		.cfi_endproc
 699              	.LFE72:
 700              		.size	xStreamBufferBytesAvailable, .-xStreamBufferBytesAvailable
 701              		.section	.text.xStreamBufferSend,"ax",%progbits
 702              		.align	2
 703              		.global	xStreamBufferSend
 704              		.thumb
 705              		.thumb_func
 706              		.type	xStreamBufferSend, %function
 707              	xStreamBufferSend:
 708              	.LFB73:
 515:Generated_Source\PSoC5/RTOS_stream_buffer.c ****     StreamBuffer_t * const pxStreamBuffer = xStreamBuffer;
 709              		.loc 1 515 0
 710              		.cfi_startproc
 711              		@ args = 0, pretend = 0, frame = 16
 712              		@ frame_needed = 0, uses_anonymous_args = 0
 713              	.LVL98:
 714 0000 2DE9F043 		push	{r4, r5, r6, r7, r8, r9, lr}
 715              		.cfi_def_cfa_offset 28
 716              		.cfi_offset 4, -28
 717              		.cfi_offset 5, -24
 718              		.cfi_offset 6, -20
 719              		.cfi_offset 7, -16
 720              		.cfi_offset 8, -12
 721              		.cfi_offset 9, -8
 722              		.cfi_offset 14, -4
ARM GAS  C:\Users\df16\AppData\Local\Temp\ccjld08w.s 			page 38


 723 0004 87B0     		sub	sp, sp, #28
 724              		.cfi_def_cfa_offset 56
 725 0006 0446     		mov	r4, r0
 726 0008 8946     		mov	r9, r1
 727 000a 1746     		mov	r7, r2
 728 000c 0393     		str	r3, [sp, #12]
 729              	.LVL99:
 532:Generated_Source\PSoC5/RTOS_stream_buffer.c ****     {
 730              		.loc 1 532 0
 731 000e 037F     		ldrb	r3, [r0, #28]	@ zero_extendqisi2
 732              	.LVL100:
 733 0010 13F0010F 		tst	r3, #1
 734 0014 05D0     		beq	.L52
 534:Generated_Source\PSoC5/RTOS_stream_buffer.c **** 
 735              		.loc 1 534 0
 736 0016 161D     		adds	r6, r2, #4
 737              	.LVL101:
 542:Generated_Source\PSoC5/RTOS_stream_buffer.c ****         {
 738              		.loc 1 542 0
 739 0018 8368     		ldr	r3, [r0, #8]
 740 001a 9E42     		cmp	r6, r3
 741 001c 07D9     		bls	.L60
 553:Generated_Source\PSoC5/RTOS_stream_buffer.c ****         }
 742              		.loc 1 553 0
 743 001e 0022     		movs	r2, #0
 744              	.LVL102:
 745 0020 08E0     		b	.L53
 746              	.LVL103:
 747              	.L52:
 566:Generated_Source\PSoC5/RTOS_stream_buffer.c ****         {
 748              		.loc 1 566 0
 749 0022 8668     		ldr	r6, [r0, #8]
 750 0024 B242     		cmp	r2, r6
 751 0026 04D8     		bhi	.L61
 518:Generated_Source\PSoC5/RTOS_stream_buffer.c ****     TimeOut_t xTimeOut;
 752              		.loc 1 518 0
 753 0028 1646     		mov	r6, r2
 582:Generated_Source\PSoC5/RTOS_stream_buffer.c ****         }
 754              		.loc 1 582 0
 755 002a 0122     		movs	r2, #1
 756              	.LVL104:
 757 002c 02E0     		b	.L53
 758              	.LVL105:
 759              	.L60:
 559:Generated_Source\PSoC5/RTOS_stream_buffer.c ****         }
 760              		.loc 1 559 0
 761 002e 0122     		movs	r2, #1
 762              	.LVL106:
 763 0030 00E0     		b	.L53
 764              	.LVL107:
 765              	.L61:
 577:Generated_Source\PSoC5/RTOS_stream_buffer.c ****         }
 766              		.loc 1 577 0
 767 0032 0122     		movs	r2, #1
 768              	.LVL108:
 769              	.L53:
 587:Generated_Source\PSoC5/RTOS_stream_buffer.c ****     {
ARM GAS  C:\Users\df16\AppData\Local\Temp\ccjld08w.s 			page 39


 770              		.loc 1 587 0
 771 0034 039B     		ldr	r3, [sp, #12]
 772 0036 5BB3     		cbz	r3, .L62
 587:Generated_Source\PSoC5/RTOS_stream_buffer.c ****     {
 773              		.loc 1 587 0 is_stmt 0 discriminator 1
 774 0038 62B3     		cbz	r2, .L63
 589:Generated_Source\PSoC5/RTOS_stream_buffer.c **** 
 775              		.loc 1 589 0 is_stmt 1
 776 003a 04A8     		add	r0, sp, #16
 777              	.LVL109:
 778 003c FFF7FEFF 		bl	vTaskSetTimeOutState
 779              	.LVL110:
 780              	.L56:
 595:Generated_Source\PSoC5/RTOS_stream_buffer.c ****             {
 781              		.loc 1 595 0
 782 0040 FFF7FEFF 		bl	vPortEnterCritical
 783              	.LVL111:
 597:Generated_Source\PSoC5/RTOS_stream_buffer.c **** 
 784              		.loc 1 597 0
 785 0044 2046     		mov	r0, r4
 786 0046 FFF7FEFF 		bl	xStreamBufferSpacesAvailable
 787              	.LVL112:
 788 004a 0546     		mov	r5, r0
 789              	.LVL113:
 599:Generated_Source\PSoC5/RTOS_stream_buffer.c ****                 {
 790              		.loc 1 599 0
 791 004c 8642     		cmp	r6, r0
 792 004e 1CD9     		bls	.L55
 602:Generated_Source\PSoC5/RTOS_stream_buffer.c **** 
 793              		.loc 1 602 0
 794 0050 0021     		movs	r1, #0
 795 0052 0846     		mov	r0, r1
 796              	.LVL114:
 797 0054 FFF7FEFF 		bl	xTaskGenericNotifyStateClear
 798              	.LVL115:
 606:Generated_Source\PSoC5/RTOS_stream_buffer.c ****                 }
 799              		.loc 1 606 0
 800 0058 FFF7FEFF 		bl	xTaskGetCurrentTaskHandle
 801              	.LVL116:
 802 005c 6061     		str	r0, [r4, #20]
 614:Generated_Source\PSoC5/RTOS_stream_buffer.c **** 
 803              		.loc 1 614 0
 804 005e FFF7FEFF 		bl	vPortExitCritical
 805              	.LVL117:
 617:Generated_Source\PSoC5/RTOS_stream_buffer.c ****             pxStreamBuffer->xTaskWaitingToSend = NULL;
 806              		.loc 1 617 0
 807 0062 0DF11808 		add	r8, sp, #24
 808 0066 58F80C3D 		ldr	r3, [r8, #-12]!
 809 006a 0093     		str	r3, [sp]
 810 006c 0023     		movs	r3, #0
 811 006e 1A46     		mov	r2, r3
 812 0070 1946     		mov	r1, r3
 813 0072 1846     		mov	r0, r3
 814 0074 FFF7FEFF 		bl	xTaskGenericNotifyWait
 815              	.LVL118:
 618:Generated_Source\PSoC5/RTOS_stream_buffer.c ****         } while( xTaskCheckForTimeOut( &xTimeOut, &xTicksToWait ) == pdFALSE );
 816              		.loc 1 618 0
ARM GAS  C:\Users\df16\AppData\Local\Temp\ccjld08w.s 			page 40


 817 0078 0023     		movs	r3, #0
 818 007a 6361     		str	r3, [r4, #20]
 619:Generated_Source\PSoC5/RTOS_stream_buffer.c ****     }
 819              		.loc 1 619 0
 820 007c 4146     		mov	r1, r8
 821 007e 04A8     		add	r0, sp, #16
 822 0080 FFF7FEFF 		bl	xTaskCheckForTimeOut
 823              	.LVL119:
 824 0084 0028     		cmp	r0, #0
 825 0086 DBD0     		beq	.L56
 826 0088 05E0     		b	.L54
 827              	.LVL120:
 828              	.L55:
 610:Generated_Source\PSoC5/RTOS_stream_buffer.c ****                     break;
 829              		.loc 1 610 0
 830 008a FFF7FEFF 		bl	vPortExitCritical
 831              	.LVL121:
 611:Generated_Source\PSoC5/RTOS_stream_buffer.c ****                 }
 832              		.loc 1 611 0
 833 008e 02E0     		b	.L54
 834              	.LVL122:
 835              	.L62:
 517:Generated_Source\PSoC5/RTOS_stream_buffer.c ****     size_t xRequiredSpace = xDataLengthBytes;
 836              		.loc 1 517 0
 837 0090 0025     		movs	r5, #0
 838 0092 00E0     		b	.L54
 839              	.L63:
 840 0094 0025     		movs	r5, #0
 841              	.LVL123:
 842              	.L54:
 626:Generated_Source\PSoC5/RTOS_stream_buffer.c ****     {
 843              		.loc 1 626 0
 844 0096 1DB9     		cbnz	r5, .L57
 628:Generated_Source\PSoC5/RTOS_stream_buffer.c ****     }
 845              		.loc 1 628 0
 846 0098 2046     		mov	r0, r4
 847 009a FFF7FEFF 		bl	xStreamBufferSpacesAvailable
 848              	.LVL124:
 849 009e 0546     		mov	r5, r0
 850              	.LVL125:
 851              	.L57:
 635:Generated_Source\PSoC5/RTOS_stream_buffer.c **** 
 852              		.loc 1 635 0
 853 00a0 0096     		str	r6, [sp]
 854 00a2 2B46     		mov	r3, r5
 855 00a4 3A46     		mov	r2, r7
 856 00a6 4946     		mov	r1, r9
 857 00a8 2046     		mov	r0, r4
 858 00aa FFF7FEFF 		bl	prvWriteMessageToBuffer
 859              	.LVL126:
 637:Generated_Source\PSoC5/RTOS_stream_buffer.c ****     {
 860              		.loc 1 637 0
 861 00ae 0546     		mov	r5, r0
 862              	.LVL127:
 863 00b0 A0B1     		cbz	r0, .L58
 642:Generated_Source\PSoC5/RTOS_stream_buffer.c ****         {
 864              		.loc 1 642 0
ARM GAS  C:\Users\df16\AppData\Local\Temp\ccjld08w.s 			page 41


 865 00b2 2046     		mov	r0, r4
 866              	.LVL128:
 867 00b4 FFF7FEFF 		bl	prvBytesInBuffer
 868              	.LVL129:
 869 00b8 E368     		ldr	r3, [r4, #12]
 870 00ba 9842     		cmp	r0, r3
 871 00bc 0ED3     		bcc	.L58
 644:Generated_Source\PSoC5/RTOS_stream_buffer.c ****         }
 872              		.loc 1 644 0
 873 00be FFF7FEFF 		bl	vTaskSuspendAll
 874              	.LVL130:
 875 00c2 2369     		ldr	r3, [r4, #16]
 876 00c4 43B1     		cbz	r3, .L59
 644:Generated_Source\PSoC5/RTOS_stream_buffer.c ****         }
 877              		.loc 1 644 0 is_stmt 0 discriminator 1
 878 00c6 2069     		ldr	r0, [r4, #16]
 879 00c8 0026     		movs	r6, #0
 880              	.LVL131:
 881 00ca 0096     		str	r6, [sp]
 882 00cc 3346     		mov	r3, r6
 883 00ce 3246     		mov	r2, r6
 884 00d0 3146     		mov	r1, r6
 885 00d2 FFF7FEFF 		bl	xTaskGenericNotify
 886              	.LVL132:
 887 00d6 2661     		str	r6, [r4, #16]
 888              	.L59:
 644:Generated_Source\PSoC5/RTOS_stream_buffer.c ****         }
 889              		.loc 1 644 0 discriminator 3
 890 00d8 FFF7FEFF 		bl	xTaskResumeAll
 891              	.LVL133:
 892              	.L58:
 658:Generated_Source\PSoC5/RTOS_stream_buffer.c **** /*-----------------------------------------------------------*/
 893              		.loc 1 658 0 is_stmt 1
 894 00dc 2846     		mov	r0, r5
 895 00de 07B0     		add	sp, sp, #28
 896              		.cfi_def_cfa_offset 28
 897              		@ sp needed
 898 00e0 BDE8F083 		pop	{r4, r5, r6, r7, r8, r9, pc}
 899              		.cfi_endproc
 900              	.LFE73:
 901              		.size	xStreamBufferSend, .-xStreamBufferSend
 902              		.section	.text.xStreamBufferSendFromISR,"ax",%progbits
 903              		.align	2
 904              		.global	xStreamBufferSendFromISR
 905              		.thumb
 906              		.thumb_func
 907              		.type	xStreamBufferSendFromISR, %function
 908              	xStreamBufferSendFromISR:
 909              	.LFB74:
 665:Generated_Source\PSoC5/RTOS_stream_buffer.c ****     StreamBuffer_t * const pxStreamBuffer = xStreamBuffer;
 910              		.loc 1 665 0
 911              		.cfi_startproc
 912              		@ args = 0, pretend = 0, frame = 0
 913              		@ frame_needed = 0, uses_anonymous_args = 0
 914              	.LVL134:
 915 0000 2DE9F041 		push	{r4, r5, r6, r7, r8, lr}
 916              		.cfi_def_cfa_offset 24
ARM GAS  C:\Users\df16\AppData\Local\Temp\ccjld08w.s 			page 42


 917              		.cfi_offset 4, -24
 918              		.cfi_offset 5, -20
 919              		.cfi_offset 6, -16
 920              		.cfi_offset 7, -12
 921              		.cfi_offset 8, -8
 922              		.cfi_offset 14, -4
 923 0004 82B0     		sub	sp, sp, #8
 924              		.cfi_def_cfa_offset 32
 925 0006 0446     		mov	r4, r0
 926 0008 0E46     		mov	r6, r1
 927 000a 1546     		mov	r5, r2
 928 000c 9846     		mov	r8, r3
 929              	.LVL135:
 677:Generated_Source\PSoC5/RTOS_stream_buffer.c ****     {
 930              		.loc 1 677 0
 931 000e 037F     		ldrb	r3, [r0, #28]	@ zero_extendqisi2
 932              	.LVL136:
 933 0010 13F0010F 		tst	r3, #1
 934 0014 01D0     		beq	.L69
 679:Generated_Source\PSoC5/RTOS_stream_buffer.c ****     }
 935              		.loc 1 679 0
 936 0016 171D     		adds	r7, r2, #4
 937              	.LVL137:
 938 0018 00E0     		b	.L66
 939              	.LVL138:
 940              	.L69:
 668:Generated_Source\PSoC5/RTOS_stream_buffer.c **** 
 941              		.loc 1 668 0
 942 001a 1746     		mov	r7, r2
 943              	.LVL139:
 944              	.L66:
 686:Generated_Source\PSoC5/RTOS_stream_buffer.c ****     xReturn = prvWriteMessageToBuffer( pxStreamBuffer, pvTxData, xDataLengthBytes, xSpace, xRequire
 945              		.loc 1 686 0
 946 001c 2046     		mov	r0, r4
 947              	.LVL140:
 948 001e FFF7FEFF 		bl	xStreamBufferSpacesAvailable
 949              	.LVL141:
 687:Generated_Source\PSoC5/RTOS_stream_buffer.c **** 
 950              		.loc 1 687 0
 951 0022 0097     		str	r7, [sp]
 952 0024 0346     		mov	r3, r0
 953 0026 2A46     		mov	r2, r5
 954 0028 3146     		mov	r1, r6
 955 002a 2046     		mov	r0, r4
 956              	.LVL142:
 957 002c FFF7FEFF 		bl	prvWriteMessageToBuffer
 958              	.LVL143:
 689:Generated_Source\PSoC5/RTOS_stream_buffer.c ****     {
 959              		.loc 1 689 0
 960 0030 0546     		mov	r5, r0
 961              	.LVL144:
 962 0032 F0B1     		cbz	r0, .L67
 692:Generated_Source\PSoC5/RTOS_stream_buffer.c ****         {
 963              		.loc 1 692 0
 964 0034 2046     		mov	r0, r4
 965              	.LVL145:
 966 0036 FFF7FEFF 		bl	prvBytesInBuffer
ARM GAS  C:\Users\df16\AppData\Local\Temp\ccjld08w.s 			page 43


 967              	.LVL146:
 968 003a E368     		ldr	r3, [r4, #12]
 969 003c 9842     		cmp	r0, r3
 970 003e 18D3     		bcc	.L67
 971              	.LBB20:
 972              	.LBB21:
 973              	.LBB22:
 974              		.file 2 "g:\\project\\psocwagen\\psoc\\ucll_koen_lib.cylib\\myfreertos\\source\\portable\\gcc\\arm
   1:g:\project\psocwagen\psoc\ucll_koen_lib.cylib\myfreertos\source\portable\gcc\arm_cm3\portmacro.h **** /*
   2:g:\project\psocwagen\psoc\ucll_koen_lib.cylib\myfreertos\source\portable\gcc\arm_cm3\portmacro.h ****  * FreeRTOS Kernel V10.4.0
   3:g:\project\psocwagen\psoc\ucll_koen_lib.cylib\myfreertos\source\portable\gcc\arm_cm3\portmacro.h ****  * Copyright (C) 2020 Amazon.com, Inc. or its affiliates.  All Rights Reserved.
   4:g:\project\psocwagen\psoc\ucll_koen_lib.cylib\myfreertos\source\portable\gcc\arm_cm3\portmacro.h ****  *
   5:g:\project\psocwagen\psoc\ucll_koen_lib.cylib\myfreertos\source\portable\gcc\arm_cm3\portmacro.h ****  * Permission is hereby granted, free of charge, to any person obtaining a copy of
   6:g:\project\psocwagen\psoc\ucll_koen_lib.cylib\myfreertos\source\portable\gcc\arm_cm3\portmacro.h ****  * this software and associated documentation files (the "Software"), to deal in
   7:g:\project\psocwagen\psoc\ucll_koen_lib.cylib\myfreertos\source\portable\gcc\arm_cm3\portmacro.h ****  * the Software without restriction, including without limitation the rights to
   8:g:\project\psocwagen\psoc\ucll_koen_lib.cylib\myfreertos\source\portable\gcc\arm_cm3\portmacro.h ****  * use, copy, modify, merge, publish, distribute, sublicense, and/or sell copies of
   9:g:\project\psocwagen\psoc\ucll_koen_lib.cylib\myfreertos\source\portable\gcc\arm_cm3\portmacro.h ****  * the Software, and to permit persons to whom the Software is furnished to do so,
  10:g:\project\psocwagen\psoc\ucll_koen_lib.cylib\myfreertos\source\portable\gcc\arm_cm3\portmacro.h ****  * subject to the following conditions:
  11:g:\project\psocwagen\psoc\ucll_koen_lib.cylib\myfreertos\source\portable\gcc\arm_cm3\portmacro.h ****  *
  12:g:\project\psocwagen\psoc\ucll_koen_lib.cylib\myfreertos\source\portable\gcc\arm_cm3\portmacro.h ****  * The above copyright notice and this permission notice shall be included in all
  13:g:\project\psocwagen\psoc\ucll_koen_lib.cylib\myfreertos\source\portable\gcc\arm_cm3\portmacro.h ****  * copies or substantial portions of the Software.
  14:g:\project\psocwagen\psoc\ucll_koen_lib.cylib\myfreertos\source\portable\gcc\arm_cm3\portmacro.h ****  *
  15:g:\project\psocwagen\psoc\ucll_koen_lib.cylib\myfreertos\source\portable\gcc\arm_cm3\portmacro.h ****  * THE SOFTWARE IS PROVIDED "AS IS", WITHOUT WARRANTY OF ANY KIND, EXPRESS OR
  16:g:\project\psocwagen\psoc\ucll_koen_lib.cylib\myfreertos\source\portable\gcc\arm_cm3\portmacro.h ****  * IMPLIED, INCLUDING BUT NOT LIMITED TO THE WARRANTIES OF MERCHANTABILITY, FITNESS
  17:g:\project\psocwagen\psoc\ucll_koen_lib.cylib\myfreertos\source\portable\gcc\arm_cm3\portmacro.h ****  * FOR A PARTICULAR PURPOSE AND NONINFRINGEMENT. IN NO EVENT SHALL THE AUTHORS OR
  18:g:\project\psocwagen\psoc\ucll_koen_lib.cylib\myfreertos\source\portable\gcc\arm_cm3\portmacro.h ****  * COPYRIGHT HOLDERS BE LIABLE FOR ANY CLAIM, DAMAGES OR OTHER LIABILITY, WHETHER
  19:g:\project\psocwagen\psoc\ucll_koen_lib.cylib\myfreertos\source\portable\gcc\arm_cm3\portmacro.h ****  * IN AN ACTION OF CONTRACT, TORT OR OTHERWISE, ARISING FROM, OUT OF OR IN
  20:g:\project\psocwagen\psoc\ucll_koen_lib.cylib\myfreertos\source\portable\gcc\arm_cm3\portmacro.h ****  * CONNECTION WITH THE SOFTWARE OR THE USE OR OTHER DEALINGS IN THE SOFTWARE.
  21:g:\project\psocwagen\psoc\ucll_koen_lib.cylib\myfreertos\source\portable\gcc\arm_cm3\portmacro.h ****  *
  22:g:\project\psocwagen\psoc\ucll_koen_lib.cylib\myfreertos\source\portable\gcc\arm_cm3\portmacro.h ****  * https://www.FreeRTOS.org
  23:g:\project\psocwagen\psoc\ucll_koen_lib.cylib\myfreertos\source\portable\gcc\arm_cm3\portmacro.h ****  * https://github.com/FreeRTOS
  24:g:\project\psocwagen\psoc\ucll_koen_lib.cylib\myfreertos\source\portable\gcc\arm_cm3\portmacro.h ****  *
  25:g:\project\psocwagen\psoc\ucll_koen_lib.cylib\myfreertos\source\portable\gcc\arm_cm3\portmacro.h ****  * 1 tab == 4 spaces!
  26:g:\project\psocwagen\psoc\ucll_koen_lib.cylib\myfreertos\source\portable\gcc\arm_cm3\portmacro.h ****  */
  27:g:\project\psocwagen\psoc\ucll_koen_lib.cylib\myfreertos\source\portable\gcc\arm_cm3\portmacro.h **** 
  28:g:\project\psocwagen\psoc\ucll_koen_lib.cylib\myfreertos\source\portable\gcc\arm_cm3\portmacro.h **** 
  29:g:\project\psocwagen\psoc\ucll_koen_lib.cylib\myfreertos\source\portable\gcc\arm_cm3\portmacro.h **** #ifndef PORTMACRO_H
  30:g:\project\psocwagen\psoc\ucll_koen_lib.cylib\myfreertos\source\portable\gcc\arm_cm3\portmacro.h ****     #define PORTMACRO_H
  31:g:\project\psocwagen\psoc\ucll_koen_lib.cylib\myfreertos\source\portable\gcc\arm_cm3\portmacro.h **** 
  32:g:\project\psocwagen\psoc\ucll_koen_lib.cylib\myfreertos\source\portable\gcc\arm_cm3\portmacro.h ****     #ifdef __cplusplus
  33:g:\project\psocwagen\psoc\ucll_koen_lib.cylib\myfreertos\source\portable\gcc\arm_cm3\portmacro.h ****         extern "C" {
  34:g:\project\psocwagen\psoc\ucll_koen_lib.cylib\myfreertos\source\portable\gcc\arm_cm3\portmacro.h ****     #endif
  35:g:\project\psocwagen\psoc\ucll_koen_lib.cylib\myfreertos\source\portable\gcc\arm_cm3\portmacro.h **** 
  36:g:\project\psocwagen\psoc\ucll_koen_lib.cylib\myfreertos\source\portable\gcc\arm_cm3\portmacro.h **** /*-----------------------------------------------------------
  37:g:\project\psocwagen\psoc\ucll_koen_lib.cylib\myfreertos\source\portable\gcc\arm_cm3\portmacro.h ****  * Port specific definitions.
  38:g:\project\psocwagen\psoc\ucll_koen_lib.cylib\myfreertos\source\portable\gcc\arm_cm3\portmacro.h ****  *
  39:g:\project\psocwagen\psoc\ucll_koen_lib.cylib\myfreertos\source\portable\gcc\arm_cm3\portmacro.h ****  * The settings in this file configure FreeRTOS correctly for the
  40:g:\project\psocwagen\psoc\ucll_koen_lib.cylib\myfreertos\source\portable\gcc\arm_cm3\portmacro.h ****  * given hardware and compiler.
  41:g:\project\psocwagen\psoc\ucll_koen_lib.cylib\myfreertos\source\portable\gcc\arm_cm3\portmacro.h ****  *
  42:g:\project\psocwagen\psoc\ucll_koen_lib.cylib\myfreertos\source\portable\gcc\arm_cm3\portmacro.h ****  * These settings should not be altered.
  43:g:\project\psocwagen\psoc\ucll_koen_lib.cylib\myfreertos\source\portable\gcc\arm_cm3\portmacro.h ****  *-----------------------------------------------------------
  44:g:\project\psocwagen\psoc\ucll_koen_lib.cylib\myfreertos\source\portable\gcc\arm_cm3\portmacro.h ****  */
  45:g:\project\psocwagen\psoc\ucll_koen_lib.cylib\myfreertos\source\portable\gcc\arm_cm3\portmacro.h **** 
  46:g:\project\psocwagen\psoc\ucll_koen_lib.cylib\myfreertos\source\portable\gcc\arm_cm3\portmacro.h **** /* Type definitions. */
  47:g:\project\psocwagen\psoc\ucll_koen_lib.cylib\myfreertos\source\portable\gcc\arm_cm3\portmacro.h ****     #define portCHAR          char
  48:g:\project\psocwagen\psoc\ucll_koen_lib.cylib\myfreertos\source\portable\gcc\arm_cm3\portmacro.h ****     #define portFLOAT         float
  49:g:\project\psocwagen\psoc\ucll_koen_lib.cylib\myfreertos\source\portable\gcc\arm_cm3\portmacro.h ****     #define portDOUBLE        double
ARM GAS  C:\Users\df16\AppData\Local\Temp\ccjld08w.s 			page 44


  50:g:\project\psocwagen\psoc\ucll_koen_lib.cylib\myfreertos\source\portable\gcc\arm_cm3\portmacro.h ****     #define portLONG          long
  51:g:\project\psocwagen\psoc\ucll_koen_lib.cylib\myfreertos\source\portable\gcc\arm_cm3\portmacro.h ****     #define portSHORT         short
  52:g:\project\psocwagen\psoc\ucll_koen_lib.cylib\myfreertos\source\portable\gcc\arm_cm3\portmacro.h ****     #define portSTACK_TYPE    uint32_t
  53:g:\project\psocwagen\psoc\ucll_koen_lib.cylib\myfreertos\source\portable\gcc\arm_cm3\portmacro.h ****     #define portBASE_TYPE     long
  54:g:\project\psocwagen\psoc\ucll_koen_lib.cylib\myfreertos\source\portable\gcc\arm_cm3\portmacro.h **** 
  55:g:\project\psocwagen\psoc\ucll_koen_lib.cylib\myfreertos\source\portable\gcc\arm_cm3\portmacro.h ****     typedef portSTACK_TYPE   StackType_t;
  56:g:\project\psocwagen\psoc\ucll_koen_lib.cylib\myfreertos\source\portable\gcc\arm_cm3\portmacro.h ****     typedef long             BaseType_t;
  57:g:\project\psocwagen\psoc\ucll_koen_lib.cylib\myfreertos\source\portable\gcc\arm_cm3\portmacro.h ****     typedef unsigned long    UBaseType_t;
  58:g:\project\psocwagen\psoc\ucll_koen_lib.cylib\myfreertos\source\portable\gcc\arm_cm3\portmacro.h **** 
  59:g:\project\psocwagen\psoc\ucll_koen_lib.cylib\myfreertos\source\portable\gcc\arm_cm3\portmacro.h ****     #if ( configUSE_16_BIT_TICKS == 1 )
  60:g:\project\psocwagen\psoc\ucll_koen_lib.cylib\myfreertos\source\portable\gcc\arm_cm3\portmacro.h ****         typedef uint16_t     TickType_t;
  61:g:\project\psocwagen\psoc\ucll_koen_lib.cylib\myfreertos\source\portable\gcc\arm_cm3\portmacro.h ****         #define portMAX_DELAY              ( TickType_t ) 0xffff
  62:g:\project\psocwagen\psoc\ucll_koen_lib.cylib\myfreertos\source\portable\gcc\arm_cm3\portmacro.h ****     #else
  63:g:\project\psocwagen\psoc\ucll_koen_lib.cylib\myfreertos\source\portable\gcc\arm_cm3\portmacro.h ****         typedef uint32_t     TickType_t;
  64:g:\project\psocwagen\psoc\ucll_koen_lib.cylib\myfreertos\source\portable\gcc\arm_cm3\portmacro.h ****         #define portMAX_DELAY              ( TickType_t ) 0xffffffffUL
  65:g:\project\psocwagen\psoc\ucll_koen_lib.cylib\myfreertos\source\portable\gcc\arm_cm3\portmacro.h **** 
  66:g:\project\psocwagen\psoc\ucll_koen_lib.cylib\myfreertos\source\portable\gcc\arm_cm3\portmacro.h **** /* 32-bit tick type on a 32-bit architecture, so reads of the tick count do
  67:g:\project\psocwagen\psoc\ucll_koen_lib.cylib\myfreertos\source\portable\gcc\arm_cm3\portmacro.h ****  * not need to be guarded with a critical section. */
  68:g:\project\psocwagen\psoc\ucll_koen_lib.cylib\myfreertos\source\portable\gcc\arm_cm3\portmacro.h ****         #define portTICK_TYPE_IS_ATOMIC    1
  69:g:\project\psocwagen\psoc\ucll_koen_lib.cylib\myfreertos\source\portable\gcc\arm_cm3\portmacro.h ****     #endif
  70:g:\project\psocwagen\psoc\ucll_koen_lib.cylib\myfreertos\source\portable\gcc\arm_cm3\portmacro.h **** /*-----------------------------------------------------------*/
  71:g:\project\psocwagen\psoc\ucll_koen_lib.cylib\myfreertos\source\portable\gcc\arm_cm3\portmacro.h **** 
  72:g:\project\psocwagen\psoc\ucll_koen_lib.cylib\myfreertos\source\portable\gcc\arm_cm3\portmacro.h **** /* Architecture specifics. */
  73:g:\project\psocwagen\psoc\ucll_koen_lib.cylib\myfreertos\source\portable\gcc\arm_cm3\portmacro.h ****     #define portSTACK_GROWTH      ( -1 )
  74:g:\project\psocwagen\psoc\ucll_koen_lib.cylib\myfreertos\source\portable\gcc\arm_cm3\portmacro.h ****     #define portTICK_PERIOD_MS    ( ( TickType_t ) 1000 / configTICK_RATE_HZ )
  75:g:\project\psocwagen\psoc\ucll_koen_lib.cylib\myfreertos\source\portable\gcc\arm_cm3\portmacro.h ****     #define portBYTE_ALIGNMENT    8
  76:g:\project\psocwagen\psoc\ucll_koen_lib.cylib\myfreertos\source\portable\gcc\arm_cm3\portmacro.h ****     #define portDONT_DISCARD      __attribute__( ( used ) )
  77:g:\project\psocwagen\psoc\ucll_koen_lib.cylib\myfreertos\source\portable\gcc\arm_cm3\portmacro.h **** /*-----------------------------------------------------------*/
  78:g:\project\psocwagen\psoc\ucll_koen_lib.cylib\myfreertos\source\portable\gcc\arm_cm3\portmacro.h **** 
  79:g:\project\psocwagen\psoc\ucll_koen_lib.cylib\myfreertos\source\portable\gcc\arm_cm3\portmacro.h **** /* Scheduler utilities. */
  80:g:\project\psocwagen\psoc\ucll_koen_lib.cylib\myfreertos\source\portable\gcc\arm_cm3\portmacro.h ****     #define portYIELD()                                 \
  81:g:\project\psocwagen\psoc\ucll_koen_lib.cylib\myfreertos\source\portable\gcc\arm_cm3\portmacro.h ****     {                                                   \
  82:g:\project\psocwagen\psoc\ucll_koen_lib.cylib\myfreertos\source\portable\gcc\arm_cm3\portmacro.h ****         /* Set a PendSV to request a context switch. */ \
  83:g:\project\psocwagen\psoc\ucll_koen_lib.cylib\myfreertos\source\portable\gcc\arm_cm3\portmacro.h ****         portNVIC_INT_CTRL_REG = portNVIC_PENDSVSET_BIT; \
  84:g:\project\psocwagen\psoc\ucll_koen_lib.cylib\myfreertos\source\portable\gcc\arm_cm3\portmacro.h ****                                                         \
  85:g:\project\psocwagen\psoc\ucll_koen_lib.cylib\myfreertos\source\portable\gcc\arm_cm3\portmacro.h ****         /* Barriers are normally not required but do ensure the code is completely \
  86:g:\project\psocwagen\psoc\ucll_koen_lib.cylib\myfreertos\source\portable\gcc\arm_cm3\portmacro.h ****          * within the specified behaviour for the architecture. */ \
  87:g:\project\psocwagen\psoc\ucll_koen_lib.cylib\myfreertos\source\portable\gcc\arm_cm3\portmacro.h ****         __asm volatile ( "dsb" ::: "memory" );                     \
  88:g:\project\psocwagen\psoc\ucll_koen_lib.cylib\myfreertos\source\portable\gcc\arm_cm3\portmacro.h ****         __asm volatile ( "isb" );                                  \
  89:g:\project\psocwagen\psoc\ucll_koen_lib.cylib\myfreertos\source\portable\gcc\arm_cm3\portmacro.h ****     }
  90:g:\project\psocwagen\psoc\ucll_koen_lib.cylib\myfreertos\source\portable\gcc\arm_cm3\portmacro.h **** 
  91:g:\project\psocwagen\psoc\ucll_koen_lib.cylib\myfreertos\source\portable\gcc\arm_cm3\portmacro.h ****     #define portNVIC_INT_CTRL_REG     ( *( ( volatile uint32_t * ) 0xe000ed04 ) )
  92:g:\project\psocwagen\psoc\ucll_koen_lib.cylib\myfreertos\source\portable\gcc\arm_cm3\portmacro.h ****     #define portNVIC_PENDSVSET_BIT    ( 1UL << 28UL )
  93:g:\project\psocwagen\psoc\ucll_koen_lib.cylib\myfreertos\source\portable\gcc\arm_cm3\portmacro.h ****     #define portEND_SWITCHING_ISR( xSwitchRequired )    if( xSwitchRequired != pdFALSE ) portYIELD(
  94:g:\project\psocwagen\psoc\ucll_koen_lib.cylib\myfreertos\source\portable\gcc\arm_cm3\portmacro.h ****     #define portYIELD_FROM_ISR( x )                     portEND_SWITCHING_ISR( x )
  95:g:\project\psocwagen\psoc\ucll_koen_lib.cylib\myfreertos\source\portable\gcc\arm_cm3\portmacro.h **** /*-----------------------------------------------------------*/
  96:g:\project\psocwagen\psoc\ucll_koen_lib.cylib\myfreertos\source\portable\gcc\arm_cm3\portmacro.h **** 
  97:g:\project\psocwagen\psoc\ucll_koen_lib.cylib\myfreertos\source\portable\gcc\arm_cm3\portmacro.h **** /* Critical section management. */
  98:g:\project\psocwagen\psoc\ucll_koen_lib.cylib\myfreertos\source\portable\gcc\arm_cm3\portmacro.h ****     extern void vPortEnterCritical( void );
  99:g:\project\psocwagen\psoc\ucll_koen_lib.cylib\myfreertos\source\portable\gcc\arm_cm3\portmacro.h ****     extern void vPortExitCritical( void );
 100:g:\project\psocwagen\psoc\ucll_koen_lib.cylib\myfreertos\source\portable\gcc\arm_cm3\portmacro.h ****     #define portSET_INTERRUPT_MASK_FROM_ISR()         ulPortRaiseBASEPRI()
 101:g:\project\psocwagen\psoc\ucll_koen_lib.cylib\myfreertos\source\portable\gcc\arm_cm3\portmacro.h ****     #define portCLEAR_INTERRUPT_MASK_FROM_ISR( x )    vPortSetBASEPRI( x )
 102:g:\project\psocwagen\psoc\ucll_koen_lib.cylib\myfreertos\source\portable\gcc\arm_cm3\portmacro.h ****     #define portDISABLE_INTERRUPTS()                  vPortRaiseBASEPRI()
 103:g:\project\psocwagen\psoc\ucll_koen_lib.cylib\myfreertos\source\portable\gcc\arm_cm3\portmacro.h ****     #define portENABLE_INTERRUPTS()                   vPortSetBASEPRI( 0 )
 104:g:\project\psocwagen\psoc\ucll_koen_lib.cylib\myfreertos\source\portable\gcc\arm_cm3\portmacro.h ****     #define portENTER_CRITICAL()                      vPortEnterCritical()
 105:g:\project\psocwagen\psoc\ucll_koen_lib.cylib\myfreertos\source\portable\gcc\arm_cm3\portmacro.h ****     #define portEXIT_CRITICAL()                       vPortExitCritical()
 106:g:\project\psocwagen\psoc\ucll_koen_lib.cylib\myfreertos\source\portable\gcc\arm_cm3\portmacro.h **** 
ARM GAS  C:\Users\df16\AppData\Local\Temp\ccjld08w.s 			page 45


 107:g:\project\psocwagen\psoc\ucll_koen_lib.cylib\myfreertos\source\portable\gcc\arm_cm3\portmacro.h **** /*-----------------------------------------------------------*/
 108:g:\project\psocwagen\psoc\ucll_koen_lib.cylib\myfreertos\source\portable\gcc\arm_cm3\portmacro.h **** 
 109:g:\project\psocwagen\psoc\ucll_koen_lib.cylib\myfreertos\source\portable\gcc\arm_cm3\portmacro.h **** /* Task function macros as described on the FreeRTOS.org WEB site.  These are
 110:g:\project\psocwagen\psoc\ucll_koen_lib.cylib\myfreertos\source\portable\gcc\arm_cm3\portmacro.h ****  * not necessary for to use this port.  They are defined so the common demo files
 111:g:\project\psocwagen\psoc\ucll_koen_lib.cylib\myfreertos\source\portable\gcc\arm_cm3\portmacro.h ****  * (which build with all the ports) will build. */
 112:g:\project\psocwagen\psoc\ucll_koen_lib.cylib\myfreertos\source\portable\gcc\arm_cm3\portmacro.h ****     #define portTASK_FUNCTION_PROTO( vFunction, pvParameters )    void vFunction( void * pvParamete
 113:g:\project\psocwagen\psoc\ucll_koen_lib.cylib\myfreertos\source\portable\gcc\arm_cm3\portmacro.h ****     #define portTASK_FUNCTION( vFunction, pvParameters )          void vFunction( void * pvParamete
 114:g:\project\psocwagen\psoc\ucll_koen_lib.cylib\myfreertos\source\portable\gcc\arm_cm3\portmacro.h **** /*-----------------------------------------------------------*/
 115:g:\project\psocwagen\psoc\ucll_koen_lib.cylib\myfreertos\source\portable\gcc\arm_cm3\portmacro.h **** 
 116:g:\project\psocwagen\psoc\ucll_koen_lib.cylib\myfreertos\source\portable\gcc\arm_cm3\portmacro.h **** /* Tickless idle/low power functionality. */
 117:g:\project\psocwagen\psoc\ucll_koen_lib.cylib\myfreertos\source\portable\gcc\arm_cm3\portmacro.h ****     #ifndef portSUPPRESS_TICKS_AND_SLEEP
 118:g:\project\psocwagen\psoc\ucll_koen_lib.cylib\myfreertos\source\portable\gcc\arm_cm3\portmacro.h ****         extern void vPortSuppressTicksAndSleep( TickType_t xExpectedIdleTime );
 119:g:\project\psocwagen\psoc\ucll_koen_lib.cylib\myfreertos\source\portable\gcc\arm_cm3\portmacro.h ****         #define portSUPPRESS_TICKS_AND_SLEEP( xExpectedIdleTime )    vPortSuppressTicksAndSleep( xE
 120:g:\project\psocwagen\psoc\ucll_koen_lib.cylib\myfreertos\source\portable\gcc\arm_cm3\portmacro.h ****     #endif
 121:g:\project\psocwagen\psoc\ucll_koen_lib.cylib\myfreertos\source\portable\gcc\arm_cm3\portmacro.h **** /*-----------------------------------------------------------*/
 122:g:\project\psocwagen\psoc\ucll_koen_lib.cylib\myfreertos\source\portable\gcc\arm_cm3\portmacro.h **** 
 123:g:\project\psocwagen\psoc\ucll_koen_lib.cylib\myfreertos\source\portable\gcc\arm_cm3\portmacro.h **** /* Architecture specific optimisations. */
 124:g:\project\psocwagen\psoc\ucll_koen_lib.cylib\myfreertos\source\portable\gcc\arm_cm3\portmacro.h ****     #ifndef configUSE_PORT_OPTIMISED_TASK_SELECTION
 125:g:\project\psocwagen\psoc\ucll_koen_lib.cylib\myfreertos\source\portable\gcc\arm_cm3\portmacro.h ****         #define configUSE_PORT_OPTIMISED_TASK_SELECTION    1
 126:g:\project\psocwagen\psoc\ucll_koen_lib.cylib\myfreertos\source\portable\gcc\arm_cm3\portmacro.h ****     #endif
 127:g:\project\psocwagen\psoc\ucll_koen_lib.cylib\myfreertos\source\portable\gcc\arm_cm3\portmacro.h **** 
 128:g:\project\psocwagen\psoc\ucll_koen_lib.cylib\myfreertos\source\portable\gcc\arm_cm3\portmacro.h ****     #if configUSE_PORT_OPTIMISED_TASK_SELECTION == 1
 129:g:\project\psocwagen\psoc\ucll_koen_lib.cylib\myfreertos\source\portable\gcc\arm_cm3\portmacro.h **** 
 130:g:\project\psocwagen\psoc\ucll_koen_lib.cylib\myfreertos\source\portable\gcc\arm_cm3\portmacro.h **** /* Generic helper function. */
 131:g:\project\psocwagen\psoc\ucll_koen_lib.cylib\myfreertos\source\portable\gcc\arm_cm3\portmacro.h ****         __attribute__( ( always_inline ) ) static inline uint8_t ucPortCountLeadingZeros( uint32_t 
 132:g:\project\psocwagen\psoc\ucll_koen_lib.cylib\myfreertos\source\portable\gcc\arm_cm3\portmacro.h ****         {
 133:g:\project\psocwagen\psoc\ucll_koen_lib.cylib\myfreertos\source\portable\gcc\arm_cm3\portmacro.h ****             uint8_t ucReturn;
 134:g:\project\psocwagen\psoc\ucll_koen_lib.cylib\myfreertos\source\portable\gcc\arm_cm3\portmacro.h **** 
 135:g:\project\psocwagen\psoc\ucll_koen_lib.cylib\myfreertos\source\portable\gcc\arm_cm3\portmacro.h ****             __asm volatile ( "clz %0, %1" : "=r" ( ucReturn ) : "r" ( ulBitmap ) : "memory" );
 136:g:\project\psocwagen\psoc\ucll_koen_lib.cylib\myfreertos\source\portable\gcc\arm_cm3\portmacro.h **** 
 137:g:\project\psocwagen\psoc\ucll_koen_lib.cylib\myfreertos\source\portable\gcc\arm_cm3\portmacro.h ****             return ucReturn;
 138:g:\project\psocwagen\psoc\ucll_koen_lib.cylib\myfreertos\source\portable\gcc\arm_cm3\portmacro.h ****         }
 139:g:\project\psocwagen\psoc\ucll_koen_lib.cylib\myfreertos\source\portable\gcc\arm_cm3\portmacro.h **** 
 140:g:\project\psocwagen\psoc\ucll_koen_lib.cylib\myfreertos\source\portable\gcc\arm_cm3\portmacro.h **** /* Check the configuration. */
 141:g:\project\psocwagen\psoc\ucll_koen_lib.cylib\myfreertos\source\portable\gcc\arm_cm3\portmacro.h ****         #if ( configMAX_PRIORITIES > 32 )
 142:g:\project\psocwagen\psoc\ucll_koen_lib.cylib\myfreertos\source\portable\gcc\arm_cm3\portmacro.h ****             #error configUSE_PORT_OPTIMISED_TASK_SELECTION can only be set to 1 when configMAX_PRIO
 143:g:\project\psocwagen\psoc\ucll_koen_lib.cylib\myfreertos\source\portable\gcc\arm_cm3\portmacro.h ****         #endif
 144:g:\project\psocwagen\psoc\ucll_koen_lib.cylib\myfreertos\source\portable\gcc\arm_cm3\portmacro.h **** 
 145:g:\project\psocwagen\psoc\ucll_koen_lib.cylib\myfreertos\source\portable\gcc\arm_cm3\portmacro.h **** /* Store/clear the ready priorities in a bit map. */
 146:g:\project\psocwagen\psoc\ucll_koen_lib.cylib\myfreertos\source\portable\gcc\arm_cm3\portmacro.h ****         #define portRECORD_READY_PRIORITY( uxPriority, uxReadyPriorities )    ( uxReadyPriorities )
 147:g:\project\psocwagen\psoc\ucll_koen_lib.cylib\myfreertos\source\portable\gcc\arm_cm3\portmacro.h ****         #define portRESET_READY_PRIORITY( uxPriority, uxReadyPriorities )     ( uxReadyPriorities )
 148:g:\project\psocwagen\psoc\ucll_koen_lib.cylib\myfreertos\source\portable\gcc\arm_cm3\portmacro.h **** 
 149:g:\project\psocwagen\psoc\ucll_koen_lib.cylib\myfreertos\source\portable\gcc\arm_cm3\portmacro.h **** /*-----------------------------------------------------------*/
 150:g:\project\psocwagen\psoc\ucll_koen_lib.cylib\myfreertos\source\portable\gcc\arm_cm3\portmacro.h **** 
 151:g:\project\psocwagen\psoc\ucll_koen_lib.cylib\myfreertos\source\portable\gcc\arm_cm3\portmacro.h ****         #define portGET_HIGHEST_PRIORITY( uxTopPriority, uxReadyPriorities )    uxTopPriority = ( 3
 152:g:\project\psocwagen\psoc\ucll_koen_lib.cylib\myfreertos\source\portable\gcc\arm_cm3\portmacro.h **** 
 153:g:\project\psocwagen\psoc\ucll_koen_lib.cylib\myfreertos\source\portable\gcc\arm_cm3\portmacro.h ****     #endif /* configUSE_PORT_OPTIMISED_TASK_SELECTION */
 154:g:\project\psocwagen\psoc\ucll_koen_lib.cylib\myfreertos\source\portable\gcc\arm_cm3\portmacro.h **** 
 155:g:\project\psocwagen\psoc\ucll_koen_lib.cylib\myfreertos\source\portable\gcc\arm_cm3\portmacro.h **** /*-----------------------------------------------------------*/
 156:g:\project\psocwagen\psoc\ucll_koen_lib.cylib\myfreertos\source\portable\gcc\arm_cm3\portmacro.h **** 
 157:g:\project\psocwagen\psoc\ucll_koen_lib.cylib\myfreertos\source\portable\gcc\arm_cm3\portmacro.h ****     #ifdef configASSERT
 158:g:\project\psocwagen\psoc\ucll_koen_lib.cylib\myfreertos\source\portable\gcc\arm_cm3\portmacro.h ****         void vPortValidateInterruptPriority( void );
 159:g:\project\psocwagen\psoc\ucll_koen_lib.cylib\myfreertos\source\portable\gcc\arm_cm3\portmacro.h ****         #define portASSERT_IF_INTERRUPT_PRIORITY_INVALID()    vPortValidateInterruptPriority()
 160:g:\project\psocwagen\psoc\ucll_koen_lib.cylib\myfreertos\source\portable\gcc\arm_cm3\portmacro.h ****     #endif
 161:g:\project\psocwagen\psoc\ucll_koen_lib.cylib\myfreertos\source\portable\gcc\arm_cm3\portmacro.h **** 
 162:g:\project\psocwagen\psoc\ucll_koen_lib.cylib\myfreertos\source\portable\gcc\arm_cm3\portmacro.h **** /* portNOP() is not required by this port. */
 163:g:\project\psocwagen\psoc\ucll_koen_lib.cylib\myfreertos\source\portable\gcc\arm_cm3\portmacro.h ****     #define portNOP()
ARM GAS  C:\Users\df16\AppData\Local\Temp\ccjld08w.s 			page 46


 164:g:\project\psocwagen\psoc\ucll_koen_lib.cylib\myfreertos\source\portable\gcc\arm_cm3\portmacro.h **** 
 165:g:\project\psocwagen\psoc\ucll_koen_lib.cylib\myfreertos\source\portable\gcc\arm_cm3\portmacro.h ****     #define portINLINE              __inline
 166:g:\project\psocwagen\psoc\ucll_koen_lib.cylib\myfreertos\source\portable\gcc\arm_cm3\portmacro.h **** 
 167:g:\project\psocwagen\psoc\ucll_koen_lib.cylib\myfreertos\source\portable\gcc\arm_cm3\portmacro.h ****     #ifndef portFORCE_INLINE
 168:g:\project\psocwagen\psoc\ucll_koen_lib.cylib\myfreertos\source\portable\gcc\arm_cm3\portmacro.h ****         #define portFORCE_INLINE    inline __attribute__( ( always_inline ) )
 169:g:\project\psocwagen\psoc\ucll_koen_lib.cylib\myfreertos\source\portable\gcc\arm_cm3\portmacro.h ****     #endif
 170:g:\project\psocwagen\psoc\ucll_koen_lib.cylib\myfreertos\source\portable\gcc\arm_cm3\portmacro.h **** 
 171:g:\project\psocwagen\psoc\ucll_koen_lib.cylib\myfreertos\source\portable\gcc\arm_cm3\portmacro.h **** /*-----------------------------------------------------------*/
 172:g:\project\psocwagen\psoc\ucll_koen_lib.cylib\myfreertos\source\portable\gcc\arm_cm3\portmacro.h **** 
 173:g:\project\psocwagen\psoc\ucll_koen_lib.cylib\myfreertos\source\portable\gcc\arm_cm3\portmacro.h ****     portFORCE_INLINE static BaseType_t xPortIsInsideInterrupt( void )
 174:g:\project\psocwagen\psoc\ucll_koen_lib.cylib\myfreertos\source\portable\gcc\arm_cm3\portmacro.h ****     {
 175:g:\project\psocwagen\psoc\ucll_koen_lib.cylib\myfreertos\source\portable\gcc\arm_cm3\portmacro.h ****         uint32_t ulCurrentInterrupt;
 176:g:\project\psocwagen\psoc\ucll_koen_lib.cylib\myfreertos\source\portable\gcc\arm_cm3\portmacro.h ****         BaseType_t xReturn;
 177:g:\project\psocwagen\psoc\ucll_koen_lib.cylib\myfreertos\source\portable\gcc\arm_cm3\portmacro.h **** 
 178:g:\project\psocwagen\psoc\ucll_koen_lib.cylib\myfreertos\source\portable\gcc\arm_cm3\portmacro.h ****         /* Obtain the number of the currently executing interrupt. */
 179:g:\project\psocwagen\psoc\ucll_koen_lib.cylib\myfreertos\source\portable\gcc\arm_cm3\portmacro.h ****         __asm volatile ( "mrs %0, ipsr" : "=r" ( ulCurrentInterrupt )::"memory" );
 180:g:\project\psocwagen\psoc\ucll_koen_lib.cylib\myfreertos\source\portable\gcc\arm_cm3\portmacro.h **** 
 181:g:\project\psocwagen\psoc\ucll_koen_lib.cylib\myfreertos\source\portable\gcc\arm_cm3\portmacro.h ****         if( ulCurrentInterrupt == 0 )
 182:g:\project\psocwagen\psoc\ucll_koen_lib.cylib\myfreertos\source\portable\gcc\arm_cm3\portmacro.h ****         {
 183:g:\project\psocwagen\psoc\ucll_koen_lib.cylib\myfreertos\source\portable\gcc\arm_cm3\portmacro.h ****             xReturn = pdFALSE;
 184:g:\project\psocwagen\psoc\ucll_koen_lib.cylib\myfreertos\source\portable\gcc\arm_cm3\portmacro.h ****         }
 185:g:\project\psocwagen\psoc\ucll_koen_lib.cylib\myfreertos\source\portable\gcc\arm_cm3\portmacro.h ****         else
 186:g:\project\psocwagen\psoc\ucll_koen_lib.cylib\myfreertos\source\portable\gcc\arm_cm3\portmacro.h ****         {
 187:g:\project\psocwagen\psoc\ucll_koen_lib.cylib\myfreertos\source\portable\gcc\arm_cm3\portmacro.h ****             xReturn = pdTRUE;
 188:g:\project\psocwagen\psoc\ucll_koen_lib.cylib\myfreertos\source\portable\gcc\arm_cm3\portmacro.h ****         }
 189:g:\project\psocwagen\psoc\ucll_koen_lib.cylib\myfreertos\source\portable\gcc\arm_cm3\portmacro.h **** 
 190:g:\project\psocwagen\psoc\ucll_koen_lib.cylib\myfreertos\source\portable\gcc\arm_cm3\portmacro.h ****         return xReturn;
 191:g:\project\psocwagen\psoc\ucll_koen_lib.cylib\myfreertos\source\portable\gcc\arm_cm3\portmacro.h ****     }
 192:g:\project\psocwagen\psoc\ucll_koen_lib.cylib\myfreertos\source\portable\gcc\arm_cm3\portmacro.h **** 
 193:g:\project\psocwagen\psoc\ucll_koen_lib.cylib\myfreertos\source\portable\gcc\arm_cm3\portmacro.h **** /*-----------------------------------------------------------*/
 194:g:\project\psocwagen\psoc\ucll_koen_lib.cylib\myfreertos\source\portable\gcc\arm_cm3\portmacro.h **** 
 195:g:\project\psocwagen\psoc\ucll_koen_lib.cylib\myfreertos\source\portable\gcc\arm_cm3\portmacro.h ****     portFORCE_INLINE static void vPortRaiseBASEPRI( void )
 196:g:\project\psocwagen\psoc\ucll_koen_lib.cylib\myfreertos\source\portable\gcc\arm_cm3\portmacro.h ****     {
 197:g:\project\psocwagen\psoc\ucll_koen_lib.cylib\myfreertos\source\portable\gcc\arm_cm3\portmacro.h ****         uint32_t ulNewBASEPRI;
 198:g:\project\psocwagen\psoc\ucll_koen_lib.cylib\myfreertos\source\portable\gcc\arm_cm3\portmacro.h **** 
 199:g:\project\psocwagen\psoc\ucll_koen_lib.cylib\myfreertos\source\portable\gcc\arm_cm3\portmacro.h ****         __asm volatile
 200:g:\project\psocwagen\psoc\ucll_koen_lib.cylib\myfreertos\source\portable\gcc\arm_cm3\portmacro.h ****         (
 201:g:\project\psocwagen\psoc\ucll_koen_lib.cylib\myfreertos\source\portable\gcc\arm_cm3\portmacro.h ****             "	mov %0, %1												\n"\
 202:g:\project\psocwagen\psoc\ucll_koen_lib.cylib\myfreertos\source\portable\gcc\arm_cm3\portmacro.h ****             "	msr basepri, %0											\n"\
 203:g:\project\psocwagen\psoc\ucll_koen_lib.cylib\myfreertos\source\portable\gcc\arm_cm3\portmacro.h ****             "	isb														\n"\
 204:g:\project\psocwagen\psoc\ucll_koen_lib.cylib\myfreertos\source\portable\gcc\arm_cm3\portmacro.h ****             "	dsb														\n"\
 205:g:\project\psocwagen\psoc\ucll_koen_lib.cylib\myfreertos\source\portable\gcc\arm_cm3\portmacro.h ****             : "=r" ( ulNewBASEPRI ) : "i" ( configMAX_SYSCALL_INTERRUPT_PRIORITY ) : "memory"
 206:g:\project\psocwagen\psoc\ucll_koen_lib.cylib\myfreertos\source\portable\gcc\arm_cm3\portmacro.h ****         );
 207:g:\project\psocwagen\psoc\ucll_koen_lib.cylib\myfreertos\source\portable\gcc\arm_cm3\portmacro.h ****     }
 208:g:\project\psocwagen\psoc\ucll_koen_lib.cylib\myfreertos\source\portable\gcc\arm_cm3\portmacro.h **** 
 209:g:\project\psocwagen\psoc\ucll_koen_lib.cylib\myfreertos\source\portable\gcc\arm_cm3\portmacro.h **** /*-----------------------------------------------------------*/
 210:g:\project\psocwagen\psoc\ucll_koen_lib.cylib\myfreertos\source\portable\gcc\arm_cm3\portmacro.h **** 
 211:g:\project\psocwagen\psoc\ucll_koen_lib.cylib\myfreertos\source\portable\gcc\arm_cm3\portmacro.h ****     portFORCE_INLINE static uint32_t ulPortRaiseBASEPRI( void )
 212:g:\project\psocwagen\psoc\ucll_koen_lib.cylib\myfreertos\source\portable\gcc\arm_cm3\portmacro.h ****     {
 213:g:\project\psocwagen\psoc\ucll_koen_lib.cylib\myfreertos\source\portable\gcc\arm_cm3\portmacro.h ****         uint32_t ulOriginalBASEPRI, ulNewBASEPRI;
 214:g:\project\psocwagen\psoc\ucll_koen_lib.cylib\myfreertos\source\portable\gcc\arm_cm3\portmacro.h **** 
 215:g:\project\psocwagen\psoc\ucll_koen_lib.cylib\myfreertos\source\portable\gcc\arm_cm3\portmacro.h ****         __asm volatile
 975              		.loc 2 215 0
 976              		.syntax unified
 977              	@ 215 "g:\project\psocwagen\psoc\ucll_koen_lib.cylib\myfreertos\source\portable\gcc\arm_cm3\portmac
 978 0040 EFF31187 			mrs r7, basepri											
 979 0044 4FF00403 		mov r3, #4												
ARM GAS  C:\Users\df16\AppData\Local\Temp\ccjld08w.s 			page 47


 980 0048 83F31188 		msr basepri, r3											
 981 004c BFF36F8F 		isb														
 982 0050 BFF34F8F 		dsb														
 983              	
 984              	@ 0 "" 2
 985              	.LVL147:
 986              		.thumb
 987              		.syntax unified
 988              	.LBE22:
 989              	.LBE21:
 694:Generated_Source\PSoC5/RTOS_stream_buffer.c ****         }
 990              		.loc 1 694 0
 991 0054 2369     		ldr	r3, [r4, #16]
 992 0056 53B1     		cbz	r3, .L68
 694:Generated_Source\PSoC5/RTOS_stream_buffer.c ****         }
 993              		.loc 1 694 0 is_stmt 0 discriminator 1
 994 0058 2069     		ldr	r0, [r4, #16]
 995 005a CDF80480 		str	r8, [sp, #4]
 996 005e 0026     		movs	r6, #0
 997              	.LVL148:
 998 0060 0096     		str	r6, [sp]
 999 0062 3346     		mov	r3, r6
 1000 0064 3246     		mov	r2, r6
 1001 0066 3146     		mov	r1, r6
 1002 0068 FFF7FEFF 		bl	xTaskGenericNotifyFromISR
 1003              	.LVL149:
 1004 006c 2661     		str	r6, [r4, #16]
 1005              	.L68:
 1006              	.LVL150:
 1007              	.LBB23:
 1008              	.LBB24:
 216:g:\project\psocwagen\psoc\ucll_koen_lib.cylib\myfreertos\source\portable\gcc\arm_cm3\portmacro.h ****         (
 217:g:\project\psocwagen\psoc\ucll_koen_lib.cylib\myfreertos\source\portable\gcc\arm_cm3\portmacro.h ****             "	mrs %0, basepri											\n"\
 218:g:\project\psocwagen\psoc\ucll_koen_lib.cylib\myfreertos\source\portable\gcc\arm_cm3\portmacro.h ****             "	mov %1, %2												\n"\
 219:g:\project\psocwagen\psoc\ucll_koen_lib.cylib\myfreertos\source\portable\gcc\arm_cm3\portmacro.h ****             "	msr basepri, %1											\n"\
 220:g:\project\psocwagen\psoc\ucll_koen_lib.cylib\myfreertos\source\portable\gcc\arm_cm3\portmacro.h ****             "	isb														\n"\
 221:g:\project\psocwagen\psoc\ucll_koen_lib.cylib\myfreertos\source\portable\gcc\arm_cm3\portmacro.h ****             "	dsb														\n"\
 222:g:\project\psocwagen\psoc\ucll_koen_lib.cylib\myfreertos\source\portable\gcc\arm_cm3\portmacro.h ****             : "=r" ( ulOriginalBASEPRI ), "=r" ( ulNewBASEPRI ) : "i" ( configMAX_SYSCALL_INTERRUPT
 223:g:\project\psocwagen\psoc\ucll_koen_lib.cylib\myfreertos\source\portable\gcc\arm_cm3\portmacro.h ****         );
 224:g:\project\psocwagen\psoc\ucll_koen_lib.cylib\myfreertos\source\portable\gcc\arm_cm3\portmacro.h **** 
 225:g:\project\psocwagen\psoc\ucll_koen_lib.cylib\myfreertos\source\portable\gcc\arm_cm3\portmacro.h ****         /* This return will not be reached but is necessary to prevent compiler
 226:g:\project\psocwagen\psoc\ucll_koen_lib.cylib\myfreertos\source\portable\gcc\arm_cm3\portmacro.h ****          * warnings. */
 227:g:\project\psocwagen\psoc\ucll_koen_lib.cylib\myfreertos\source\portable\gcc\arm_cm3\portmacro.h ****         return ulOriginalBASEPRI;
 228:g:\project\psocwagen\psoc\ucll_koen_lib.cylib\myfreertos\source\portable\gcc\arm_cm3\portmacro.h ****     }
 229:g:\project\psocwagen\psoc\ucll_koen_lib.cylib\myfreertos\source\portable\gcc\arm_cm3\portmacro.h **** /*-----------------------------------------------------------*/
 230:g:\project\psocwagen\psoc\ucll_koen_lib.cylib\myfreertos\source\portable\gcc\arm_cm3\portmacro.h **** 
 231:g:\project\psocwagen\psoc\ucll_koen_lib.cylib\myfreertos\source\portable\gcc\arm_cm3\portmacro.h ****     portFORCE_INLINE static void vPortSetBASEPRI( uint32_t ulNewMaskValue )
 232:g:\project\psocwagen\psoc\ucll_koen_lib.cylib\myfreertos\source\portable\gcc\arm_cm3\portmacro.h ****     {
 233:g:\project\psocwagen\psoc\ucll_koen_lib.cylib\myfreertos\source\portable\gcc\arm_cm3\portmacro.h ****         __asm volatile
 1009              		.loc 2 233 0 is_stmt 1 discriminator 3
 1010              		.syntax unified
 1011              	@ 233 "g:\project\psocwagen\psoc\ucll_koen_lib.cylib\myfreertos\source\portable\gcc\arm_cm3\portmac
 1012 006e 87F31188 			msr basepri, r7	
 1013              	@ 0 "" 2
 1014              	.LVL151:
 1015              		.thumb
 1016              		.syntax unified
ARM GAS  C:\Users\df16\AppData\Local\Temp\ccjld08w.s 			page 48


 1017              	.L67:
 1018              	.LBE24:
 1019              	.LBE23:
 1020              	.LBE20:
 709:Generated_Source\PSoC5/RTOS_stream_buffer.c **** /*-----------------------------------------------------------*/
 1021              		.loc 1 709 0
 1022 0072 2846     		mov	r0, r5
 1023 0074 02B0     		add	sp, sp, #8
 1024              		.cfi_def_cfa_offset 24
 1025              		@ sp needed
 1026 0076 BDE8F081 		pop	{r4, r5, r6, r7, r8, pc}
 1027              		.cfi_endproc
 1028              	.LFE74:
 1029              		.size	xStreamBufferSendFromISR, .-xStreamBufferSendFromISR
 1030 007a 00BF     		.section	.text.xStreamBufferReceive,"ax",%progbits
 1031              		.align	2
 1032              		.global	xStreamBufferReceive
 1033              		.thumb
 1034              		.thumb_func
 1035              		.type	xStreamBufferReceive, %function
 1036              	xStreamBufferReceive:
 1037              	.LFB76:
 768:Generated_Source\PSoC5/RTOS_stream_buffer.c ****     StreamBuffer_t * const pxStreamBuffer = xStreamBuffer;
 1038              		.loc 1 768 0
 1039              		.cfi_startproc
 1040              		@ args = 0, pretend = 0, frame = 0
 1041              		@ frame_needed = 0, uses_anonymous_args = 0
 1042              	.LVL152:
 1043 0000 2DE9F043 		push	{r4, r5, r6, r7, r8, r9, lr}
 1044              		.cfi_def_cfa_offset 28
 1045              		.cfi_offset 4, -28
 1046              		.cfi_offset 5, -24
 1047              		.cfi_offset 6, -20
 1048              		.cfi_offset 7, -16
 1049              		.cfi_offset 8, -12
 1050              		.cfi_offset 9, -8
 1051              		.cfi_offset 14, -4
 1052 0004 83B0     		sub	sp, sp, #12
 1053              		.cfi_def_cfa_offset 40
 1054 0006 0446     		mov	r4, r0
 1055 0008 8846     		mov	r8, r1
 1056 000a 9146     		mov	r9, r2
 1057 000c 1F46     		mov	r7, r3
 1058              	.LVL153:
 780:Generated_Source\PSoC5/RTOS_stream_buffer.c ****     {
 1059              		.loc 1 780 0
 1060 000e 037F     		ldrb	r3, [r0, #28]	@ zero_extendqisi2
 1061              	.LVL154:
 1062 0010 13F0010F 		tst	r3, #1
 1063 0014 01D0     		beq	.L78
 782:Generated_Source\PSoC5/RTOS_stream_buffer.c ****     }
 1064              		.loc 1 782 0
 1065 0016 0426     		movs	r6, #4
 1066 0018 00E0     		b	.L72
 1067              	.L78:
 786:Generated_Source\PSoC5/RTOS_stream_buffer.c ****     }
 1068              		.loc 1 786 0
ARM GAS  C:\Users\df16\AppData\Local\Temp\ccjld08w.s 			page 49


 1069 001a 0026     		movs	r6, #0
 1070              	.L72:
 1071              	.LVL155:
 789:Generated_Source\PSoC5/RTOS_stream_buffer.c ****     {
 1072              		.loc 1 789 0
 1073 001c 07B3     		cbz	r7, .L73
 793:Generated_Source\PSoC5/RTOS_stream_buffer.c ****         {
 1074              		.loc 1 793 0
 1075 001e FFF7FEFF 		bl	vPortEnterCritical
 1076              	.LVL156:
 795:Generated_Source\PSoC5/RTOS_stream_buffer.c **** 
 1077              		.loc 1 795 0
 1078 0022 2046     		mov	r0, r4
 1079 0024 FFF7FEFF 		bl	prvBytesInBuffer
 1080              	.LVL157:
 1081 0028 0546     		mov	r5, r0
 1082              	.LVL158:
 802:Generated_Source\PSoC5/RTOS_stream_buffer.c ****             {
 1083              		.loc 1 802 0
 1084 002a 8642     		cmp	r6, r0
 1085 002c 06D3     		bcc	.L74
 805:Generated_Source\PSoC5/RTOS_stream_buffer.c **** 
 1086              		.loc 1 805 0
 1087 002e 0021     		movs	r1, #0
 1088 0030 0846     		mov	r0, r1
 1089              	.LVL159:
 1090 0032 FFF7FEFF 		bl	xTaskGenericNotifyStateClear
 1091              	.LVL160:
 809:Generated_Source\PSoC5/RTOS_stream_buffer.c ****             }
 1092              		.loc 1 809 0
 1093 0036 FFF7FEFF 		bl	xTaskGetCurrentTaskHandle
 1094              	.LVL161:
 1095 003a 2061     		str	r0, [r4, #16]
 1096              	.L74:
 816:Generated_Source\PSoC5/RTOS_stream_buffer.c **** 
 1097              		.loc 1 816 0
 1098 003c FFF7FEFF 		bl	vPortExitCritical
 1099              	.LVL162:
 818:Generated_Source\PSoC5/RTOS_stream_buffer.c ****         {
 1100              		.loc 1 818 0
 1101 0040 AE42     		cmp	r6, r5
 1102 0042 11D3     		bcc	.L75
 822:Generated_Source\PSoC5/RTOS_stream_buffer.c ****             pxStreamBuffer->xTaskWaitingToReceive = NULL;
 1103              		.loc 1 822 0
 1104 0044 0097     		str	r7, [sp]
 1105 0046 0023     		movs	r3, #0
 1106 0048 1A46     		mov	r2, r3
 1107 004a 1946     		mov	r1, r3
 1108 004c 1846     		mov	r0, r3
 1109 004e FFF7FEFF 		bl	xTaskGenericNotifyWait
 1110              	.LVL163:
 823:Generated_Source\PSoC5/RTOS_stream_buffer.c **** 
 1111              		.loc 1 823 0
 1112 0052 0023     		movs	r3, #0
 1113 0054 2361     		str	r3, [r4, #16]
 826:Generated_Source\PSoC5/RTOS_stream_buffer.c ****         }
 1114              		.loc 1 826 0
ARM GAS  C:\Users\df16\AppData\Local\Temp\ccjld08w.s 			page 50


 1115 0056 2046     		mov	r0, r4
 1116 0058 FFF7FEFF 		bl	prvBytesInBuffer
 1117              	.LVL164:
 1118 005c 0546     		mov	r5, r0
 1119              	.LVL165:
 1120 005e 03E0     		b	.L75
 1121              	.LVL166:
 1122              	.L73:
 835:Generated_Source\PSoC5/RTOS_stream_buffer.c ****     }
 1123              		.loc 1 835 0
 1124 0060 2046     		mov	r0, r4
 1125              	.LVL167:
 1126 0062 FFF7FEFF 		bl	prvBytesInBuffer
 1127              	.LVL168:
 1128 0066 0546     		mov	r5, r0
 1129              	.LVL169:
 1130              	.L75:
 843:Generated_Source\PSoC5/RTOS_stream_buffer.c ****     {
 1131              		.loc 1 843 0
 1132 0068 B542     		cmp	r5, r6
 1133 006a 18D9     		bls	.L79
 845:Generated_Source\PSoC5/RTOS_stream_buffer.c **** 
 1134              		.loc 1 845 0
 1135 006c 0096     		str	r6, [sp]
 1136 006e 2B46     		mov	r3, r5
 1137 0070 4A46     		mov	r2, r9
 1138 0072 4146     		mov	r1, r8
 1139 0074 2046     		mov	r0, r4
 1140 0076 FFF7FEFF 		bl	prvReadMessageFromBuffer
 1141              	.LVL170:
 848:Generated_Source\PSoC5/RTOS_stream_buffer.c ****         {
 1142              		.loc 1 848 0
 1143 007a 0546     		mov	r5, r0
 1144              	.LVL171:
 1145 007c 80B1     		cbz	r0, .L76
 851:Generated_Source\PSoC5/RTOS_stream_buffer.c ****         }
 1146              		.loc 1 851 0
 1147 007e FFF7FEFF 		bl	vTaskSuspendAll
 1148              	.LVL172:
 1149 0082 6369     		ldr	r3, [r4, #20]
 1150 0084 43B1     		cbz	r3, .L77
 851:Generated_Source\PSoC5/RTOS_stream_buffer.c ****         }
 1151              		.loc 1 851 0 is_stmt 0 discriminator 1
 1152 0086 6069     		ldr	r0, [r4, #20]
 1153 0088 0026     		movs	r6, #0
 1154              	.LVL173:
 1155 008a 0096     		str	r6, [sp]
 1156 008c 3346     		mov	r3, r6
 1157 008e 3246     		mov	r2, r6
 1158 0090 3146     		mov	r1, r6
 1159 0092 FFF7FEFF 		bl	xTaskGenericNotify
 1160              	.LVL174:
 1161 0096 6661     		str	r6, [r4, #20]
 1162              	.L77:
 851:Generated_Source\PSoC5/RTOS_stream_buffer.c ****         }
 1163              		.loc 1 851 0 discriminator 3
 1164 0098 FFF7FEFF 		bl	xTaskResumeAll
ARM GAS  C:\Users\df16\AppData\Local\Temp\ccjld08w.s 			page 51


 1165              	.LVL175:
 1166 009c 00E0     		b	.L76
 1167              	.LVL176:
 1168              	.L79:
 770:Generated_Source\PSoC5/RTOS_stream_buffer.c **** 
 1169              		.loc 1 770 0 is_stmt 1
 1170 009e 0025     		movs	r5, #0
 1171              	.LVL177:
 1172              	.L76:
 865:Generated_Source\PSoC5/RTOS_stream_buffer.c **** /*-----------------------------------------------------------*/
 1173              		.loc 1 865 0
 1174 00a0 2846     		mov	r0, r5
 1175 00a2 03B0     		add	sp, sp, #12
 1176              		.cfi_def_cfa_offset 28
 1177              		@ sp needed
 1178 00a4 BDE8F083 		pop	{r4, r5, r6, r7, r8, r9, pc}
 1179              		.cfi_endproc
 1180              	.LFE76:
 1181              		.size	xStreamBufferReceive, .-xStreamBufferReceive
 1182              		.section	.text.xStreamBufferNextMessageLengthBytes,"ax",%progbits
 1183              		.align	2
 1184              		.global	xStreamBufferNextMessageLengthBytes
 1185              		.thumb
 1186              		.thumb_func
 1187              		.type	xStreamBufferNextMessageLengthBytes, %function
 1188              	xStreamBufferNextMessageLengthBytes:
 1189              	.LFB77:
 869:Generated_Source\PSoC5/RTOS_stream_buffer.c ****     StreamBuffer_t * const pxStreamBuffer = xStreamBuffer;
 1190              		.loc 1 869 0
 1191              		.cfi_startproc
 1192              		@ args = 0, pretend = 0, frame = 8
 1193              		@ frame_needed = 0, uses_anonymous_args = 0
 1194              	.LVL178:
 877:Generated_Source\PSoC5/RTOS_stream_buffer.c ****     {
 1195              		.loc 1 877 0
 1196 0000 037F     		ldrb	r3, [r0, #28]	@ zero_extendqisi2
 1197 0002 13F0010F 		tst	r3, #1
 1198 0006 11D0     		beq	.L83
 869:Generated_Source\PSoC5/RTOS_stream_buffer.c ****     StreamBuffer_t * const pxStreamBuffer = xStreamBuffer;
 1199              		.loc 1 869 0
 1200 0008 30B5     		push	{r4, r5, lr}
 1201              		.cfi_def_cfa_offset 12
 1202              		.cfi_offset 4, -12
 1203              		.cfi_offset 5, -8
 1204              		.cfi_offset 14, -4
 1205 000a 83B0     		sub	sp, sp, #12
 1206              		.cfi_def_cfa_offset 24
 1207 000c 0446     		mov	r4, r0
 879:Generated_Source\PSoC5/RTOS_stream_buffer.c **** 
 1208              		.loc 1 879 0
 1209 000e FFF7FEFF 		bl	prvBytesInBuffer
 1210              	.LVL179:
 881:Generated_Source\PSoC5/RTOS_stream_buffer.c ****         {
 1211              		.loc 1 881 0
 1212 0012 0428     		cmp	r0, #4
 1213 0014 0CD9     		bls	.L84
 889:Generated_Source\PSoC5/RTOS_stream_buffer.c ****             ( void ) prvReadBytesFromBuffer( pxStreamBuffer, ( uint8_t * ) &xTempReturn, sbBYTES_TO
ARM GAS  C:\Users\df16\AppData\Local\Temp\ccjld08w.s 			page 52


 1214              		.loc 1 889 0
 1215 0016 2568     		ldr	r5, [r4]
 1216              	.LVL180:
 890:Generated_Source\PSoC5/RTOS_stream_buffer.c ****             xReturn = ( size_t ) xTempReturn;
 1217              		.loc 1 890 0
 1218 0018 0346     		mov	r3, r0
 1219 001a 0422     		movs	r2, #4
 1220 001c 0DEB0201 		add	r1, sp, r2
 1221 0020 2046     		mov	r0, r4
 1222              	.LVL181:
 1223 0022 FFF7FEFF 		bl	prvReadBytesFromBuffer
 1224              	.LVL182:
 891:Generated_Source\PSoC5/RTOS_stream_buffer.c ****             pxStreamBuffer->xTail = xOriginalTail;
 1225              		.loc 1 891 0
 1226 0026 0198     		ldr	r0, [sp, #4]
 1227              	.LVL183:
 892:Generated_Source\PSoC5/RTOS_stream_buffer.c ****         }
 1228              		.loc 1 892 0
 1229 0028 2560     		str	r5, [r4]
 1230 002a 02E0     		b	.L82
 1231              	.LVL184:
 1232              	.L83:
 1233              		.cfi_def_cfa_offset 0
 1234              		.cfi_restore 4
 1235              		.cfi_restore 5
 1236              		.cfi_restore 14
 906:Generated_Source\PSoC5/RTOS_stream_buffer.c ****     }
 1237              		.loc 1 906 0
 1238 002c 0020     		movs	r0, #0
 1239              	.LVL185:
 910:Generated_Source\PSoC5/RTOS_stream_buffer.c **** /*-----------------------------------------------------------*/
 1240              		.loc 1 910 0
 1241 002e 7047     		bx	lr
 1242              	.LVL186:
 1243              	.L84:
 1244              		.cfi_def_cfa_offset 24
 1245              		.cfi_offset 4, -12
 1246              		.cfi_offset 5, -8
 1247              		.cfi_offset 14, -4
 901:Generated_Source\PSoC5/RTOS_stream_buffer.c ****         }
 1248              		.loc 1 901 0
 1249 0030 0020     		movs	r0, #0
 1250              	.LVL187:
 1251              	.L82:
 910:Generated_Source\PSoC5/RTOS_stream_buffer.c **** /*-----------------------------------------------------------*/
 1252              		.loc 1 910 0
 1253 0032 03B0     		add	sp, sp, #12
 1254              		.cfi_def_cfa_offset 12
 1255              		@ sp needed
 1256 0034 30BD     		pop	{r4, r5, pc}
 1257              		.cfi_endproc
 1258              	.LFE77:
 1259              		.size	xStreamBufferNextMessageLengthBytes, .-xStreamBufferNextMessageLengthBytes
 1260 0036 00BF     		.section	.text.xStreamBufferReceiveFromISR,"ax",%progbits
 1261              		.align	2
 1262              		.global	xStreamBufferReceiveFromISR
 1263              		.thumb
ARM GAS  C:\Users\df16\AppData\Local\Temp\ccjld08w.s 			page 53


 1264              		.thumb_func
 1265              		.type	xStreamBufferReceiveFromISR, %function
 1266              	xStreamBufferReceiveFromISR:
 1267              	.LFB78:
 917:Generated_Source\PSoC5/RTOS_stream_buffer.c ****     StreamBuffer_t * const pxStreamBuffer = xStreamBuffer;
 1268              		.loc 1 917 0
 1269              		.cfi_startproc
 1270              		@ args = 0, pretend = 0, frame = 0
 1271              		@ frame_needed = 0, uses_anonymous_args = 0
 1272              	.LVL188:
 1273 0000 2DE9F041 		push	{r4, r5, r6, r7, r8, lr}
 1274              		.cfi_def_cfa_offset 24
 1275              		.cfi_offset 4, -24
 1276              		.cfi_offset 5, -20
 1277              		.cfi_offset 6, -16
 1278              		.cfi_offset 7, -12
 1279              		.cfi_offset 8, -8
 1280              		.cfi_offset 14, -4
 1281 0004 82B0     		sub	sp, sp, #8
 1282              		.cfi_def_cfa_offset 32
 1283 0006 0446     		mov	r4, r0
 1284 0008 0E46     		mov	r6, r1
 1285 000a 1746     		mov	r7, r2
 1286 000c 9846     		mov	r8, r3
 1287              	.LVL189:
 929:Generated_Source\PSoC5/RTOS_stream_buffer.c ****     {
 1288              		.loc 1 929 0
 1289 000e 037F     		ldrb	r3, [r0, #28]	@ zero_extendqisi2
 1290              	.LVL190:
 1291 0010 13F0010F 		tst	r3, #1
 1292 0014 01D0     		beq	.L90
 931:Generated_Source\PSoC5/RTOS_stream_buffer.c ****     }
 1293              		.loc 1 931 0
 1294 0016 0425     		movs	r5, #4
 1295 0018 00E0     		b	.L87
 1296              	.L90:
 935:Generated_Source\PSoC5/RTOS_stream_buffer.c ****     }
 1297              		.loc 1 935 0
 1298 001a 0025     		movs	r5, #0
 1299              	.L87:
 1300              	.LVL191:
 938:Generated_Source\PSoC5/RTOS_stream_buffer.c **** 
 1301              		.loc 1 938 0
 1302 001c 2046     		mov	r0, r4
 1303              	.LVL192:
 1304 001e FFF7FEFF 		bl	prvBytesInBuffer
 1305              	.LVL193:
 945:Generated_Source\PSoC5/RTOS_stream_buffer.c ****     {
 1306              		.loc 1 945 0
 1307 0022 8542     		cmp	r5, r0
 1308 0024 22D2     		bcs	.L91
 947:Generated_Source\PSoC5/RTOS_stream_buffer.c **** 
 1309              		.loc 1 947 0
 1310 0026 0095     		str	r5, [sp]
 1311 0028 0346     		mov	r3, r0
 1312 002a 3A46     		mov	r2, r7
 1313 002c 3146     		mov	r1, r6
ARM GAS  C:\Users\df16\AppData\Local\Temp\ccjld08w.s 			page 54


 1314 002e 2046     		mov	r0, r4
 1315              	.LVL194:
 1316 0030 FFF7FEFF 		bl	prvReadMessageFromBuffer
 1317              	.LVL195:
 950:Generated_Source\PSoC5/RTOS_stream_buffer.c ****         {
 1318              		.loc 1 950 0
 1319 0034 0546     		mov	r5, r0
 1320              	.LVL196:
 1321 0036 D0B1     		cbz	r0, .L88
 1322              	.LBB25:
 1323              	.LBB26:
 1324              	.LBB27:
 215:g:\project\psocwagen\psoc\ucll_koen_lib.cylib\myfreertos\source\portable\gcc\arm_cm3\portmacro.h ****         (
 1325              		.loc 2 215 0
 1326              		.syntax unified
 1327              	@ 215 "g:\project\psocwagen\psoc\ucll_koen_lib.cylib\myfreertos\source\portable\gcc\arm_cm3\portmac
 1328 0038 EFF31187 			mrs r7, basepri											
 1329 003c 4FF00403 		mov r3, #4												
 1330 0040 83F31188 		msr basepri, r3											
 1331 0044 BFF36F8F 		isb														
 1332 0048 BFF34F8F 		dsb														
 1333              	
 1334              	@ 0 "" 2
 1335              	.LVL197:
 1336              		.thumb
 1337              		.syntax unified
 1338              	.LBE27:
 1339              	.LBE26:
 952:Generated_Source\PSoC5/RTOS_stream_buffer.c ****         }
 1340              		.loc 1 952 0
 1341 004c 6369     		ldr	r3, [r4, #20]
 1342 004e 53B1     		cbz	r3, .L89
 952:Generated_Source\PSoC5/RTOS_stream_buffer.c ****         }
 1343              		.loc 1 952 0 is_stmt 0 discriminator 1
 1344 0050 6069     		ldr	r0, [r4, #20]
 1345              	.LVL198:
 1346 0052 CDF80480 		str	r8, [sp, #4]
 1347 0056 0026     		movs	r6, #0
 1348              	.LVL199:
 1349 0058 0096     		str	r6, [sp]
 1350 005a 3346     		mov	r3, r6
 1351 005c 3246     		mov	r2, r6
 1352 005e 3146     		mov	r1, r6
 1353 0060 FFF7FEFF 		bl	xTaskGenericNotifyFromISR
 1354              	.LVL200:
 1355 0064 6661     		str	r6, [r4, #20]
 1356              	.L89:
 1357              	.LVL201:
 1358              	.LBB28:
 1359              	.LBB29:
 1360              		.loc 2 233 0 is_stmt 1 discriminator 3
 1361              		.syntax unified
 1362              	@ 233 "g:\project\psocwagen\psoc\ucll_koen_lib.cylib\myfreertos\source\portable\gcc\arm_cm3\portmac
 1363 0066 87F31188 			msr basepri, r7	
 1364              	@ 0 "" 2
 1365              		.thumb
 1366              		.syntax unified
ARM GAS  C:\Users\df16\AppData\Local\Temp\ccjld08w.s 			page 55


 1367 006a 00E0     		b	.L88
 1368              	.LVL202:
 1369              	.L91:
 1370              	.LBE29:
 1371              	.LBE28:
 1372              	.LBE25:
 919:Generated_Source\PSoC5/RTOS_stream_buffer.c **** 
 1373              		.loc 1 919 0
 1374 006c 0025     		movs	r5, #0
 1375              	.LVL203:
 1376              	.L88:
 967:Generated_Source\PSoC5/RTOS_stream_buffer.c **** /*-----------------------------------------------------------*/
 1377              		.loc 1 967 0
 1378 006e 2846     		mov	r0, r5
 1379 0070 02B0     		add	sp, sp, #8
 1380              		.cfi_def_cfa_offset 24
 1381              		@ sp needed
 1382 0072 BDE8F081 		pop	{r4, r5, r6, r7, r8, pc}
 1383              		.cfi_endproc
 1384              	.LFE78:
 1385              		.size	xStreamBufferReceiveFromISR, .-xStreamBufferReceiveFromISR
 1386 0076 00BF     		.section	.text.xStreamBufferIsEmpty,"ax",%progbits
 1387              		.align	2
 1388              		.global	xStreamBufferIsEmpty
 1389              		.thumb
 1390              		.thumb_func
 1391              		.type	xStreamBufferIsEmpty, %function
 1392              	xStreamBufferIsEmpty:
 1393              	.LFB80:
1023:Generated_Source\PSoC5/RTOS_stream_buffer.c ****     const StreamBuffer_t * const pxStreamBuffer = xStreamBuffer;
 1394              		.loc 1 1023 0
 1395              		.cfi_startproc
 1396              		@ args = 0, pretend = 0, frame = 0
 1397              		@ frame_needed = 0, uses_anonymous_args = 0
 1398              		@ link register save eliminated.
 1399              	.LVL204:
1031:Generated_Source\PSoC5/RTOS_stream_buffer.c **** 
 1400              		.loc 1 1031 0
 1401 0000 0268     		ldr	r2, [r0]
 1402              	.LVL205:
1033:Generated_Source\PSoC5/RTOS_stream_buffer.c ****     {
 1403              		.loc 1 1033 0
 1404 0002 4368     		ldr	r3, [r0, #4]
 1405 0004 9A42     		cmp	r2, r3
 1406 0006 01D1     		bne	.L95
1035:Generated_Source\PSoC5/RTOS_stream_buffer.c ****     }
 1407              		.loc 1 1035 0
 1408 0008 0120     		movs	r0, #1
 1409              	.LVL206:
 1410 000a 7047     		bx	lr
 1411              	.LVL207:
 1412              	.L95:
1039:Generated_Source\PSoC5/RTOS_stream_buffer.c ****     }
 1413              		.loc 1 1039 0
 1414 000c 0020     		movs	r0, #0
 1415              	.LVL208:
1043:Generated_Source\PSoC5/RTOS_stream_buffer.c **** /*-----------------------------------------------------------*/
ARM GAS  C:\Users\df16\AppData\Local\Temp\ccjld08w.s 			page 56


 1416              		.loc 1 1043 0
 1417 000e 7047     		bx	lr
 1418              		.cfi_endproc
 1419              	.LFE80:
 1420              		.size	xStreamBufferIsEmpty, .-xStreamBufferIsEmpty
 1421              		.section	.text.xStreamBufferIsFull,"ax",%progbits
 1422              		.align	2
 1423              		.global	xStreamBufferIsFull
 1424              		.thumb
 1425              		.thumb_func
 1426              		.type	xStreamBufferIsFull, %function
 1427              	xStreamBufferIsFull:
 1428              	.LFB81:
1047:Generated_Source\PSoC5/RTOS_stream_buffer.c ****     BaseType_t xReturn;
 1429              		.loc 1 1047 0
 1430              		.cfi_startproc
 1431              		@ args = 0, pretend = 0, frame = 0
 1432              		@ frame_needed = 0, uses_anonymous_args = 0
 1433              	.LVL209:
 1434 0000 10B5     		push	{r4, lr}
 1435              		.cfi_def_cfa_offset 8
 1436              		.cfi_offset 4, -8
 1437              		.cfi_offset 14, -4
 1438              	.LVL210:
1058:Generated_Source\PSoC5/RTOS_stream_buffer.c ****     {
 1439              		.loc 1 1058 0
 1440 0002 037F     		ldrb	r3, [r0, #28]	@ zero_extendqisi2
 1441 0004 13F0010F 		tst	r3, #1
 1442 0008 01D0     		beq	.L99
1060:Generated_Source\PSoC5/RTOS_stream_buffer.c ****     }
 1443              		.loc 1 1060 0
 1444 000a 0424     		movs	r4, #4
 1445 000c 00E0     		b	.L97
 1446              	.L99:
1064:Generated_Source\PSoC5/RTOS_stream_buffer.c ****     }
 1447              		.loc 1 1064 0
 1448 000e 0024     		movs	r4, #0
 1449              	.L97:
 1450              	.LVL211:
1068:Generated_Source\PSoC5/RTOS_stream_buffer.c ****     {
 1451              		.loc 1 1068 0
 1452 0010 FFF7FEFF 		bl	xStreamBufferSpacesAvailable
 1453              	.LVL212:
 1454 0014 8442     		cmp	r4, r0
 1455 0016 01D3     		bcc	.L100
1070:Generated_Source\PSoC5/RTOS_stream_buffer.c ****     }
 1456              		.loc 1 1070 0
 1457 0018 0120     		movs	r0, #1
 1458 001a 10BD     		pop	{r4, pc}
 1459              	.LVL213:
 1460              	.L100:
1074:Generated_Source\PSoC5/RTOS_stream_buffer.c ****     }
 1461              		.loc 1 1074 0
 1462 001c 0020     		movs	r0, #0
 1463              	.LVL214:
1078:Generated_Source\PSoC5/RTOS_stream_buffer.c **** /*-----------------------------------------------------------*/
 1464              		.loc 1 1078 0
ARM GAS  C:\Users\df16\AppData\Local\Temp\ccjld08w.s 			page 57


 1465 001e 10BD     		pop	{r4, pc}
 1466              		.cfi_endproc
 1467              	.LFE81:
 1468              		.size	xStreamBufferIsFull, .-xStreamBufferIsFull
 1469              		.section	.text.xStreamBufferSendCompletedFromISR,"ax",%progbits
 1470              		.align	2
 1471              		.global	xStreamBufferSendCompletedFromISR
 1472              		.thumb
 1473              		.thumb_func
 1474              		.type	xStreamBufferSendCompletedFromISR, %function
 1475              	xStreamBufferSendCompletedFromISR:
 1476              	.LFB82:
1083:Generated_Source\PSoC5/RTOS_stream_buffer.c ****     StreamBuffer_t * const pxStreamBuffer = xStreamBuffer;
 1477              		.loc 1 1083 0
 1478              		.cfi_startproc
 1479              		@ args = 0, pretend = 0, frame = 0
 1480              		@ frame_needed = 0, uses_anonymous_args = 0
 1481              	.LVL215:
 1482 0000 70B5     		push	{r4, r5, r6, lr}
 1483              		.cfi_def_cfa_offset 16
 1484              		.cfi_offset 4, -16
 1485              		.cfi_offset 5, -12
 1486              		.cfi_offset 6, -8
 1487              		.cfi_offset 14, -4
 1488 0002 82B0     		sub	sp, sp, #8
 1489              		.cfi_def_cfa_offset 24
 1490              	.LVL216:
 1491              	.LBB30:
 1492              	.LBB31:
 215:g:\project\psocwagen\psoc\ucll_koen_lib.cylib\myfreertos\source\portable\gcc\arm_cm3\portmacro.h ****         (
 1493              		.loc 2 215 0
 1494              		.syntax unified
 1495              	@ 215 "g:\project\psocwagen\psoc\ucll_koen_lib.cylib\myfreertos\source\portable\gcc\arm_cm3\portmac
 1496 0004 EFF31186 			mrs r6, basepri											
 1497 0008 4FF00403 		mov r3, #4												
 1498 000c 83F31188 		msr basepri, r3											
 1499 0010 BFF36F8F 		isb														
 1500 0014 BFF34F8F 		dsb														
 1501              	
 1502              	@ 0 "" 2
 1503              		.thumb
 1504              		.syntax unified
 1505              	.LBE31:
 1506              	.LBE30:
1092:Generated_Source\PSoC5/RTOS_stream_buffer.c ****         {
 1507              		.loc 1 1092 0
 1508 0018 0369     		ldr	r3, [r0, #16]
 1509 001a 63B1     		cbz	r3, .L104
 1510 001c 0446     		mov	r4, r0
1094:Generated_Source\PSoC5/RTOS_stream_buffer.c ****                                          ( uint32_t ) 0,
 1511              		.loc 1 1094 0
 1512 001e 0069     		ldr	r0, [r0, #16]
 1513              	.LVL217:
 1514 0020 0191     		str	r1, [sp, #4]
 1515 0022 0025     		movs	r5, #0
 1516 0024 0095     		str	r5, [sp]
 1517 0026 2B46     		mov	r3, r5
ARM GAS  C:\Users\df16\AppData\Local\Temp\ccjld08w.s 			page 58


 1518 0028 2A46     		mov	r2, r5
 1519 002a 2946     		mov	r1, r5
 1520              	.LVL218:
 1521 002c FFF7FEFF 		bl	xTaskGenericNotifyFromISR
 1522              	.LVL219:
1098:Generated_Source\PSoC5/RTOS_stream_buffer.c ****             xReturn = pdTRUE;
 1523              		.loc 1 1098 0
 1524 0030 2561     		str	r5, [r4, #16]
 1525              	.LVL220:
1099:Generated_Source\PSoC5/RTOS_stream_buffer.c ****         }
 1526              		.loc 1 1099 0
 1527 0032 0120     		movs	r0, #1
 1528 0034 00E0     		b	.L103
 1529              	.LVL221:
 1530              	.L104:
1103:Generated_Source\PSoC5/RTOS_stream_buffer.c ****         }
 1531              		.loc 1 1103 0
 1532 0036 0020     		movs	r0, #0
 1533              	.LVL222:
 1534              	.L103:
 1535              	.LBB32:
 1536              	.LBB33:
 1537              		.loc 2 233 0
 1538              		.syntax unified
 1539              	@ 233 "g:\project\psocwagen\psoc\ucll_koen_lib.cylib\myfreertos\source\portable\gcc\arm_cm3\portmac
 1540 0038 86F31188 			msr basepri, r6	
 1541              	@ 0 "" 2
 1542              	.LVL223:
 1543              		.thumb
 1544              		.syntax unified
 1545              	.LBE33:
 1546              	.LBE32:
1109:Generated_Source\PSoC5/RTOS_stream_buffer.c **** /*-----------------------------------------------------------*/
 1547              		.loc 1 1109 0
 1548 003c 02B0     		add	sp, sp, #8
 1549              		.cfi_def_cfa_offset 16
 1550              		@ sp needed
 1551 003e 70BD     		pop	{r4, r5, r6, pc}
 1552              		.cfi_endproc
 1553              	.LFE82:
 1554              		.size	xStreamBufferSendCompletedFromISR, .-xStreamBufferSendCompletedFromISR
 1555              		.section	.text.xStreamBufferReceiveCompletedFromISR,"ax",%progbits
 1556              		.align	2
 1557              		.global	xStreamBufferReceiveCompletedFromISR
 1558              		.thumb
 1559              		.thumb_func
 1560              		.type	xStreamBufferReceiveCompletedFromISR, %function
 1561              	xStreamBufferReceiveCompletedFromISR:
 1562              	.LFB83:
1114:Generated_Source\PSoC5/RTOS_stream_buffer.c ****     StreamBuffer_t * const pxStreamBuffer = xStreamBuffer;
 1563              		.loc 1 1114 0
 1564              		.cfi_startproc
 1565              		@ args = 0, pretend = 0, frame = 0
 1566              		@ frame_needed = 0, uses_anonymous_args = 0
 1567              	.LVL224:
 1568 0000 70B5     		push	{r4, r5, r6, lr}
 1569              		.cfi_def_cfa_offset 16
ARM GAS  C:\Users\df16\AppData\Local\Temp\ccjld08w.s 			page 59


 1570              		.cfi_offset 4, -16
 1571              		.cfi_offset 5, -12
 1572              		.cfi_offset 6, -8
 1573              		.cfi_offset 14, -4
 1574 0002 82B0     		sub	sp, sp, #8
 1575              		.cfi_def_cfa_offset 24
 1576              	.LVL225:
 1577              	.LBB34:
 1578              	.LBB35:
 215:g:\project\psocwagen\psoc\ucll_koen_lib.cylib\myfreertos\source\portable\gcc\arm_cm3\portmacro.h ****         (
 1579              		.loc 2 215 0
 1580              		.syntax unified
 1581              	@ 215 "g:\project\psocwagen\psoc\ucll_koen_lib.cylib\myfreertos\source\portable\gcc\arm_cm3\portmac
 1582 0004 EFF31186 			mrs r6, basepri											
 1583 0008 4FF00403 		mov r3, #4												
 1584 000c 83F31188 		msr basepri, r3											
 1585 0010 BFF36F8F 		isb														
 1586 0014 BFF34F8F 		dsb														
 1587              	
 1588              	@ 0 "" 2
 1589              		.thumb
 1590              		.syntax unified
 1591              	.LBE35:
 1592              	.LBE34:
1123:Generated_Source\PSoC5/RTOS_stream_buffer.c ****         {
 1593              		.loc 1 1123 0
 1594 0018 4369     		ldr	r3, [r0, #20]
 1595 001a 63B1     		cbz	r3, .L108
 1596 001c 0446     		mov	r4, r0
1125:Generated_Source\PSoC5/RTOS_stream_buffer.c ****                                          ( uint32_t ) 0,
 1597              		.loc 1 1125 0
 1598 001e 4069     		ldr	r0, [r0, #20]
 1599              	.LVL226:
 1600 0020 0191     		str	r1, [sp, #4]
 1601 0022 0025     		movs	r5, #0
 1602 0024 0095     		str	r5, [sp]
 1603 0026 2B46     		mov	r3, r5
 1604 0028 2A46     		mov	r2, r5
 1605 002a 2946     		mov	r1, r5
 1606              	.LVL227:
 1607 002c FFF7FEFF 		bl	xTaskGenericNotifyFromISR
 1608              	.LVL228:
1129:Generated_Source\PSoC5/RTOS_stream_buffer.c ****             xReturn = pdTRUE;
 1609              		.loc 1 1129 0
 1610 0030 6561     		str	r5, [r4, #20]
 1611              	.LVL229:
1130:Generated_Source\PSoC5/RTOS_stream_buffer.c ****         }
 1612              		.loc 1 1130 0
 1613 0032 0120     		movs	r0, #1
 1614 0034 00E0     		b	.L107
 1615              	.LVL230:
 1616              	.L108:
1134:Generated_Source\PSoC5/RTOS_stream_buffer.c ****         }
 1617              		.loc 1 1134 0
 1618 0036 0020     		movs	r0, #0
 1619              	.LVL231:
 1620              	.L107:
ARM GAS  C:\Users\df16\AppData\Local\Temp\ccjld08w.s 			page 60


 1621              	.LBB36:
 1622              	.LBB37:
 1623              		.loc 2 233 0
 1624              		.syntax unified
 1625              	@ 233 "g:\project\psocwagen\psoc\ucll_koen_lib.cylib\myfreertos\source\portable\gcc\arm_cm3\portmac
 1626 0038 86F31188 			msr basepri, r6	
 1627              	@ 0 "" 2
 1628              	.LVL232:
 1629              		.thumb
 1630              		.syntax unified
 1631              	.LBE37:
 1632              	.LBE36:
1140:Generated_Source\PSoC5/RTOS_stream_buffer.c **** /*-----------------------------------------------------------*/
 1633              		.loc 1 1140 0
 1634 003c 02B0     		add	sp, sp, #8
 1635              		.cfi_def_cfa_offset 16
 1636              		@ sp needed
 1637 003e 70BD     		pop	{r4, r5, r6, pc}
 1638              		.cfi_endproc
 1639              	.LFE83:
 1640              		.size	xStreamBufferReceiveCompletedFromISR, .-xStreamBufferReceiveCompletedFromISR
 1641              		.text
 1642              	.Letext0:
 1643              		.file 3 "c:\\program files (x86)\\cypress\\psoc creator\\4.4\\psoc creator\\import\\gnu\\arm\\5.4.
 1644              		.file 4 "c:\\program files (x86)\\cypress\\psoc creator\\4.4\\psoc creator\\import\\gnu\\arm\\5.4.
 1645              		.file 5 "c:\\program files (x86)\\cypress\\psoc creator\\4.4\\psoc creator\\import\\gnu\\arm\\5.4.
 1646              		.file 6 "..\\..\\UCLL_Koen_lib.cylib\\myFreeRTOS\\Source\\include/task.h"
 1647              		.file 7 "..\\..\\UCLL_Koen_lib.cylib\\myFreeRTOS\\Source\\include/stream_buffer.h"
 1648              		.file 8 "..\\..\\UCLL_Koen_lib.cylib\\myFreeRTOS\\Source\\include/portable.h"
 1649              		.file 9 "Generated_Source\\PSoC5/core_cm3.h"
 1650              		.section	.debug_info,"",%progbits
 1651              	.Ldebug_info0:
 1652 0000 D3120000 		.4byte	0x12d3
 1653 0004 0400     		.2byte	0x4
 1654 0006 00000000 		.4byte	.Ldebug_abbrev0
 1655 000a 04       		.byte	0x4
 1656 000b 01       		.uleb128 0x1
 1657 000c 6C070000 		.4byte	.LASF113
 1658 0010 0C       		.byte	0xc
 1659 0011 63030000 		.4byte	.LASF114
 1660 0015 9B030000 		.4byte	.LASF115
 1661 0019 00000000 		.4byte	.Ldebug_ranges0+0
 1662 001d 00000000 		.4byte	0
 1663 0021 00000000 		.4byte	.Ldebug_line0
 1664 0025 02       		.uleb128 0x2
 1665 0026 01       		.byte	0x1
 1666 0027 06       		.byte	0x6
 1667 0028 48040000 		.4byte	.LASF0
 1668 002c 03       		.uleb128 0x3
 1669 002d 69080000 		.4byte	.LASF4
 1670 0031 03       		.byte	0x3
 1671 0032 1D       		.byte	0x1d
 1672 0033 37000000 		.4byte	0x37
 1673 0037 02       		.uleb128 0x2
 1674 0038 01       		.byte	0x1
 1675 0039 08       		.byte	0x8
 1676 003a D7030000 		.4byte	.LASF1
ARM GAS  C:\Users\df16\AppData\Local\Temp\ccjld08w.s 			page 61


 1677 003e 02       		.uleb128 0x2
 1678 003f 02       		.byte	0x2
 1679 0040 05       		.byte	0x5
 1680 0041 E7000000 		.4byte	.LASF2
 1681 0045 02       		.uleb128 0x2
 1682 0046 02       		.byte	0x2
 1683 0047 07       		.byte	0x7
 1684 0048 0F050000 		.4byte	.LASF3
 1685 004c 03       		.uleb128 0x3
 1686 004d AF060000 		.4byte	.LASF5
 1687 0051 03       		.byte	0x3
 1688 0052 3F       		.byte	0x3f
 1689 0053 57000000 		.4byte	0x57
 1690 0057 02       		.uleb128 0x2
 1691 0058 04       		.byte	0x4
 1692 0059 05       		.byte	0x5
 1693 005a C0020000 		.4byte	.LASF6
 1694 005e 03       		.uleb128 0x3
 1695 005f 89010000 		.4byte	.LASF7
 1696 0063 03       		.byte	0x3
 1697 0064 41       		.byte	0x41
 1698 0065 69000000 		.4byte	0x69
 1699 0069 02       		.uleb128 0x2
 1700 006a 04       		.byte	0x4
 1701 006b 07       		.byte	0x7
 1702 006c F0050000 		.4byte	.LASF8
 1703 0070 02       		.uleb128 0x2
 1704 0071 08       		.byte	0x8
 1705 0072 05       		.byte	0x5
 1706 0073 6C020000 		.4byte	.LASF9
 1707 0077 02       		.uleb128 0x2
 1708 0078 08       		.byte	0x8
 1709 0079 07       		.byte	0x7
 1710 007a 71040000 		.4byte	.LASF10
 1711 007e 04       		.uleb128 0x4
 1712 007f 04       		.byte	0x4
 1713 0080 05       		.byte	0x5
 1714 0081 696E7400 		.ascii	"int\000"
 1715 0085 02       		.uleb128 0x2
 1716 0086 04       		.byte	0x4
 1717 0087 07       		.byte	0x7
 1718 0088 C3040000 		.4byte	.LASF11
 1719 008c 03       		.uleb128 0x3
 1720 008d E1060000 		.4byte	.LASF12
 1721 0091 04       		.byte	0x4
 1722 0092 18       		.byte	0x18
 1723 0093 2C000000 		.4byte	0x2c
 1724 0097 03       		.uleb128 0x3
 1725 0098 70050000 		.4byte	.LASF13
 1726 009c 04       		.byte	0x4
 1727 009d 2C       		.byte	0x2c
 1728 009e 4C000000 		.4byte	0x4c
 1729 00a2 03       		.uleb128 0x3
 1730 00a3 A1040000 		.4byte	.LASF14
 1731 00a7 04       		.byte	0x4
 1732 00a8 30       		.byte	0x30
 1733 00a9 5E000000 		.4byte	0x5e
ARM GAS  C:\Users\df16\AppData\Local\Temp\ccjld08w.s 			page 62


 1734 00ad 03       		.uleb128 0x3
 1735 00ae F1000000 		.4byte	.LASF15
 1736 00b2 05       		.byte	0x5
 1737 00b3 D8       		.byte	0xd8
 1738 00b4 85000000 		.4byte	0x85
 1739 00b8 02       		.uleb128 0x2
 1740 00b9 08       		.byte	0x8
 1741 00ba 04       		.byte	0x4
 1742 00bb 8F030000 		.4byte	.LASF16
 1743 00bf 02       		.uleb128 0x2
 1744 00c0 04       		.byte	0x4
 1745 00c1 07       		.byte	0x7
 1746 00c2 15010000 		.4byte	.LASF17
 1747 00c6 05       		.uleb128 0x5
 1748 00c7 04       		.byte	0x4
 1749 00c8 02       		.uleb128 0x2
 1750 00c9 01       		.byte	0x1
 1751 00ca 08       		.byte	0x8
 1752 00cb 54050000 		.4byte	.LASF18
 1753 00cf 02       		.uleb128 0x2
 1754 00d0 04       		.byte	0x4
 1755 00d1 04       		.byte	0x4
 1756 00d2 59020000 		.4byte	.LASF19
 1757 00d6 02       		.uleb128 0x2
 1758 00d7 08       		.byte	0x8
 1759 00d8 04       		.byte	0x4
 1760 00d9 33070000 		.4byte	.LASF20
 1761 00dd 03       		.uleb128 0x3
 1762 00de D0040000 		.4byte	.LASF21
 1763 00e2 02       		.byte	0x2
 1764 00e3 38       		.byte	0x38
 1765 00e4 57000000 		.4byte	0x57
 1766 00e8 03       		.uleb128 0x3
 1767 00e9 1D060000 		.4byte	.LASF22
 1768 00ed 02       		.byte	0x2
 1769 00ee 39       		.byte	0x39
 1770 00ef 69000000 		.4byte	0x69
 1771 00f3 03       		.uleb128 0x3
 1772 00f4 F5040000 		.4byte	.LASF23
 1773 00f8 02       		.byte	0x2
 1774 00f9 3F       		.byte	0x3f
 1775 00fa A2000000 		.4byte	0xa2
 1776 00fe 06       		.uleb128 0x6
 1777 00ff 04       		.byte	0x4
 1778 0100 8C000000 		.4byte	0x8c
 1779 0104 03       		.uleb128 0x3
 1780 0105 2A010000 		.4byte	.LASF24
 1781 0109 06       		.byte	0x6
 1782 010a 4E       		.byte	0x4e
 1783 010b 0F010000 		.4byte	0x10f
 1784 010f 06       		.uleb128 0x6
 1785 0110 04       		.byte	0x4
 1786 0111 15010000 		.4byte	0x115
 1787 0115 07       		.uleb128 0x7
 1788 0116 EC020000 		.4byte	.LASF116
 1789 011a 08       		.uleb128 0x8
 1790 011b 01       		.byte	0x1
ARM GAS  C:\Users\df16\AppData\Local\Temp\ccjld08w.s 			page 63


 1791 011c 37000000 		.4byte	0x37
 1792 0120 06       		.byte	0x6
 1793 0121 63       		.byte	0x63
 1794 0122 45010000 		.4byte	0x145
 1795 0126 09       		.uleb128 0x9
 1796 0127 32000000 		.4byte	.LASF25
 1797 012b 00       		.byte	0
 1798 012c 09       		.uleb128 0x9
 1799 012d 42020000 		.4byte	.LASF26
 1800 0131 01       		.byte	0x1
 1801 0132 09       		.uleb128 0x9
 1802 0133 5E080000 		.4byte	.LASF27
 1803 0137 02       		.byte	0x2
 1804 0138 09       		.uleb128 0x9
 1805 0139 59050000 		.4byte	.LASF28
 1806 013d 03       		.byte	0x3
 1807 013e 09       		.uleb128 0x9
 1808 013f 95060000 		.4byte	.LASF29
 1809 0143 04       		.byte	0x4
 1810 0144 00       		.byte	0
 1811 0145 0A       		.uleb128 0xa
 1812 0146 AC000000 		.4byte	.LASF34
 1813 014a 08       		.byte	0x8
 1814 014b 06       		.byte	0x6
 1815 014c 6E       		.byte	0x6e
 1816 014d 6A010000 		.4byte	0x16a
 1817 0151 0B       		.uleb128 0xb
 1818 0152 06040000 		.4byte	.LASF30
 1819 0156 06       		.byte	0x6
 1820 0157 70       		.byte	0x70
 1821 0158 DD000000 		.4byte	0xdd
 1822 015c 00       		.byte	0
 1823 015d 0B       		.uleb128 0xb
 1824 015e E5030000 		.4byte	.LASF31
 1825 0162 06       		.byte	0x6
 1826 0163 71       		.byte	0x71
 1827 0164 F3000000 		.4byte	0xf3
 1828 0168 04       		.byte	0x4
 1829 0169 00       		.byte	0
 1830 016a 03       		.uleb128 0x3
 1831 016b DD000000 		.4byte	.LASF32
 1832 016f 06       		.byte	0x6
 1833 0170 72       		.byte	0x72
 1834 0171 45010000 		.4byte	0x145
 1835 0175 03       		.uleb128 0x3
 1836 0176 CC060000 		.4byte	.LASF33
 1837 017a 07       		.byte	0x7
 1838 017b 46       		.byte	0x46
 1839 017c 80010000 		.4byte	0x180
 1840 0180 06       		.uleb128 0x6
 1841 0181 04       		.byte	0x4
 1842 0182 86010000 		.4byte	0x186
 1843 0186 0A       		.uleb128 0xa
 1844 0187 CB000000 		.4byte	.LASF35
 1845 018b 20       		.byte	0x20
 1846 018c 01       		.byte	0x1
 1847 018d 8C       		.byte	0x8c
ARM GAS  C:\Users\df16\AppData\Local\Temp\ccjld08w.s 			page 64


 1848 018e F3010000 		.4byte	0x1f3
 1849 0192 0B       		.uleb128 0xb
 1850 0193 3F060000 		.4byte	.LASF36
 1851 0197 01       		.byte	0x1
 1852 0198 8E       		.byte	0x8e
 1853 0199 F3010000 		.4byte	0x1f3
 1854 019d 00       		.byte	0
 1855 019e 0B       		.uleb128 0xb
 1856 019f 2D070000 		.4byte	.LASF37
 1857 01a3 01       		.byte	0x1
 1858 01a4 8F       		.byte	0x8f
 1859 01a5 F3010000 		.4byte	0x1f3
 1860 01a9 04       		.byte	0x4
 1861 01aa 0B       		.uleb128 0xb
 1862 01ab CF030000 		.4byte	.LASF38
 1863 01af 01       		.byte	0x1
 1864 01b0 90       		.byte	0x90
 1865 01b1 AD000000 		.4byte	0xad
 1866 01b5 08       		.byte	0x8
 1867 01b6 0B       		.uleb128 0xb
 1868 01b7 C3050000 		.4byte	.LASF39
 1869 01bb 01       		.byte	0x1
 1870 01bc 91       		.byte	0x91
 1871 01bd AD000000 		.4byte	0xad
 1872 01c1 0C       		.byte	0xc
 1873 01c2 0B       		.uleb128 0xb
 1874 01c3 32040000 		.4byte	.LASF40
 1875 01c7 01       		.byte	0x1
 1876 01c8 92       		.byte	0x92
 1877 01c9 F8010000 		.4byte	0x1f8
 1878 01cd 10       		.byte	0x10
 1879 01ce 0B       		.uleb128 0xb
 1880 01cf B9060000 		.4byte	.LASF41
 1881 01d3 01       		.byte	0x1
 1882 01d4 93       		.byte	0x93
 1883 01d5 F8010000 		.4byte	0x1f8
 1884 01d9 14       		.byte	0x14
 1885 01da 0B       		.uleb128 0xb
 1886 01db A5010000 		.4byte	.LASF42
 1887 01df 01       		.byte	0x1
 1888 01e0 94       		.byte	0x94
 1889 01e1 FE000000 		.4byte	0xfe
 1890 01e5 18       		.byte	0x18
 1891 01e6 0B       		.uleb128 0xb
 1892 01e7 DB040000 		.4byte	.LASF43
 1893 01eb 01       		.byte	0x1
 1894 01ec 95       		.byte	0x95
 1895 01ed 8C000000 		.4byte	0x8c
 1896 01f1 1C       		.byte	0x1c
 1897 01f2 00       		.byte	0
 1898 01f3 0C       		.uleb128 0xc
 1899 01f4 AD000000 		.4byte	0xad
 1900 01f8 0C       		.uleb128 0xc
 1901 01f9 04010000 		.4byte	0x104
 1902 01fd 03       		.uleb128 0x3
 1903 01fe 73080000 		.4byte	.LASF44
 1904 0202 01       		.byte	0x1
ARM GAS  C:\Users\df16\AppData\Local\Temp\ccjld08w.s 			page 65


 1905 0203 9A       		.byte	0x9a
 1906 0204 86010000 		.4byte	0x186
 1907 0208 0D       		.uleb128 0xd
 1908 0209 2F020000 		.4byte	.LASF117
 1909 020d 02       		.byte	0x2
 1910 020e D3       		.byte	0xd3
 1911 020f A2000000 		.4byte	0xa2
 1912 0213 03       		.byte	0x3
 1913 0214 2F020000 		.4byte	0x22f
 1914 0218 0E       		.uleb128 0xe
 1915 0219 20000000 		.4byte	.LASF45
 1916 021d 02       		.byte	0x2
 1917 021e D5       		.byte	0xd5
 1918 021f A2000000 		.4byte	0xa2
 1919 0223 0E       		.uleb128 0xe
 1920 0224 57000000 		.4byte	.LASF46
 1921 0228 02       		.byte	0x2
 1922 0229 D5       		.byte	0xd5
 1923 022a A2000000 		.4byte	0xa2
 1924 022e 00       		.byte	0
 1925 022f 0F       		.uleb128 0xf
 1926 0230 44050000 		.4byte	.LASF118
 1927 0234 02       		.byte	0x2
 1928 0235 E7       		.byte	0xe7
 1929 0236 03       		.byte	0x3
 1930 0237 47020000 		.4byte	0x247
 1931 023b 10       		.uleb128 0x10
 1932 023c 35050000 		.4byte	.LASF119
 1933 0240 02       		.byte	0x2
 1934 0241 E7       		.byte	0xe7
 1935 0242 A2000000 		.4byte	0xa2
 1936 0246 00       		.byte	0
 1937 0247 11       		.uleb128 0x11
 1938 0248 B2050000 		.4byte	.LASF49
 1939 024c 01       		.byte	0x1
 1940 024d E204     		.2byte	0x4e2
 1941 024f AD000000 		.4byte	0xad
 1942 0253 00000000 		.4byte	.LFB86
 1943 0257 12000000 		.4byte	.LFE86-.LFB86
 1944 025b 01       		.uleb128 0x1
 1945 025c 9C       		.byte	0x9c
 1946 025d 82020000 		.4byte	0x282
 1947 0261 12       		.uleb128 0x12
 1948 0262 3C030000 		.4byte	.LASF47
 1949 0266 01       		.byte	0x1
 1950 0267 E204     		.2byte	0x4e2
 1951 0269 8D020000 		.4byte	0x28d
 1952 026d 00000000 		.4byte	.LLST0
 1953 0271 13       		.uleb128 0x13
 1954 0272 C9010000 		.4byte	.LASF52
 1955 0276 01       		.byte	0x1
 1956 0277 E504     		.2byte	0x4e5
 1957 0279 AD000000 		.4byte	0xad
 1958 027d 21000000 		.4byte	.LLST1
 1959 0281 00       		.byte	0
 1960 0282 06       		.uleb128 0x6
 1961 0283 04       		.byte	0x4
ARM GAS  C:\Users\df16\AppData\Local\Temp\ccjld08w.s 			page 66


 1962 0284 88020000 		.4byte	0x288
 1963 0288 14       		.uleb128 0x14
 1964 0289 FD010000 		.4byte	0x1fd
 1965 028d 14       		.uleb128 0x14
 1966 028e 82020000 		.4byte	0x282
 1967 0292 15       		.uleb128 0x15
 1968 0293 F8000000 		.4byte	.LASF120
 1969 0297 01       		.byte	0x1
 1970 0298 F704     		.2byte	0x4f7
 1971 029a 00000000 		.4byte	.LFB87
 1972 029e 20000000 		.4byte	.LFE87-.LFB87
 1973 02a2 01       		.uleb128 0x1
 1974 02a3 9C       		.byte	0x9c
 1975 02a4 13030000 		.4byte	0x313
 1976 02a8 12       		.uleb128 0x12
 1977 02a9 3C030000 		.4byte	.LASF47
 1978 02ad 01       		.byte	0x1
 1979 02ae F704     		.2byte	0x4f7
 1980 02b0 19030000 		.4byte	0x319
 1981 02b4 3F000000 		.4byte	.LLST2
 1982 02b8 12       		.uleb128 0x12
 1983 02b9 A5010000 		.4byte	.LASF42
 1984 02bd 01       		.byte	0x1
 1985 02be F804     		.2byte	0x4f8
 1986 02c0 1E030000 		.4byte	0x31e
 1987 02c4 5D000000 		.4byte	.LLST3
 1988 02c8 12       		.uleb128 0x12
 1989 02c9 F5030000 		.4byte	.LASF48
 1990 02cd 01       		.byte	0x1
 1991 02ce F904     		.2byte	0x4f9
 1992 02d0 AD000000 		.4byte	0xad
 1993 02d4 7B000000 		.4byte	.LLST4
 1994 02d8 12       		.uleb128 0x12
 1995 02d9 C3050000 		.4byte	.LASF39
 1996 02dd 01       		.byte	0x1
 1997 02de FA04     		.2byte	0x4fa
 1998 02e0 AD000000 		.4byte	0xad
 1999 02e4 99000000 		.4byte	.LLST5
 2000 02e8 16       		.uleb128 0x16
 2001 02e9 DB040000 		.4byte	.LASF43
 2002 02ed 01       		.byte	0x1
 2003 02ee FB04     		.2byte	0x4fb
 2004 02f0 8C000000 		.4byte	0x8c
 2005 02f4 02       		.uleb128 0x2
 2006 02f5 91       		.byte	0x91
 2007 02f6 00       		.sleb128 0
 2008 02f7 17       		.uleb128 0x17
 2009 02f8 12000000 		.4byte	.LVL8
 2010 02fc 2C120000 		.4byte	0x122c
 2011 0300 18       		.uleb128 0x18
 2012 0301 01       		.uleb128 0x1
 2013 0302 50       		.byte	0x50
 2014 0303 02       		.uleb128 0x2
 2015 0304 74       		.byte	0x74
 2016 0305 00       		.sleb128 0
 2017 0306 18       		.uleb128 0x18
 2018 0307 01       		.uleb128 0x1
ARM GAS  C:\Users\df16\AppData\Local\Temp\ccjld08w.s 			page 67


 2019 0308 51       		.byte	0x51
 2020 0309 01       		.uleb128 0x1
 2021 030a 30       		.byte	0x30
 2022 030b 18       		.uleb128 0x18
 2023 030c 01       		.uleb128 0x1
 2024 030d 52       		.byte	0x52
 2025 030e 02       		.uleb128 0x2
 2026 030f 08       		.byte	0x8
 2027 0310 20       		.byte	0x20
 2028 0311 00       		.byte	0
 2029 0312 00       		.byte	0
 2030 0313 06       		.uleb128 0x6
 2031 0314 04       		.byte	0x4
 2032 0315 FD010000 		.4byte	0x1fd
 2033 0319 14       		.uleb128 0x14
 2034 031a 13030000 		.4byte	0x313
 2035 031e 14       		.uleb128 0x14
 2036 031f FE000000 		.4byte	0xfe
 2037 0323 11       		.uleb128 0x11
 2038 0324 29060000 		.4byte	.LASF50
 2039 0328 01       		.byte	0x1
 2040 0329 7704     		.2byte	0x477
 2041 032b AD000000 		.4byte	0xad
 2042 032f 00000000 		.4byte	.LFB84
 2043 0333 42000000 		.4byte	.LFE84-.LFB84
 2044 0337 01       		.uleb128 0x1
 2045 0338 9C       		.byte	0x9c
 2046 0339 C2030000 		.4byte	0x3c2
 2047 033d 12       		.uleb128 0x12
 2048 033e 3C030000 		.4byte	.LASF47
 2049 0342 01       		.byte	0x1
 2050 0343 7704     		.2byte	0x477
 2051 0345 19030000 		.4byte	0x319
 2052 0349 B7000000 		.4byte	.LLST6
 2053 034d 12       		.uleb128 0x12
 2054 034e 14080000 		.4byte	.LASF51
 2055 0352 01       		.byte	0x1
 2056 0353 7804     		.2byte	0x478
 2057 0355 C2030000 		.4byte	0x3c2
 2058 0359 D5000000 		.4byte	.LLST7
 2059 035d 12       		.uleb128 0x12
 2060 035e C9010000 		.4byte	.LASF52
 2061 0362 01       		.byte	0x1
 2062 0363 7904     		.2byte	0x479
 2063 0365 AD000000 		.4byte	0xad
 2064 0369 F3000000 		.4byte	.LLST8
 2065 036d 13       		.uleb128 0x13
 2066 036e 7F010000 		.4byte	.LASF53
 2067 0372 01       		.byte	0x1
 2068 0373 7B04     		.2byte	0x47b
 2069 0375 AD000000 		.4byte	0xad
 2070 0379 11010000 		.4byte	.LLST9
 2071 037d 19       		.uleb128 0x19
 2072 037e D0010000 		.4byte	.LASF54
 2073 0382 01       		.byte	0x1
 2074 0383 7B04     		.2byte	0x47b
 2075 0385 AD000000 		.4byte	0xad
ARM GAS  C:\Users\df16\AppData\Local\Temp\ccjld08w.s 			page 68


 2076 0389 01       		.uleb128 0x1
 2077 038a 55       		.byte	0x55
 2078 038b 1A       		.uleb128 0x1a
 2079 038c 20000000 		.4byte	.LVL14
 2080 0390 35120000 		.4byte	0x1235
 2081 0394 A5030000 		.4byte	0x3a5
 2082 0398 18       		.uleb128 0x18
 2083 0399 01       		.uleb128 0x1
 2084 039a 51       		.byte	0x51
 2085 039b 02       		.uleb128 0x2
 2086 039c 78       		.byte	0x78
 2087 039d 00       		.sleb128 0
 2088 039e 18       		.uleb128 0x18
 2089 039f 01       		.uleb128 0x1
 2090 03a0 52       		.byte	0x52
 2091 03a1 02       		.uleb128 0x2
 2092 03a2 75       		.byte	0x75
 2093 03a3 00       		.sleb128 0
 2094 03a4 00       		.byte	0
 2095 03a5 17       		.uleb128 0x17
 2096 03a6 30000000 		.4byte	.LVL15
 2097 03aa 35120000 		.4byte	0x1235
 2098 03ae 18       		.uleb128 0x18
 2099 03af 01       		.uleb128 0x1
 2100 03b0 51       		.byte	0x51
 2101 03b1 05       		.uleb128 0x5
 2102 03b2 78       		.byte	0x78
 2103 03b3 00       		.sleb128 0
 2104 03b4 75       		.byte	0x75
 2105 03b5 00       		.sleb128 0
 2106 03b6 22       		.byte	0x22
 2107 03b7 18       		.uleb128 0x18
 2108 03b8 01       		.uleb128 0x1
 2109 03b9 52       		.byte	0x52
 2110 03ba 05       		.uleb128 0x5
 2111 03bb 77       		.byte	0x77
 2112 03bc 00       		.sleb128 0
 2113 03bd 75       		.byte	0x75
 2114 03be 00       		.sleb128 0
 2115 03bf 1C       		.byte	0x1c
 2116 03c0 00       		.byte	0
 2117 03c1 00       		.byte	0
 2118 03c2 06       		.uleb128 0x6
 2119 03c3 04       		.byte	0x4
 2120 03c4 C8030000 		.4byte	0x3c8
 2121 03c8 14       		.uleb128 0x14
 2122 03c9 8C000000 		.4byte	0x8c
 2123 03cd 11       		.uleb128 0x11
 2124 03ce 4B030000 		.4byte	.LASF55
 2125 03d2 01       		.byte	0x1
 2126 03d3 C802     		.2byte	0x2c8
 2127 03d5 AD000000 		.4byte	0xad
 2128 03d9 00000000 		.4byte	.LFB75
 2129 03dd 52000000 		.4byte	.LFE75-.LFB75
 2130 03e1 01       		.uleb128 0x1
 2131 03e2 9C       		.byte	0x9c
 2132 03e3 86040000 		.4byte	0x486
ARM GAS  C:\Users\df16\AppData\Local\Temp\ccjld08w.s 			page 69


 2133 03e7 12       		.uleb128 0x12
 2134 03e8 3C030000 		.4byte	.LASF47
 2135 03ec 01       		.byte	0x1
 2136 03ed C802     		.2byte	0x2c8
 2137 03ef 19030000 		.4byte	0x319
 2138 03f3 2F010000 		.4byte	.LLST10
 2139 03f7 12       		.uleb128 0x12
 2140 03f8 38080000 		.4byte	.LASF56
 2141 03fc 01       		.byte	0x1
 2142 03fd C902     		.2byte	0x2c9
 2143 03ff 86040000 		.4byte	0x486
 2144 0403 63010000 		.4byte	.LLST11
 2145 0407 12       		.uleb128 0x12
 2146 0408 94010000 		.4byte	.LASF57
 2147 040c 01       		.byte	0x1
 2148 040d CA02     		.2byte	0x2ca
 2149 040f AD000000 		.4byte	0xad
 2150 0413 97010000 		.4byte	.LLST12
 2151 0417 12       		.uleb128 0x12
 2152 0418 D6050000 		.4byte	.LASF58
 2153 041c 01       		.byte	0x1
 2154 041d CB02     		.2byte	0x2cb
 2155 041f AD000000 		.4byte	0xad
 2156 0423 F2010000 		.4byte	.LLST13
 2157 0427 16       		.uleb128 0x16
 2158 0428 7A020000 		.4byte	.LASF59
 2159 042c 01       		.byte	0x1
 2160 042d CC02     		.2byte	0x2cc
 2161 042f AD000000 		.4byte	0xad
 2162 0433 02       		.uleb128 0x2
 2163 0434 91       		.byte	0x91
 2164 0435 00       		.sleb128 0
 2165 0436 13       		.uleb128 0x13
 2166 0437 00000000 		.4byte	.LASF60
 2167 043b 01       		.byte	0x1
 2168 043c CE02     		.2byte	0x2ce
 2169 043e DD000000 		.4byte	0xdd
 2170 0442 69020000 		.4byte	.LLST14
 2171 0446 13       		.uleb128 0x13
 2172 0447 0C030000 		.4byte	.LASF61
 2173 044b 01       		.byte	0x1
 2174 044c CF02     		.2byte	0x2cf
 2175 044e AD000000 		.4byte	0xad
 2176 0452 9F020000 		.4byte	.LLST15
 2177 0456 1A       		.uleb128 0x1a
 2178 0457 34000000 		.4byte	.LVL29
 2179 045b 23030000 		.4byte	0x323
 2180 045f 6F040000 		.4byte	0x46f
 2181 0463 18       		.uleb128 0x18
 2182 0464 01       		.uleb128 0x1
 2183 0465 51       		.byte	0x51
 2184 0466 02       		.uleb128 0x2
 2185 0467 91       		.byte	0x91
 2186 0468 6C       		.sleb128 -20
 2187 0469 18       		.uleb128 0x18
 2188 046a 01       		.uleb128 0x1
 2189 046b 52       		.byte	0x52
ARM GAS  C:\Users\df16\AppData\Local\Temp\ccjld08w.s 			page 70


 2190 046c 01       		.uleb128 0x1
 2191 046d 34       		.byte	0x34
 2192 046e 00       		.byte	0
 2193 046f 17       		.uleb128 0x17
 2194 0470 4A000000 		.4byte	.LVL34
 2195 0474 23030000 		.4byte	0x323
 2196 0478 18       		.uleb128 0x18
 2197 0479 01       		.uleb128 0x1
 2198 047a 50       		.byte	0x50
 2199 047b 02       		.uleb128 0x2
 2200 047c 74       		.byte	0x74
 2201 047d 00       		.sleb128 0
 2202 047e 18       		.uleb128 0x18
 2203 047f 01       		.uleb128 0x1
 2204 0480 51       		.byte	0x51
 2205 0481 02       		.uleb128 0x2
 2206 0482 75       		.byte	0x75
 2207 0483 00       		.sleb128 0
 2208 0484 00       		.byte	0
 2209 0485 00       		.byte	0
 2210 0486 06       		.uleb128 0x6
 2211 0487 04       		.byte	0x4
 2212 0488 8C040000 		.4byte	0x48c
 2213 048c 1B       		.uleb128 0x1b
 2214 048d 11       		.uleb128 0x11
 2215 048e 3A070000 		.4byte	.LASF62
 2216 0492 01       		.byte	0x1
 2217 0493 A804     		.2byte	0x4a8
 2218 0495 AD000000 		.4byte	0xad
 2219 0499 00000000 		.4byte	.LFB85
 2220 049d 4C000000 		.4byte	.LFE85-.LFB85
 2221 04a1 01       		.uleb128 0x1
 2222 04a2 9C       		.byte	0x9c
 2223 04a3 4E050000 		.4byte	0x54e
 2224 04a7 12       		.uleb128 0x12
 2225 04a8 3C030000 		.4byte	.LASF47
 2226 04ac 01       		.byte	0x1
 2227 04ad A804     		.2byte	0x4a8
 2228 04af 13030000 		.4byte	0x313
 2229 04b3 BD020000 		.4byte	.LLST16
 2230 04b7 12       		.uleb128 0x12
 2231 04b8 14080000 		.4byte	.LASF51
 2232 04bc 01       		.byte	0x1
 2233 04bd A904     		.2byte	0x4a9
 2234 04bf FE000000 		.4byte	0xfe
 2235 04c3 E9020000 		.4byte	.LLST17
 2236 04c7 12       		.uleb128 0x12
 2237 04c8 25020000 		.4byte	.LASF63
 2238 04cc 01       		.byte	0x1
 2239 04cd AA04     		.2byte	0x4aa
 2240 04cf AD000000 		.4byte	0xad
 2241 04d3 15030000 		.4byte	.LLST18
 2242 04d7 12       		.uleb128 0x12
 2243 04d8 5C010000 		.4byte	.LASF64
 2244 04dc 01       		.byte	0x1
 2245 04dd AB04     		.2byte	0x4ab
 2246 04df AD000000 		.4byte	0xad
ARM GAS  C:\Users\df16\AppData\Local\Temp\ccjld08w.s 			page 71


 2247 04e3 36030000 		.4byte	.LLST19
 2248 04e7 13       		.uleb128 0x13
 2249 04e8 C9010000 		.4byte	.LASF52
 2250 04ec 01       		.byte	0x1
 2251 04ed AD04     		.2byte	0x4ad
 2252 04ef AD000000 		.4byte	0xad
 2253 04f3 57030000 		.4byte	.LLST20
 2254 04f7 13       		.uleb128 0x13
 2255 04f8 D0010000 		.4byte	.LASF54
 2256 04fc 01       		.byte	0x1
 2257 04fd AD04     		.2byte	0x4ad
 2258 04ff AD000000 		.4byte	0xad
 2259 0503 75030000 		.4byte	.LLST21
 2260 0507 13       		.uleb128 0x13
 2261 0508 23070000 		.4byte	.LASF65
 2262 050c 01       		.byte	0x1
 2263 050d AD04     		.2byte	0x4ad
 2264 050f AD000000 		.4byte	0xad
 2265 0513 88030000 		.4byte	.LLST22
 2266 0517 1A       		.uleb128 0x1a
 2267 0518 2A000000 		.4byte	.LVL45
 2268 051c 35120000 		.4byte	0x1235
 2269 0520 31050000 		.4byte	0x531
 2270 0524 18       		.uleb128 0x18
 2271 0525 01       		.uleb128 0x1
 2272 0526 50       		.byte	0x50
 2273 0527 02       		.uleb128 0x2
 2274 0528 78       		.byte	0x78
 2275 0529 00       		.sleb128 0
 2276 052a 18       		.uleb128 0x18
 2277 052b 01       		.uleb128 0x1
 2278 052c 52       		.byte	0x52
 2279 052d 02       		.uleb128 0x2
 2280 052e 77       		.byte	0x77
 2281 052f 00       		.sleb128 0
 2282 0530 00       		.byte	0
 2283 0531 17       		.uleb128 0x17
 2284 0532 3A000000 		.4byte	.LVL46
 2285 0536 35120000 		.4byte	0x1235
 2286 053a 18       		.uleb128 0x18
 2287 053b 01       		.uleb128 0x1
 2288 053c 50       		.byte	0x50
 2289 053d 05       		.uleb128 0x5
 2290 053e 78       		.byte	0x78
 2291 053f 00       		.sleb128 0
 2292 0540 77       		.byte	0x77
 2293 0541 00       		.sleb128 0
 2294 0542 22       		.byte	0x22
 2295 0543 18       		.uleb128 0x18
 2296 0544 01       		.uleb128 0x1
 2297 0545 52       		.byte	0x52
 2298 0546 05       		.uleb128 0x5
 2299 0547 74       		.byte	0x74
 2300 0548 00       		.sleb128 0
 2301 0549 77       		.byte	0x77
 2302 054a 00       		.sleb128 0
 2303 054b 1C       		.byte	0x1c
ARM GAS  C:\Users\df16\AppData\Local\Temp\ccjld08w.s 			page 72


 2304 054c 00       		.byte	0
 2305 054d 00       		.byte	0
 2306 054e 11       		.uleb128 0x11
 2307 054f 88040000 		.4byte	.LASF66
 2308 0553 01       		.byte	0x1
 2309 0554 CA03     		.2byte	0x3ca
 2310 0556 AD000000 		.4byte	0xad
 2311 055a 00000000 		.4byte	.LFB79
 2312 055e 42000000 		.4byte	.LFE79-.LFB79
 2313 0562 01       		.uleb128 0x1
 2314 0563 9C       		.byte	0x9c
 2315 0564 3D060000 		.4byte	0x63d
 2316 0568 12       		.uleb128 0x12
 2317 0569 3C030000 		.4byte	.LASF47
 2318 056d 01       		.byte	0x1
 2319 056e CA03     		.2byte	0x3ca
 2320 0570 13030000 		.4byte	0x313
 2321 0574 9B030000 		.4byte	.LLST23
 2322 0578 12       		.uleb128 0x12
 2323 0579 00070000 		.4byte	.LASF67
 2324 057d 01       		.byte	0x1
 2325 057e CB03     		.2byte	0x3cb
 2326 0580 C6000000 		.4byte	0xc6
 2327 0584 B9030000 		.4byte	.LLST24
 2328 0588 12       		.uleb128 0x12
 2329 0589 0D000000 		.4byte	.LASF68
 2330 058d 01       		.byte	0x1
 2331 058e CC03     		.2byte	0x3cc
 2332 0590 AD000000 		.4byte	0xad
 2333 0594 D7030000 		.4byte	.LLST25
 2334 0598 12       		.uleb128 0x12
 2335 0599 5C010000 		.4byte	.LASF64
 2336 059d 01       		.byte	0x1
 2337 059e CD03     		.2byte	0x3cd
 2338 05a0 AD000000 		.4byte	0xad
 2339 05a4 1C040000 		.4byte	.LLST26
 2340 05a8 16       		.uleb128 0x16
 2341 05a9 02060000 		.4byte	.LASF69
 2342 05ad 01       		.byte	0x1
 2343 05ae CE03     		.2byte	0x3ce
 2344 05b0 AD000000 		.4byte	0xad
 2345 05b4 02       		.uleb128 0x2
 2346 05b5 91       		.byte	0x91
 2347 05b6 00       		.sleb128 0
 2348 05b7 13       		.uleb128 0x13
 2349 05b8 51070000 		.4byte	.LASF70
 2350 05bc 01       		.byte	0x1
 2351 05bd D003     		.2byte	0x3d0
 2352 05bf AD000000 		.4byte	0xad
 2353 05c3 3A040000 		.4byte	.LLST27
 2354 05c7 19       		.uleb128 0x19
 2355 05c8 15020000 		.4byte	.LASF71
 2356 05cc 01       		.byte	0x1
 2357 05cd D003     		.2byte	0x3d0
 2358 05cf AD000000 		.4byte	0xad
 2359 05d3 01       		.uleb128 0x1
 2360 05d4 50       		.byte	0x50
ARM GAS  C:\Users\df16\AppData\Local\Temp\ccjld08w.s 			page 73


 2361 05d5 13       		.uleb128 0x13
 2362 05d6 6C010000 		.4byte	.LASF72
 2363 05da 01       		.byte	0x1
 2364 05db D003     		.2byte	0x3d0
 2365 05dd AD000000 		.4byte	0xad
 2366 05e1 4D040000 		.4byte	.LLST28
 2367 05e5 19       		.uleb128 0x19
 2368 05e6 89050000 		.4byte	.LASF73
 2369 05ea 01       		.byte	0x1
 2370 05eb D103     		.2byte	0x3d1
 2371 05ed AD000000 		.4byte	0xad
 2372 05f1 02       		.uleb128 0x2
 2373 05f2 91       		.byte	0x91
 2374 05f3 5C       		.sleb128 -36
 2375 05f4 1A       		.uleb128 0x1a
 2376 05f5 1E000000 		.4byte	.LVL54
 2377 05f9 8D040000 		.4byte	0x48d
 2378 05fd 1A060000 		.4byte	0x61a
 2379 0601 18       		.uleb128 0x18
 2380 0602 01       		.uleb128 0x1
 2381 0603 50       		.byte	0x50
 2382 0604 02       		.uleb128 0x2
 2383 0605 75       		.byte	0x75
 2384 0606 00       		.sleb128 0
 2385 0607 18       		.uleb128 0x18
 2386 0608 01       		.uleb128 0x1
 2387 0609 51       		.byte	0x51
 2388 060a 02       		.uleb128 0x2
 2389 060b 91       		.byte	0x91
 2390 060c 5C       		.sleb128 -36
 2391 060d 18       		.uleb128 0x18
 2392 060e 01       		.uleb128 0x1
 2393 060f 52       		.byte	0x52
 2394 0610 02       		.uleb128 0x2
 2395 0611 77       		.byte	0x77
 2396 0612 00       		.sleb128 0
 2397 0613 18       		.uleb128 0x18
 2398 0614 01       		.uleb128 0x1
 2399 0615 53       		.byte	0x53
 2400 0616 02       		.uleb128 0x2
 2401 0617 74       		.byte	0x74
 2402 0618 00       		.sleb128 0
 2403 0619 00       		.byte	0
 2404 061a 17       		.uleb128 0x17
 2405 061b 3C000000 		.4byte	.LVL61
 2406 061f 8D040000 		.4byte	0x48d
 2407 0623 18       		.uleb128 0x18
 2408 0624 01       		.uleb128 0x1
 2409 0625 50       		.byte	0x50
 2410 0626 02       		.uleb128 0x2
 2411 0627 75       		.byte	0x75
 2412 0628 00       		.sleb128 0
 2413 0629 18       		.uleb128 0x18
 2414 062a 01       		.uleb128 0x1
 2415 062b 51       		.byte	0x51
 2416 062c 02       		.uleb128 0x2
 2417 062d 78       		.byte	0x78
ARM GAS  C:\Users\df16\AppData\Local\Temp\ccjld08w.s 			page 74


 2418 062e 00       		.sleb128 0
 2419 062f 18       		.uleb128 0x18
 2420 0630 01       		.uleb128 0x1
 2421 0631 52       		.byte	0x52
 2422 0632 02       		.uleb128 0x2
 2423 0633 76       		.byte	0x76
 2424 0634 00       		.sleb128 0
 2425 0635 18       		.uleb128 0x18
 2426 0636 01       		.uleb128 0x1
 2427 0637 53       		.byte	0x53
 2428 0638 02       		.uleb128 0x2
 2429 0639 74       		.byte	0x74
 2430 063a 00       		.sleb128 0
 2431 063b 00       		.byte	0
 2432 063c 00       		.byte	0
 2433 063d 1C       		.uleb128 0x1c
 2434 063e 3C000000 		.4byte	.LASF77
 2435 0642 01       		.byte	0x1
 2436 0643 DC       		.byte	0xdc
 2437 0644 75010000 		.4byte	0x175
 2438 0648 00000000 		.4byte	.LFB67
 2439 064c 34000000 		.4byte	.LFE67-.LFB67
 2440 0650 01       		.uleb128 0x1
 2441 0651 9C       		.byte	0x9c
 2442 0652 DD060000 		.4byte	0x6dd
 2443 0656 1D       		.uleb128 0x1d
 2444 0657 F5030000 		.4byte	.LASF48
 2445 065b 01       		.byte	0x1
 2446 065c DC       		.byte	0xdc
 2447 065d AD000000 		.4byte	0xad
 2448 0661 82040000 		.4byte	.LLST29
 2449 0665 1D       		.uleb128 0x1d
 2450 0666 C3050000 		.4byte	.LASF39
 2451 066a 01       		.byte	0x1
 2452 066b DD       		.byte	0xdd
 2453 066c AD000000 		.4byte	0xad
 2454 0670 A0040000 		.4byte	.LLST30
 2455 0674 1D       		.uleb128 0x1d
 2456 0675 78050000 		.4byte	.LASF74
 2457 0679 01       		.byte	0x1
 2458 067a DE       		.byte	0xde
 2459 067b DD000000 		.4byte	0xdd
 2460 067f BE040000 		.4byte	.LLST31
 2461 0683 1E       		.uleb128 0x1e
 2462 0684 29030000 		.4byte	.LASF75
 2463 0688 01       		.byte	0x1
 2464 0689 E0       		.byte	0xe0
 2465 068a FE000000 		.4byte	0xfe
 2466 068e DF040000 		.4byte	.LLST32
 2467 0692 1F       		.uleb128 0x1f
 2468 0693 DB040000 		.4byte	.LASF43
 2469 0697 01       		.byte	0x1
 2470 0698 E1       		.byte	0xe1
 2471 0699 8C000000 		.4byte	0x8c
 2472 069d 01       		.uleb128 0x1
 2473 069e 57       		.byte	0x57
 2474 069f 1A       		.uleb128 0x1a
ARM GAS  C:\Users\df16\AppData\Local\Temp\ccjld08w.s 			page 75


 2475 06a0 1C000000 		.4byte	.LVL66
 2476 06a4 3E120000 		.4byte	0x123e
 2477 06a8 B3060000 		.4byte	0x6b3
 2478 06ac 18       		.uleb128 0x18
 2479 06ad 01       		.uleb128 0x1
 2480 06ae 50       		.byte	0x50
 2481 06af 02       		.uleb128 0x2
 2482 06b0 76       		.byte	0x76
 2483 06b1 20       		.sleb128 32
 2484 06b2 00       		.byte	0
 2485 06b3 17       		.uleb128 0x17
 2486 06b4 2E000000 		.4byte	.LVL67
 2487 06b8 92020000 		.4byte	0x292
 2488 06bc 18       		.uleb128 0x18
 2489 06bd 01       		.uleb128 0x1
 2490 06be 50       		.byte	0x50
 2491 06bf 02       		.uleb128 0x2
 2492 06c0 74       		.byte	0x74
 2493 06c1 00       		.sleb128 0
 2494 06c2 18       		.uleb128 0x18
 2495 06c3 01       		.uleb128 0x1
 2496 06c4 51       		.byte	0x51
 2497 06c5 02       		.uleb128 0x2
 2498 06c6 74       		.byte	0x74
 2499 06c7 20       		.sleb128 32
 2500 06c8 18       		.uleb128 0x18
 2501 06c9 01       		.uleb128 0x1
 2502 06ca 52       		.byte	0x52
 2503 06cb 02       		.uleb128 0x2
 2504 06cc 76       		.byte	0x76
 2505 06cd 00       		.sleb128 0
 2506 06ce 18       		.uleb128 0x18
 2507 06cf 01       		.uleb128 0x1
 2508 06d0 53       		.byte	0x53
 2509 06d1 02       		.uleb128 0x2
 2510 06d2 75       		.byte	0x75
 2511 06d3 00       		.sleb128 0
 2512 06d4 18       		.uleb128 0x18
 2513 06d5 02       		.uleb128 0x2
 2514 06d6 7D       		.byte	0x7d
 2515 06d7 00       		.sleb128 0
 2516 06d8 02       		.uleb128 0x2
 2517 06d9 77       		.byte	0x77
 2518 06da 00       		.sleb128 0
 2519 06db 00       		.byte	0
 2520 06dc 00       		.byte	0
 2521 06dd 20       		.uleb128 0x20
 2522 06de 98000000 		.4byte	.LASF121
 2523 06e2 01       		.byte	0x1
 2524 06e3 6B01     		.2byte	0x16b
 2525 06e5 00000000 		.4byte	.LFB68
 2526 06e9 1A000000 		.4byte	.LFE68-.LFB68
 2527 06ed 01       		.uleb128 0x1
 2528 06ee 9C       		.byte	0x9c
 2529 06ef 3E070000 		.4byte	0x73e
 2530 06f3 12       		.uleb128 0x12
 2531 06f4 4B020000 		.4byte	.LASF76
ARM GAS  C:\Users\df16\AppData\Local\Temp\ccjld08w.s 			page 76


 2532 06f8 01       		.byte	0x1
 2533 06f9 6B01     		.2byte	0x16b
 2534 06fb 75010000 		.4byte	0x175
 2535 06ff FD040000 		.4byte	.LLST33
 2536 0703 13       		.uleb128 0x13
 2537 0704 3C030000 		.4byte	.LASF47
 2538 0708 01       		.byte	0x1
 2539 0709 6D01     		.2byte	0x16d
 2540 070b 13030000 		.4byte	0x313
 2541 070f 37050000 		.4byte	.LLST34
 2542 0713 1A       		.uleb128 0x1a
 2543 0714 0E000000 		.4byte	.LVL70
 2544 0718 49120000 		.4byte	0x1249
 2545 071c 28070000 		.4byte	0x728
 2546 0720 18       		.uleb128 0x18
 2547 0721 01       		.uleb128 0x1
 2548 0722 50       		.byte	0x50
 2549 0723 03       		.uleb128 0x3
 2550 0724 F3       		.byte	0xf3
 2551 0725 01       		.uleb128 0x1
 2552 0726 50       		.byte	0x50
 2553 0727 00       		.byte	0
 2554 0728 17       		.uleb128 0x17
 2555 0729 18000000 		.4byte	.LVL72
 2556 072d 2C120000 		.4byte	0x122c
 2557 0731 18       		.uleb128 0x18
 2558 0732 01       		.uleb128 0x1
 2559 0733 51       		.byte	0x51
 2560 0734 01       		.uleb128 0x1
 2561 0735 30       		.byte	0x30
 2562 0736 18       		.uleb128 0x18
 2563 0737 01       		.uleb128 0x1
 2564 0738 52       		.byte	0x52
 2565 0739 02       		.uleb128 0x2
 2566 073a 08       		.byte	0x8
 2567 073b 20       		.byte	0x20
 2568 073c 00       		.byte	0
 2569 073d 00       		.byte	0
 2570 073e 21       		.uleb128 0x21
 2571 073f DD050000 		.4byte	.LASF78
 2572 0743 01       		.byte	0x1
 2573 0744 8C01     		.2byte	0x18c
 2574 0746 DD000000 		.4byte	0xdd
 2575 074a 00000000 		.4byte	.LFB69
 2576 074e 36000000 		.4byte	.LFE69-.LFB69
 2577 0752 01       		.uleb128 0x1
 2578 0753 9C       		.byte	0x9c
 2579 0754 AF070000 		.4byte	0x7af
 2580 0758 12       		.uleb128 0x12
 2581 0759 4B020000 		.4byte	.LASF76
 2582 075d 01       		.byte	0x1
 2583 075e 8C01     		.2byte	0x18c
 2584 0760 75010000 		.4byte	0x175
 2585 0764 71050000 		.4byte	.LLST35
 2586 0768 13       		.uleb128 0x13
 2587 0769 3C030000 		.4byte	.LASF47
 2588 076d 01       		.byte	0x1
ARM GAS  C:\Users\df16\AppData\Local\Temp\ccjld08w.s 			page 77


 2589 076e 8E01     		.2byte	0x18e
 2590 0770 19030000 		.4byte	0x319
 2591 0774 CF050000 		.4byte	.LLST36
 2592 0778 13       		.uleb128 0x13
 2593 0779 0C030000 		.4byte	.LASF61
 2594 077d 01       		.byte	0x1
 2595 077e 8F01     		.2byte	0x18f
 2596 0780 DD000000 		.4byte	0xdd
 2597 0784 2D060000 		.4byte	.LLST37
 2598 0788 22       		.uleb128 0x22
 2599 0789 0A000000 		.4byte	.LVL75
 2600 078d 54120000 		.4byte	0x1254
 2601 0791 1A       		.uleb128 0x1a
 2602 0792 22000000 		.4byte	.LVL76
 2603 0796 92020000 		.4byte	0x292
 2604 079a A5070000 		.4byte	0x7a5
 2605 079e 18       		.uleb128 0x18
 2606 079f 01       		.uleb128 0x1
 2607 07a0 50       		.byte	0x50
 2608 07a1 02       		.uleb128 0x2
 2609 07a2 74       		.byte	0x74
 2610 07a3 00       		.sleb128 0
 2611 07a4 00       		.byte	0
 2612 07a5 22       		.uleb128 0x22
 2613 07a6 30000000 		.4byte	.LVL82
 2614 07aa 5F120000 		.4byte	0x125f
 2615 07ae 00       		.byte	0
 2616 07af 21       		.uleb128 0x21
 2617 07b0 15040000 		.4byte	.LASF79
 2618 07b4 01       		.byte	0x1
 2619 07b5 BD01     		.2byte	0x1bd
 2620 07b7 DD000000 		.4byte	0xdd
 2621 07bb 00000000 		.4byte	.LFB70
 2622 07bf 16000000 		.4byte	.LFE70-.LFB70
 2623 07c3 01       		.uleb128 0x1
 2624 07c4 9C       		.byte	0x9c
 2625 07c5 0A080000 		.4byte	0x80a
 2626 07c9 12       		.uleb128 0x12
 2627 07ca 4B020000 		.4byte	.LASF76
 2628 07ce 01       		.byte	0x1
 2629 07cf BD01     		.2byte	0x1bd
 2630 07d1 75010000 		.4byte	0x175
 2631 07d5 64060000 		.4byte	.LLST38
 2632 07d9 12       		.uleb128 0x12
 2633 07da C9020000 		.4byte	.LASF80
 2634 07de 01       		.byte	0x1
 2635 07df BE01     		.2byte	0x1be
 2636 07e1 AD000000 		.4byte	0xad
 2637 07e5 9E060000 		.4byte	.LLST39
 2638 07e9 13       		.uleb128 0x13
 2639 07ea 3C030000 		.4byte	.LASF47
 2640 07ee 01       		.byte	0x1
 2641 07ef C001     		.2byte	0x1c0
 2642 07f1 19030000 		.4byte	0x319
 2643 07f5 BC060000 		.4byte	.LLST40
 2644 07f9 13       		.uleb128 0x13
 2645 07fa 0C030000 		.4byte	.LASF61
ARM GAS  C:\Users\df16\AppData\Local\Temp\ccjld08w.s 			page 78


 2646 07fe 01       		.byte	0x1
 2647 07ff C101     		.2byte	0x1c1
 2648 0801 DD000000 		.4byte	0xdd
 2649 0805 F6060000 		.4byte	.LLST41
 2650 0809 00       		.byte	0
 2651 080a 21       		.uleb128 0x21
 2652 080b 54040000 		.4byte	.LASF81
 2653 080f 01       		.byte	0x1
 2654 0810 DB01     		.2byte	0x1db
 2655 0812 AD000000 		.4byte	0xad
 2656 0816 00000000 		.4byte	.LFB71
 2657 081a 14000000 		.4byte	.LFE71-.LFB71
 2658 081e 01       		.uleb128 0x1
 2659 081f 9C       		.byte	0x9c
 2660 0820 55080000 		.4byte	0x855
 2661 0824 12       		.uleb128 0x12
 2662 0825 4B020000 		.4byte	.LASF76
 2663 0829 01       		.byte	0x1
 2664 082a DB01     		.2byte	0x1db
 2665 082c 75010000 		.4byte	0x175
 2666 0830 15070000 		.4byte	.LLST42
 2667 0834 13       		.uleb128 0x13
 2668 0835 3C030000 		.4byte	.LASF47
 2669 0839 01       		.byte	0x1
 2670 083a DD01     		.2byte	0x1dd
 2671 083c 8D020000 		.4byte	0x28d
 2672 0840 36070000 		.4byte	.LLST43
 2673 0844 13       		.uleb128 0x13
 2674 0845 D6050000 		.4byte	.LASF58
 2675 0849 01       		.byte	0x1
 2676 084a DE01     		.2byte	0x1de
 2677 084c AD000000 		.4byte	0xad
 2678 0850 57070000 		.4byte	.LLST44
 2679 0854 00       		.byte	0
 2680 0855 21       		.uleb128 0x21
 2681 0856 1C080000 		.4byte	.LASF82
 2682 085a 01       		.byte	0x1
 2683 085b F301     		.2byte	0x1f3
 2684 085d AD000000 		.4byte	0xad
 2685 0861 00000000 		.4byte	.LFB72
 2686 0865 08000000 		.4byte	.LFE72-.LFB72
 2687 0869 01       		.uleb128 0x1
 2688 086a 9C       		.byte	0x9c
 2689 086b AF080000 		.4byte	0x8af
 2690 086f 12       		.uleb128 0x12
 2691 0870 4B020000 		.4byte	.LASF76
 2692 0874 01       		.byte	0x1
 2693 0875 F301     		.2byte	0x1f3
 2694 0877 75010000 		.4byte	0x175
 2695 087b 75070000 		.4byte	.LLST45
 2696 087f 13       		.uleb128 0x13
 2697 0880 3C030000 		.4byte	.LASF47
 2698 0884 01       		.byte	0x1
 2699 0885 F501     		.2byte	0x1f5
 2700 0887 8D020000 		.4byte	0x28d
 2701 088b 96070000 		.4byte	.LLST46
 2702 088f 19       		.uleb128 0x19
ARM GAS  C:\Users\df16\AppData\Local\Temp\ccjld08w.s 			page 79


 2703 0890 0C030000 		.4byte	.LASF61
 2704 0894 01       		.byte	0x1
 2705 0895 F601     		.2byte	0x1f6
 2706 0897 AD000000 		.4byte	0xad
 2707 089b 01       		.uleb128 0x1
 2708 089c 50       		.byte	0x50
 2709 089d 17       		.uleb128 0x17
 2710 089e 06000000 		.4byte	.LVL97
 2711 08a2 47020000 		.4byte	0x247
 2712 08a6 18       		.uleb128 0x18
 2713 08a7 01       		.uleb128 0x1
 2714 08a8 50       		.byte	0x50
 2715 08a9 03       		.uleb128 0x3
 2716 08aa F3       		.byte	0xf3
 2717 08ab 01       		.uleb128 0x1
 2718 08ac 50       		.byte	0x50
 2719 08ad 00       		.byte	0
 2720 08ae 00       		.byte	0
 2721 08af 21       		.uleb128 0x21
 2722 08b0 E3040000 		.4byte	.LASF83
 2723 08b4 01       		.byte	0x1
 2724 08b5 FF01     		.2byte	0x1ff
 2725 08b7 AD000000 		.4byte	0xad
 2726 08bb 00000000 		.4byte	.LFB73
 2727 08bf E4000000 		.4byte	.LFE73-.LFB73
 2728 08c3 01       		.uleb128 0x1
 2729 08c4 9C       		.byte	0x9c
 2730 08c5 970A0000 		.4byte	0xa97
 2731 08c9 12       		.uleb128 0x12
 2732 08ca 4B020000 		.4byte	.LASF76
 2733 08ce 01       		.byte	0x1
 2734 08cf FF01     		.2byte	0x1ff
 2735 08d1 75010000 		.4byte	0x175
 2736 08d5 B7070000 		.4byte	.LLST47
 2737 08d9 12       		.uleb128 0x12
 2738 08da 38080000 		.4byte	.LASF56
 2739 08de 01       		.byte	0x1
 2740 08df 0002     		.2byte	0x200
 2741 08e1 86040000 		.4byte	0x486
 2742 08e5 EB070000 		.4byte	.LLST48
 2743 08e9 12       		.uleb128 0x12
 2744 08ea 94010000 		.4byte	.LASF57
 2745 08ee 01       		.byte	0x1
 2746 08ef 0102     		.2byte	0x201
 2747 08f1 AD000000 		.4byte	0xad
 2748 08f5 1F080000 		.4byte	.LLST49
 2749 08f9 12       		.uleb128 0x12
 2750 08fa 5F020000 		.4byte	.LASF84
 2751 08fe 01       		.byte	0x1
 2752 08ff 0202     		.2byte	0x202
 2753 0901 F3000000 		.4byte	0xf3
 2754 0905 7F080000 		.4byte	.LLST50
 2755 0909 13       		.uleb128 0x13
 2756 090a 3C030000 		.4byte	.LASF47
 2757 090e 01       		.byte	0x1
 2758 090f 0402     		.2byte	0x204
 2759 0911 19030000 		.4byte	0x319
ARM GAS  C:\Users\df16\AppData\Local\Temp\ccjld08w.s 			page 80


 2760 0915 9E080000 		.4byte	.LLST51
 2761 0919 13       		.uleb128 0x13
 2762 091a 0C030000 		.4byte	.LASF61
 2763 091e 01       		.byte	0x1
 2764 091f 0502     		.2byte	0x205
 2765 0921 AD000000 		.4byte	0xad
 2766 0925 D2080000 		.4byte	.LLST52
 2767 0929 13       		.uleb128 0x13
 2768 092a D6050000 		.4byte	.LASF58
 2769 092e 01       		.byte	0x1
 2770 092f 0502     		.2byte	0x205
 2771 0931 AD000000 		.4byte	0xad
 2772 0935 F0080000 		.4byte	.LLST53
 2773 0939 13       		.uleb128 0x13
 2774 093a 7A020000 		.4byte	.LASF59
 2775 093e 01       		.byte	0x1
 2776 093f 0602     		.2byte	0x206
 2777 0941 AD000000 		.4byte	0xad
 2778 0945 47090000 		.4byte	.LLST54
 2779 0949 19       		.uleb128 0x19
 2780 094a DD010000 		.4byte	.LASF85
 2781 094e 01       		.byte	0x1
 2782 094f 0702     		.2byte	0x207
 2783 0951 6A010000 		.4byte	0x16a
 2784 0955 02       		.uleb128 0x2
 2785 0956 91       		.byte	0x91
 2786 0957 58       		.sleb128 -40
 2787 0958 13       		.uleb128 0x13
 2788 0959 1E010000 		.4byte	.LASF86
 2789 095d 01       		.byte	0x1
 2790 095e 0B02     		.2byte	0x20b
 2791 0960 DD000000 		.4byte	0xdd
 2792 0964 9C090000 		.4byte	.LLST55
 2793 0968 1A       		.uleb128 0x1a
 2794 0969 40000000 		.4byte	.LVL110
 2795 096d 6A120000 		.4byte	0x126a
 2796 0971 7C090000 		.4byte	0x97c
 2797 0975 18       		.uleb128 0x18
 2798 0976 01       		.uleb128 0x1
 2799 0977 50       		.byte	0x50
 2800 0978 02       		.uleb128 0x2
 2801 0979 91       		.byte	0x91
 2802 097a 58       		.sleb128 -40
 2803 097b 00       		.byte	0
 2804 097c 22       		.uleb128 0x22
 2805 097d 44000000 		.4byte	.LVL111
 2806 0981 54120000 		.4byte	0x1254
 2807 0985 1A       		.uleb128 0x1a
 2808 0986 4A000000 		.4byte	.LVL112
 2809 098a 0A080000 		.4byte	0x80a
 2810 098e 99090000 		.4byte	0x999
 2811 0992 18       		.uleb128 0x18
 2812 0993 01       		.uleb128 0x1
 2813 0994 50       		.byte	0x50
 2814 0995 02       		.uleb128 0x2
 2815 0996 74       		.byte	0x74
 2816 0997 00       		.sleb128 0
ARM GAS  C:\Users\df16\AppData\Local\Temp\ccjld08w.s 			page 81


 2817 0998 00       		.byte	0
 2818 0999 1A       		.uleb128 0x1a
 2819 099a 58000000 		.4byte	.LVL115
 2820 099e 76120000 		.4byte	0x1276
 2821 09a2 B1090000 		.4byte	0x9b1
 2822 09a6 18       		.uleb128 0x18
 2823 09a7 01       		.uleb128 0x1
 2824 09a8 50       		.byte	0x50
 2825 09a9 01       		.uleb128 0x1
 2826 09aa 30       		.byte	0x30
 2827 09ab 18       		.uleb128 0x18
 2828 09ac 01       		.uleb128 0x1
 2829 09ad 51       		.byte	0x51
 2830 09ae 01       		.uleb128 0x1
 2831 09af 30       		.byte	0x30
 2832 09b0 00       		.byte	0
 2833 09b1 22       		.uleb128 0x22
 2834 09b2 5C000000 		.4byte	.LVL116
 2835 09b6 82120000 		.4byte	0x1282
 2836 09ba 22       		.uleb128 0x22
 2837 09bb 62000000 		.4byte	.LVL117
 2838 09bf 5F120000 		.4byte	0x125f
 2839 09c3 1A       		.uleb128 0x1a
 2840 09c4 78000000 		.4byte	.LVL118
 2841 09c8 8E120000 		.4byte	0x128e
 2842 09cc E5090000 		.4byte	0x9e5
 2843 09d0 18       		.uleb128 0x18
 2844 09d1 01       		.uleb128 0x1
 2845 09d2 50       		.byte	0x50
 2846 09d3 01       		.uleb128 0x1
 2847 09d4 30       		.byte	0x30
 2848 09d5 18       		.uleb128 0x18
 2849 09d6 01       		.uleb128 0x1
 2850 09d7 51       		.byte	0x51
 2851 09d8 01       		.uleb128 0x1
 2852 09d9 30       		.byte	0x30
 2853 09da 18       		.uleb128 0x18
 2854 09db 01       		.uleb128 0x1
 2855 09dc 52       		.byte	0x52
 2856 09dd 01       		.uleb128 0x1
 2857 09de 30       		.byte	0x30
 2858 09df 18       		.uleb128 0x18
 2859 09e0 01       		.uleb128 0x1
 2860 09e1 53       		.byte	0x53
 2861 09e2 01       		.uleb128 0x1
 2862 09e3 30       		.byte	0x30
 2863 09e4 00       		.byte	0
 2864 09e5 1A       		.uleb128 0x1a
 2865 09e6 84000000 		.4byte	.LVL119
 2866 09ea 9A120000 		.4byte	0x129a
 2867 09ee FF090000 		.4byte	0x9ff
 2868 09f2 18       		.uleb128 0x18
 2869 09f3 01       		.uleb128 0x1
 2870 09f4 50       		.byte	0x50
 2871 09f5 02       		.uleb128 0x2
 2872 09f6 91       		.byte	0x91
 2873 09f7 58       		.sleb128 -40
ARM GAS  C:\Users\df16\AppData\Local\Temp\ccjld08w.s 			page 82


 2874 09f8 18       		.uleb128 0x18
 2875 09f9 01       		.uleb128 0x1
 2876 09fa 51       		.byte	0x51
 2877 09fb 02       		.uleb128 0x2
 2878 09fc 78       		.byte	0x78
 2879 09fd 00       		.sleb128 0
 2880 09fe 00       		.byte	0
 2881 09ff 22       		.uleb128 0x22
 2882 0a00 8E000000 		.4byte	.LVL121
 2883 0a04 5F120000 		.4byte	0x125f
 2884 0a08 1A       		.uleb128 0x1a
 2885 0a09 9E000000 		.4byte	.LVL124
 2886 0a0d 0A080000 		.4byte	0x80a
 2887 0a11 1C0A0000 		.4byte	0xa1c
 2888 0a15 18       		.uleb128 0x18
 2889 0a16 01       		.uleb128 0x1
 2890 0a17 50       		.byte	0x50
 2891 0a18 02       		.uleb128 0x2
 2892 0a19 74       		.byte	0x74
 2893 0a1a 00       		.sleb128 0
 2894 0a1b 00       		.byte	0
 2895 0a1c 1A       		.uleb128 0x1a
 2896 0a1d AE000000 		.4byte	.LVL126
 2897 0a21 CD030000 		.4byte	0x3cd
 2898 0a25 490A0000 		.4byte	0xa49
 2899 0a29 18       		.uleb128 0x18
 2900 0a2a 01       		.uleb128 0x1
 2901 0a2b 50       		.byte	0x50
 2902 0a2c 02       		.uleb128 0x2
 2903 0a2d 74       		.byte	0x74
 2904 0a2e 00       		.sleb128 0
 2905 0a2f 18       		.uleb128 0x18
 2906 0a30 01       		.uleb128 0x1
 2907 0a31 51       		.byte	0x51
 2908 0a32 02       		.uleb128 0x2
 2909 0a33 79       		.byte	0x79
 2910 0a34 00       		.sleb128 0
 2911 0a35 18       		.uleb128 0x18
 2912 0a36 01       		.uleb128 0x1
 2913 0a37 52       		.byte	0x52
 2914 0a38 02       		.uleb128 0x2
 2915 0a39 77       		.byte	0x77
 2916 0a3a 00       		.sleb128 0
 2917 0a3b 18       		.uleb128 0x18
 2918 0a3c 01       		.uleb128 0x1
 2919 0a3d 53       		.byte	0x53
 2920 0a3e 02       		.uleb128 0x2
 2921 0a3f 75       		.byte	0x75
 2922 0a40 00       		.sleb128 0
 2923 0a41 18       		.uleb128 0x18
 2924 0a42 02       		.uleb128 0x2
 2925 0a43 7D       		.byte	0x7d
 2926 0a44 00       		.sleb128 0
 2927 0a45 02       		.uleb128 0x2
 2928 0a46 76       		.byte	0x76
 2929 0a47 00       		.sleb128 0
 2930 0a48 00       		.byte	0
ARM GAS  C:\Users\df16\AppData\Local\Temp\ccjld08w.s 			page 83


 2931 0a49 1A       		.uleb128 0x1a
 2932 0a4a B8000000 		.4byte	.LVL129
 2933 0a4e 47020000 		.4byte	0x247
 2934 0a52 5D0A0000 		.4byte	0xa5d
 2935 0a56 18       		.uleb128 0x18
 2936 0a57 01       		.uleb128 0x1
 2937 0a58 50       		.byte	0x50
 2938 0a59 02       		.uleb128 0x2
 2939 0a5a 74       		.byte	0x74
 2940 0a5b 00       		.sleb128 0
 2941 0a5c 00       		.byte	0
 2942 0a5d 22       		.uleb128 0x22
 2943 0a5e C2000000 		.4byte	.LVL130
 2944 0a62 A6120000 		.4byte	0x12a6
 2945 0a66 1A       		.uleb128 0x1a
 2946 0a67 D6000000 		.4byte	.LVL132
 2947 0a6b B2120000 		.4byte	0x12b2
 2948 0a6f 8D0A0000 		.4byte	0xa8d
 2949 0a73 18       		.uleb128 0x18
 2950 0a74 01       		.uleb128 0x1
 2951 0a75 51       		.byte	0x51
 2952 0a76 02       		.uleb128 0x2
 2953 0a77 76       		.byte	0x76
 2954 0a78 00       		.sleb128 0
 2955 0a79 18       		.uleb128 0x18
 2956 0a7a 01       		.uleb128 0x1
 2957 0a7b 52       		.byte	0x52
 2958 0a7c 02       		.uleb128 0x2
 2959 0a7d 76       		.byte	0x76
 2960 0a7e 00       		.sleb128 0
 2961 0a7f 18       		.uleb128 0x18
 2962 0a80 01       		.uleb128 0x1
 2963 0a81 53       		.byte	0x53
 2964 0a82 02       		.uleb128 0x2
 2965 0a83 76       		.byte	0x76
 2966 0a84 00       		.sleb128 0
 2967 0a85 18       		.uleb128 0x18
 2968 0a86 02       		.uleb128 0x2
 2969 0a87 7D       		.byte	0x7d
 2970 0a88 00       		.sleb128 0
 2971 0a89 02       		.uleb128 0x2
 2972 0a8a 76       		.byte	0x76
 2973 0a8b 00       		.sleb128 0
 2974 0a8c 00       		.byte	0
 2975 0a8d 22       		.uleb128 0x22
 2976 0a8e DC000000 		.4byte	.LVL133
 2977 0a92 BE120000 		.4byte	0x12be
 2978 0a96 00       		.byte	0
 2979 0a97 21       		.uleb128 0x21
 2980 0a98 AA040000 		.4byte	.LASF87
 2981 0a9c 01       		.byte	0x1
 2982 0a9d 9502     		.2byte	0x295
 2983 0a9f AD000000 		.4byte	0xad
 2984 0aa3 00000000 		.4byte	.LFB74
 2985 0aa7 7A000000 		.4byte	.LFE74-.LFB74
 2986 0aab 01       		.uleb128 0x1
 2987 0aac 9C       		.byte	0x9c
ARM GAS  C:\Users\df16\AppData\Local\Temp\ccjld08w.s 			page 84


 2988 0aad 080C0000 		.4byte	0xc08
 2989 0ab1 12       		.uleb128 0x12
 2990 0ab2 4B020000 		.4byte	.LASF76
 2991 0ab6 01       		.byte	0x1
 2992 0ab7 9502     		.2byte	0x295
 2993 0ab9 75010000 		.4byte	0x175
 2994 0abd BA090000 		.4byte	.LLST56
 2995 0ac1 12       		.uleb128 0x12
 2996 0ac2 38080000 		.4byte	.LASF56
 2997 0ac6 01       		.byte	0x1
 2998 0ac7 9602     		.2byte	0x296
 2999 0ac9 86040000 		.4byte	0x486
 3000 0acd D8090000 		.4byte	.LLST57
 3001 0ad1 12       		.uleb128 0x12
 3002 0ad2 94010000 		.4byte	.LASF57
 3003 0ad6 01       		.byte	0x1
 3004 0ad7 9702     		.2byte	0x297
 3005 0ad9 AD000000 		.4byte	0xad
 3006 0add 040A0000 		.4byte	.LLST58
 3007 0ae1 12       		.uleb128 0x12
 3008 0ae2 09070000 		.4byte	.LASF88
 3009 0ae6 01       		.byte	0x1
 3010 0ae7 9802     		.2byte	0x298
 3011 0ae9 0E0C0000 		.4byte	0xc0e
 3012 0aed 300A0000 		.4byte	.LLST59
 3013 0af1 13       		.uleb128 0x13
 3014 0af2 3C030000 		.4byte	.LASF47
 3015 0af6 01       		.byte	0x1
 3016 0af7 9A02     		.2byte	0x29a
 3017 0af9 19030000 		.4byte	0x319
 3018 0afd 4E0A0000 		.4byte	.LLST60
 3019 0b01 13       		.uleb128 0x13
 3020 0b02 0C030000 		.4byte	.LASF61
 3021 0b06 01       		.byte	0x1
 3022 0b07 9B02     		.2byte	0x29b
 3023 0b09 AD000000 		.4byte	0xad
 3024 0b0d 6C0A0000 		.4byte	.LLST61
 3025 0b11 13       		.uleb128 0x13
 3026 0b12 D6050000 		.4byte	.LASF58
 3027 0b16 01       		.byte	0x1
 3028 0b17 9B02     		.2byte	0x29b
 3029 0b19 AD000000 		.4byte	0xad
 3030 0b1d 8A0A0000 		.4byte	.LLST62
 3031 0b21 13       		.uleb128 0x13
 3032 0b22 7A020000 		.4byte	.LASF59
 3033 0b26 01       		.byte	0x1
 3034 0b27 9C02     		.2byte	0x29c
 3035 0b29 AD000000 		.4byte	0xad
 3036 0b2d A80A0000 		.4byte	.LLST63
 3037 0b31 23       		.uleb128 0x23
 3038 0b32 40000000 		.4byte	.LBB20
 3039 0b36 32000000 		.4byte	.LBE20-.LBB20
 3040 0b3a BC0B0000 		.4byte	0xbbc
 3041 0b3e 24       		.uleb128 0x24
 3042 0b3f E9060000 		.4byte	.LASF89
 3043 0b43 01       		.byte	0x1
 3044 0b44 B602     		.2byte	0x2b6
ARM GAS  C:\Users\df16\AppData\Local\Temp\ccjld08w.s 			page 85


 3045 0b46 E8000000 		.4byte	0xe8
 3046 0b4a 25       		.uleb128 0x25
 3047 0b4b 08020000 		.4byte	0x208
 3048 0b4f 40000000 		.4byte	.LBB21
 3049 0b53 14000000 		.4byte	.LBE21-.LBB21
 3050 0b57 01       		.byte	0x1
 3051 0b58 B602     		.2byte	0x2b6
 3052 0b5a 730B0000 		.4byte	0xb73
 3053 0b5e 26       		.uleb128 0x26
 3054 0b5f 40000000 		.4byte	.LBB22
 3055 0b63 14000000 		.4byte	.LBE22-.LBB22
 3056 0b67 27       		.uleb128 0x27
 3057 0b68 18020000 		.4byte	0x218
 3058 0b6c 27       		.uleb128 0x27
 3059 0b6d 23020000 		.4byte	0x223
 3060 0b71 00       		.byte	0
 3061 0b72 00       		.byte	0
 3062 0b73 25       		.uleb128 0x25
 3063 0b74 2F020000 		.4byte	0x22f
 3064 0b78 6E000000 		.4byte	.LBB23
 3065 0b7c 04000000 		.4byte	.LBE23-.LBB23
 3066 0b80 01       		.byte	0x1
 3067 0b81 B602     		.2byte	0x2b6
 3068 0b83 910B0000 		.4byte	0xb91
 3069 0b87 28       		.uleb128 0x28
 3070 0b88 3B020000 		.4byte	0x23b
 3071 0b8c DC0A0000 		.4byte	.LLST64
 3072 0b90 00       		.byte	0
 3073 0b91 17       		.uleb128 0x17
 3074 0b92 6C000000 		.4byte	.LVL149
 3075 0b96 CA120000 		.4byte	0x12ca
 3076 0b9a 18       		.uleb128 0x18
 3077 0b9b 01       		.uleb128 0x1
 3078 0b9c 51       		.byte	0x51
 3079 0b9d 02       		.uleb128 0x2
 3080 0b9e 76       		.byte	0x76
 3081 0b9f 00       		.sleb128 0
 3082 0ba0 18       		.uleb128 0x18
 3083 0ba1 01       		.uleb128 0x1
 3084 0ba2 52       		.byte	0x52
 3085 0ba3 02       		.uleb128 0x2
 3086 0ba4 76       		.byte	0x76
 3087 0ba5 00       		.sleb128 0
 3088 0ba6 18       		.uleb128 0x18
 3089 0ba7 01       		.uleb128 0x1
 3090 0ba8 53       		.byte	0x53
 3091 0ba9 02       		.uleb128 0x2
 3092 0baa 76       		.byte	0x76
 3093 0bab 00       		.sleb128 0
 3094 0bac 18       		.uleb128 0x18
 3095 0bad 02       		.uleb128 0x2
 3096 0bae 7D       		.byte	0x7d
 3097 0baf 00       		.sleb128 0
 3098 0bb0 02       		.uleb128 0x2
 3099 0bb1 76       		.byte	0x76
 3100 0bb2 00       		.sleb128 0
 3101 0bb3 18       		.uleb128 0x18
ARM GAS  C:\Users\df16\AppData\Local\Temp\ccjld08w.s 			page 86


 3102 0bb4 02       		.uleb128 0x2
 3103 0bb5 7D       		.byte	0x7d
 3104 0bb6 04       		.sleb128 4
 3105 0bb7 02       		.uleb128 0x2
 3106 0bb8 78       		.byte	0x78
 3107 0bb9 00       		.sleb128 0
 3108 0bba 00       		.byte	0
 3109 0bbb 00       		.byte	0
 3110 0bbc 1A       		.uleb128 0x1a
 3111 0bbd 22000000 		.4byte	.LVL141
 3112 0bc1 0A080000 		.4byte	0x80a
 3113 0bc5 D00B0000 		.4byte	0xbd0
 3114 0bc9 18       		.uleb128 0x18
 3115 0bca 01       		.uleb128 0x1
 3116 0bcb 50       		.byte	0x50
 3117 0bcc 02       		.uleb128 0x2
 3118 0bcd 74       		.byte	0x74
 3119 0bce 00       		.sleb128 0
 3120 0bcf 00       		.byte	0
 3121 0bd0 1A       		.uleb128 0x1a
 3122 0bd1 30000000 		.4byte	.LVL143
 3123 0bd5 CD030000 		.4byte	0x3cd
 3124 0bd9 F70B0000 		.4byte	0xbf7
 3125 0bdd 18       		.uleb128 0x18
 3126 0bde 01       		.uleb128 0x1
 3127 0bdf 50       		.byte	0x50
 3128 0be0 02       		.uleb128 0x2
 3129 0be1 74       		.byte	0x74
 3130 0be2 00       		.sleb128 0
 3131 0be3 18       		.uleb128 0x18
 3132 0be4 01       		.uleb128 0x1
 3133 0be5 51       		.byte	0x51
 3134 0be6 02       		.uleb128 0x2
 3135 0be7 76       		.byte	0x76
 3136 0be8 00       		.sleb128 0
 3137 0be9 18       		.uleb128 0x18
 3138 0bea 01       		.uleb128 0x1
 3139 0beb 52       		.byte	0x52
 3140 0bec 02       		.uleb128 0x2
 3141 0bed 75       		.byte	0x75
 3142 0bee 00       		.sleb128 0
 3143 0bef 18       		.uleb128 0x18
 3144 0bf0 02       		.uleb128 0x2
 3145 0bf1 7D       		.byte	0x7d
 3146 0bf2 00       		.sleb128 0
 3147 0bf3 02       		.uleb128 0x2
 3148 0bf4 77       		.byte	0x77
 3149 0bf5 00       		.sleb128 0
 3150 0bf6 00       		.byte	0
 3151 0bf7 17       		.uleb128 0x17
 3152 0bf8 3A000000 		.4byte	.LVL146
 3153 0bfc 47020000 		.4byte	0x247
 3154 0c00 18       		.uleb128 0x18
 3155 0c01 01       		.uleb128 0x1
 3156 0c02 50       		.byte	0x50
 3157 0c03 02       		.uleb128 0x2
 3158 0c04 74       		.byte	0x74
ARM GAS  C:\Users\df16\AppData\Local\Temp\ccjld08w.s 			page 87


 3159 0c05 00       		.sleb128 0
 3160 0c06 00       		.byte	0
 3161 0c07 00       		.byte	0
 3162 0c08 06       		.uleb128 0x6
 3163 0c09 04       		.byte	0x4
 3164 0c0a DD000000 		.4byte	0xdd
 3165 0c0e 14       		.uleb128 0x14
 3166 0c0f 080C0000 		.4byte	0xc08
 3167 0c13 21       		.uleb128 0x21
 3168 0c14 B6000000 		.4byte	.LASF90
 3169 0c18 01       		.byte	0x1
 3170 0c19 FC02     		.2byte	0x2fc
 3171 0c1b AD000000 		.4byte	0xad
 3172 0c1f 00000000 		.4byte	.LFB76
 3173 0c23 A8000000 		.4byte	.LFE76-.LFB76
 3174 0c27 01       		.uleb128 0x1
 3175 0c28 9C       		.byte	0x9c
 3176 0c29 AC0D0000 		.4byte	0xdac
 3177 0c2d 12       		.uleb128 0x12
 3178 0c2e 4B020000 		.4byte	.LASF76
 3179 0c32 01       		.byte	0x1
 3180 0c33 FC02     		.2byte	0x2fc
 3181 0c35 75010000 		.4byte	0x175
 3182 0c39 EF0A0000 		.4byte	.LLST65
 3183 0c3d 12       		.uleb128 0x12
 3184 0c3e 00070000 		.4byte	.LASF67
 3185 0c42 01       		.byte	0x1
 3186 0c43 FD02     		.2byte	0x2fd
 3187 0c45 C6000000 		.4byte	0xc6
 3188 0c49 230B0000 		.4byte	.LLST66
 3189 0c4d 12       		.uleb128 0x12
 3190 0c4e 0D000000 		.4byte	.LASF68
 3191 0c52 01       		.byte	0x1
 3192 0c53 FE02     		.2byte	0x2fe
 3193 0c55 AD000000 		.4byte	0xad
 3194 0c59 570B0000 		.4byte	.LLST67
 3195 0c5d 12       		.uleb128 0x12
 3196 0c5e 5F020000 		.4byte	.LASF84
 3197 0c62 01       		.byte	0x1
 3198 0c63 FF02     		.2byte	0x2ff
 3199 0c65 F3000000 		.4byte	0xf3
 3200 0c69 8B0B0000 		.4byte	.LLST68
 3201 0c6d 13       		.uleb128 0x13
 3202 0c6e 3C030000 		.4byte	.LASF47
 3203 0c72 01       		.byte	0x1
 3204 0c73 0103     		.2byte	0x301
 3205 0c75 19030000 		.4byte	0x319
 3206 0c79 A90B0000 		.4byte	.LLST69
 3207 0c7d 13       		.uleb128 0x13
 3208 0c7e 15020000 		.4byte	.LASF71
 3209 0c82 01       		.byte	0x1
 3210 0c83 0203     		.2byte	0x302
 3211 0c85 AD000000 		.4byte	0xad
 3212 0c89 DD0B0000 		.4byte	.LLST70
 3213 0c8d 13       		.uleb128 0x13
 3214 0c8e 5C010000 		.4byte	.LASF64
 3215 0c92 01       		.byte	0x1
ARM GAS  C:\Users\df16\AppData\Local\Temp\ccjld08w.s 			page 88


 3216 0c93 0203     		.2byte	0x302
 3217 0c95 AD000000 		.4byte	0xad
 3218 0c99 1E0C0000 		.4byte	.LLST71
 3219 0c9d 13       		.uleb128 0x13
 3220 0c9e 02060000 		.4byte	.LASF69
 3221 0ca2 01       		.byte	0x1
 3222 0ca3 0203     		.2byte	0x302
 3223 0ca5 AD000000 		.4byte	0xad
 3224 0ca9 5D0C0000 		.4byte	.LLST72
 3225 0cad 22       		.uleb128 0x22
 3226 0cae 22000000 		.4byte	.LVL156
 3227 0cb2 54120000 		.4byte	0x1254
 3228 0cb6 1A       		.uleb128 0x1a
 3229 0cb7 28000000 		.4byte	.LVL157
 3230 0cbb 47020000 		.4byte	0x247
 3231 0cbf CA0C0000 		.4byte	0xcca
 3232 0cc3 18       		.uleb128 0x18
 3233 0cc4 01       		.uleb128 0x1
 3234 0cc5 50       		.byte	0x50
 3235 0cc6 02       		.uleb128 0x2
 3236 0cc7 74       		.byte	0x74
 3237 0cc8 00       		.sleb128 0
 3238 0cc9 00       		.byte	0
 3239 0cca 1A       		.uleb128 0x1a
 3240 0ccb 36000000 		.4byte	.LVL160
 3241 0ccf 76120000 		.4byte	0x1276
 3242 0cd3 E20C0000 		.4byte	0xce2
 3243 0cd7 18       		.uleb128 0x18
 3244 0cd8 01       		.uleb128 0x1
 3245 0cd9 50       		.byte	0x50
 3246 0cda 01       		.uleb128 0x1
 3247 0cdb 30       		.byte	0x30
 3248 0cdc 18       		.uleb128 0x18
 3249 0cdd 01       		.uleb128 0x1
 3250 0cde 51       		.byte	0x51
 3251 0cdf 01       		.uleb128 0x1
 3252 0ce0 30       		.byte	0x30
 3253 0ce1 00       		.byte	0
 3254 0ce2 22       		.uleb128 0x22
 3255 0ce3 3A000000 		.4byte	.LVL161
 3256 0ce7 82120000 		.4byte	0x1282
 3257 0ceb 22       		.uleb128 0x22
 3258 0cec 40000000 		.4byte	.LVL162
 3259 0cf0 5F120000 		.4byte	0x125f
 3260 0cf4 1A       		.uleb128 0x1a
 3261 0cf5 52000000 		.4byte	.LVL163
 3262 0cf9 8E120000 		.4byte	0x128e
 3263 0cfd 1D0D0000 		.4byte	0xd1d
 3264 0d01 18       		.uleb128 0x18
 3265 0d02 01       		.uleb128 0x1
 3266 0d03 50       		.byte	0x50
 3267 0d04 01       		.uleb128 0x1
 3268 0d05 30       		.byte	0x30
 3269 0d06 18       		.uleb128 0x18
 3270 0d07 01       		.uleb128 0x1
 3271 0d08 51       		.byte	0x51
 3272 0d09 01       		.uleb128 0x1
ARM GAS  C:\Users\df16\AppData\Local\Temp\ccjld08w.s 			page 89


 3273 0d0a 30       		.byte	0x30
 3274 0d0b 18       		.uleb128 0x18
 3275 0d0c 01       		.uleb128 0x1
 3276 0d0d 52       		.byte	0x52
 3277 0d0e 01       		.uleb128 0x1
 3278 0d0f 30       		.byte	0x30
 3279 0d10 18       		.uleb128 0x18
 3280 0d11 01       		.uleb128 0x1
 3281 0d12 53       		.byte	0x53
 3282 0d13 01       		.uleb128 0x1
 3283 0d14 30       		.byte	0x30
 3284 0d15 18       		.uleb128 0x18
 3285 0d16 02       		.uleb128 0x2
 3286 0d17 7D       		.byte	0x7d
 3287 0d18 00       		.sleb128 0
 3288 0d19 02       		.uleb128 0x2
 3289 0d1a 77       		.byte	0x77
 3290 0d1b 00       		.sleb128 0
 3291 0d1c 00       		.byte	0
 3292 0d1d 1A       		.uleb128 0x1a
 3293 0d1e 5C000000 		.4byte	.LVL164
 3294 0d22 47020000 		.4byte	0x247
 3295 0d26 310D0000 		.4byte	0xd31
 3296 0d2a 18       		.uleb128 0x18
 3297 0d2b 01       		.uleb128 0x1
 3298 0d2c 50       		.byte	0x50
 3299 0d2d 02       		.uleb128 0x2
 3300 0d2e 74       		.byte	0x74
 3301 0d2f 00       		.sleb128 0
 3302 0d30 00       		.byte	0
 3303 0d31 1A       		.uleb128 0x1a
 3304 0d32 66000000 		.4byte	.LVL168
 3305 0d36 47020000 		.4byte	0x247
 3306 0d3a 450D0000 		.4byte	0xd45
 3307 0d3e 18       		.uleb128 0x18
 3308 0d3f 01       		.uleb128 0x1
 3309 0d40 50       		.byte	0x50
 3310 0d41 02       		.uleb128 0x2
 3311 0d42 74       		.byte	0x74
 3312 0d43 00       		.sleb128 0
 3313 0d44 00       		.byte	0
 3314 0d45 1A       		.uleb128 0x1a
 3315 0d46 7A000000 		.4byte	.LVL170
 3316 0d4a 4E050000 		.4byte	0x54e
 3317 0d4e 720D0000 		.4byte	0xd72
 3318 0d52 18       		.uleb128 0x18
 3319 0d53 01       		.uleb128 0x1
 3320 0d54 50       		.byte	0x50
 3321 0d55 02       		.uleb128 0x2
 3322 0d56 74       		.byte	0x74
 3323 0d57 00       		.sleb128 0
 3324 0d58 18       		.uleb128 0x18
 3325 0d59 01       		.uleb128 0x1
 3326 0d5a 51       		.byte	0x51
 3327 0d5b 02       		.uleb128 0x2
 3328 0d5c 78       		.byte	0x78
 3329 0d5d 00       		.sleb128 0
ARM GAS  C:\Users\df16\AppData\Local\Temp\ccjld08w.s 			page 90


 3330 0d5e 18       		.uleb128 0x18
 3331 0d5f 01       		.uleb128 0x1
 3332 0d60 52       		.byte	0x52
 3333 0d61 02       		.uleb128 0x2
 3334 0d62 79       		.byte	0x79
 3335 0d63 00       		.sleb128 0
 3336 0d64 18       		.uleb128 0x18
 3337 0d65 01       		.uleb128 0x1
 3338 0d66 53       		.byte	0x53
 3339 0d67 02       		.uleb128 0x2
 3340 0d68 75       		.byte	0x75
 3341 0d69 00       		.sleb128 0
 3342 0d6a 18       		.uleb128 0x18
 3343 0d6b 02       		.uleb128 0x2
 3344 0d6c 7D       		.byte	0x7d
 3345 0d6d 00       		.sleb128 0
 3346 0d6e 02       		.uleb128 0x2
 3347 0d6f 76       		.byte	0x76
 3348 0d70 00       		.sleb128 0
 3349 0d71 00       		.byte	0
 3350 0d72 22       		.uleb128 0x22
 3351 0d73 82000000 		.4byte	.LVL172
 3352 0d77 A6120000 		.4byte	0x12a6
 3353 0d7b 1A       		.uleb128 0x1a
 3354 0d7c 96000000 		.4byte	.LVL174
 3355 0d80 B2120000 		.4byte	0x12b2
 3356 0d84 A20D0000 		.4byte	0xda2
 3357 0d88 18       		.uleb128 0x18
 3358 0d89 01       		.uleb128 0x1
 3359 0d8a 51       		.byte	0x51
 3360 0d8b 02       		.uleb128 0x2
 3361 0d8c 76       		.byte	0x76
 3362 0d8d 00       		.sleb128 0
 3363 0d8e 18       		.uleb128 0x18
 3364 0d8f 01       		.uleb128 0x1
 3365 0d90 52       		.byte	0x52
 3366 0d91 02       		.uleb128 0x2
 3367 0d92 76       		.byte	0x76
 3368 0d93 00       		.sleb128 0
 3369 0d94 18       		.uleb128 0x18
 3370 0d95 01       		.uleb128 0x1
 3371 0d96 53       		.byte	0x53
 3372 0d97 02       		.uleb128 0x2
 3373 0d98 76       		.byte	0x76
 3374 0d99 00       		.sleb128 0
 3375 0d9a 18       		.uleb128 0x18
 3376 0d9b 02       		.uleb128 0x2
 3377 0d9c 7D       		.byte	0x7d
 3378 0d9d 00       		.sleb128 0
 3379 0d9e 02       		.uleb128 0x2
 3380 0d9f 76       		.byte	0x76
 3381 0da0 00       		.sleb128 0
 3382 0da1 00       		.byte	0
 3383 0da2 22       		.uleb128 0x22
 3384 0da3 9C000000 		.4byte	.LVL175
 3385 0da7 BE120000 		.4byte	0x12be
 3386 0dab 00       		.byte	0
ARM GAS  C:\Users\df16\AppData\Local\Temp\ccjld08w.s 			page 91


 3387 0dac 21       		.uleb128 0x21
 3388 0dad 67060000 		.4byte	.LASF91
 3389 0db1 01       		.byte	0x1
 3390 0db2 6403     		.2byte	0x364
 3391 0db4 AD000000 		.4byte	0xad
 3392 0db8 00000000 		.4byte	.LFB77
 3393 0dbc 36000000 		.4byte	.LFE77-.LFB77
 3394 0dc0 01       		.uleb128 0x1
 3395 0dc1 9C       		.byte	0x9c
 3396 0dc2 550E0000 		.4byte	0xe55
 3397 0dc6 12       		.uleb128 0x12
 3398 0dc7 4B020000 		.4byte	.LASF76
 3399 0dcb 01       		.byte	0x1
 3400 0dcc 6403     		.2byte	0x364
 3401 0dce 75010000 		.4byte	0x175
 3402 0dd2 7B0C0000 		.4byte	.LLST73
 3403 0dd6 13       		.uleb128 0x13
 3404 0dd7 3C030000 		.4byte	.LASF47
 3405 0ddb 01       		.byte	0x1
 3406 0ddc 6603     		.2byte	0x366
 3407 0dde 19030000 		.4byte	0x319
 3408 0de2 BD0C0000 		.4byte	.LLST74
 3409 0de6 13       		.uleb128 0x13
 3410 0de7 0C030000 		.4byte	.LASF61
 3411 0deb 01       		.byte	0x1
 3412 0dec 6703     		.2byte	0x367
 3413 0dee AD000000 		.4byte	0xad
 3414 0df2 FF0C0000 		.4byte	.LLST75
 3415 0df6 13       		.uleb128 0x13
 3416 0df7 5C010000 		.4byte	.LASF64
 3417 0dfb 01       		.byte	0x1
 3418 0dfc 6703     		.2byte	0x367
 3419 0dfe AD000000 		.4byte	0xad
 3420 0e02 280D0000 		.4byte	.LLST76
 3421 0e06 13       		.uleb128 0x13
 3422 0e07 51070000 		.4byte	.LASF70
 3423 0e0b 01       		.byte	0x1
 3424 0e0c 6703     		.2byte	0x367
 3425 0e0e AD000000 		.4byte	0xad
 3426 0e12 510D0000 		.4byte	.LLST77
 3427 0e16 19       		.uleb128 0x19
 3428 0e17 00030000 		.4byte	.LASF92
 3429 0e1b 01       		.byte	0x1
 3430 0e1c 6803     		.2byte	0x368
 3431 0e1e AD000000 		.4byte	0xad
 3432 0e22 02       		.uleb128 0x2
 3433 0e23 91       		.byte	0x91
 3434 0e24 6C       		.sleb128 -20
 3435 0e25 1A       		.uleb128 0x1a
 3436 0e26 12000000 		.4byte	.LVL179
 3437 0e2a 47020000 		.4byte	0x247
 3438 0e2e 390E0000 		.4byte	0xe39
 3439 0e32 18       		.uleb128 0x18
 3440 0e33 01       		.uleb128 0x1
 3441 0e34 50       		.byte	0x50
 3442 0e35 02       		.uleb128 0x2
 3443 0e36 74       		.byte	0x74
ARM GAS  C:\Users\df16\AppData\Local\Temp\ccjld08w.s 			page 92


 3444 0e37 00       		.sleb128 0
 3445 0e38 00       		.byte	0
 3446 0e39 17       		.uleb128 0x17
 3447 0e3a 26000000 		.4byte	.LVL182
 3448 0e3e 8D040000 		.4byte	0x48d
 3449 0e42 18       		.uleb128 0x18
 3450 0e43 01       		.uleb128 0x1
 3451 0e44 50       		.byte	0x50
 3452 0e45 02       		.uleb128 0x2
 3453 0e46 74       		.byte	0x74
 3454 0e47 00       		.sleb128 0
 3455 0e48 18       		.uleb128 0x18
 3456 0e49 01       		.uleb128 0x1
 3457 0e4a 51       		.byte	0x51
 3458 0e4b 02       		.uleb128 0x2
 3459 0e4c 91       		.byte	0x91
 3460 0e4d 6C       		.sleb128 -20
 3461 0e4e 18       		.uleb128 0x18
 3462 0e4f 01       		.uleb128 0x1
 3463 0e50 52       		.byte	0x52
 3464 0e51 01       		.uleb128 0x1
 3465 0e52 34       		.byte	0x34
 3466 0e53 00       		.byte	0
 3467 0e54 00       		.byte	0
 3468 0e55 21       		.uleb128 0x21
 3469 0e56 89020000 		.4byte	.LASF93
 3470 0e5a 01       		.byte	0x1
 3471 0e5b 9103     		.2byte	0x391
 3472 0e5d AD000000 		.4byte	0xad
 3473 0e61 00000000 		.4byte	.LFB78
 3474 0e65 76000000 		.4byte	.LFE78-.LFB78
 3475 0e69 01       		.uleb128 0x1
 3476 0e6a 9C       		.byte	0x9c
 3477 0e6b B20F0000 		.4byte	0xfb2
 3478 0e6f 12       		.uleb128 0x12
 3479 0e70 4B020000 		.4byte	.LASF76
 3480 0e74 01       		.byte	0x1
 3481 0e75 9103     		.2byte	0x391
 3482 0e77 75010000 		.4byte	0x175
 3483 0e7b 640D0000 		.4byte	.LLST78
 3484 0e7f 12       		.uleb128 0x12
 3485 0e80 00070000 		.4byte	.LASF67
 3486 0e84 01       		.byte	0x1
 3487 0e85 9203     		.2byte	0x392
 3488 0e87 C6000000 		.4byte	0xc6
 3489 0e8b 820D0000 		.4byte	.LLST79
 3490 0e8f 12       		.uleb128 0x12
 3491 0e90 0D000000 		.4byte	.LASF68
 3492 0e94 01       		.byte	0x1
 3493 0e95 9303     		.2byte	0x393
 3494 0e97 AD000000 		.4byte	0xad
 3495 0e9b C70D0000 		.4byte	.LLST80
 3496 0e9f 12       		.uleb128 0x12
 3497 0ea0 09070000 		.4byte	.LASF88
 3498 0ea4 01       		.byte	0x1
 3499 0ea5 9403     		.2byte	0x394
 3500 0ea7 0E0C0000 		.4byte	0xc0e
ARM GAS  C:\Users\df16\AppData\Local\Temp\ccjld08w.s 			page 93


 3501 0eab 0C0E0000 		.4byte	.LLST81
 3502 0eaf 13       		.uleb128 0x13
 3503 0eb0 3C030000 		.4byte	.LASF47
 3504 0eb4 01       		.byte	0x1
 3505 0eb5 9603     		.2byte	0x396
 3506 0eb7 19030000 		.4byte	0x319
 3507 0ebb 2A0E0000 		.4byte	.LLST82
 3508 0ebf 13       		.uleb128 0x13
 3509 0ec0 15020000 		.4byte	.LASF71
 3510 0ec4 01       		.byte	0x1
 3511 0ec5 9703     		.2byte	0x397
 3512 0ec7 AD000000 		.4byte	0xad
 3513 0ecb 480E0000 		.4byte	.LLST83
 3514 0ecf 13       		.uleb128 0x13
 3515 0ed0 5C010000 		.4byte	.LASF64
 3516 0ed4 01       		.byte	0x1
 3517 0ed5 9703     		.2byte	0x397
 3518 0ed7 AD000000 		.4byte	0xad
 3519 0edb 890E0000 		.4byte	.LLST84
 3520 0edf 13       		.uleb128 0x13
 3521 0ee0 02060000 		.4byte	.LASF69
 3522 0ee4 01       		.byte	0x1
 3523 0ee5 9703     		.2byte	0x397
 3524 0ee7 AD000000 		.4byte	0xad
 3525 0eeb B20E0000 		.4byte	.LLST85
 3526 0eef 23       		.uleb128 0x23
 3527 0ef0 38000000 		.4byte	.LBB25
 3528 0ef4 34000000 		.4byte	.LBE25-.LBB25
 3529 0ef8 7A0F0000 		.4byte	0xf7a
 3530 0efc 24       		.uleb128 0x24
 3531 0efd E9060000 		.4byte	.LASF89
 3532 0f01 01       		.byte	0x1
 3533 0f02 B803     		.2byte	0x3b8
 3534 0f04 E8000000 		.4byte	0xe8
 3535 0f08 25       		.uleb128 0x25
 3536 0f09 08020000 		.4byte	0x208
 3537 0f0d 38000000 		.4byte	.LBB26
 3538 0f11 14000000 		.4byte	.LBE26-.LBB26
 3539 0f15 01       		.byte	0x1
 3540 0f16 B803     		.2byte	0x3b8
 3541 0f18 310F0000 		.4byte	0xf31
 3542 0f1c 26       		.uleb128 0x26
 3543 0f1d 38000000 		.4byte	.LBB27
 3544 0f21 14000000 		.4byte	.LBE27-.LBB27
 3545 0f25 27       		.uleb128 0x27
 3546 0f26 18020000 		.4byte	0x218
 3547 0f2a 27       		.uleb128 0x27
 3548 0f2b 23020000 		.4byte	0x223
 3549 0f2f 00       		.byte	0
 3550 0f30 00       		.byte	0
 3551 0f31 25       		.uleb128 0x25
 3552 0f32 2F020000 		.4byte	0x22f
 3553 0f36 66000000 		.4byte	.LBB28
 3554 0f3a 06000000 		.4byte	.LBE28-.LBB28
 3555 0f3e 01       		.byte	0x1
 3556 0f3f B803     		.2byte	0x3b8
 3557 0f41 4F0F0000 		.4byte	0xf4f
ARM GAS  C:\Users\df16\AppData\Local\Temp\ccjld08w.s 			page 94


 3558 0f45 28       		.uleb128 0x28
 3559 0f46 3B020000 		.4byte	0x23b
 3560 0f4a D00E0000 		.4byte	.LLST86
 3561 0f4e 00       		.byte	0
 3562 0f4f 17       		.uleb128 0x17
 3563 0f50 64000000 		.4byte	.LVL200
 3564 0f54 CA120000 		.4byte	0x12ca
 3565 0f58 18       		.uleb128 0x18
 3566 0f59 01       		.uleb128 0x1
 3567 0f5a 51       		.byte	0x51
 3568 0f5b 02       		.uleb128 0x2
 3569 0f5c 76       		.byte	0x76
 3570 0f5d 00       		.sleb128 0
 3571 0f5e 18       		.uleb128 0x18
 3572 0f5f 01       		.uleb128 0x1
 3573 0f60 52       		.byte	0x52
 3574 0f61 02       		.uleb128 0x2
 3575 0f62 76       		.byte	0x76
 3576 0f63 00       		.sleb128 0
 3577 0f64 18       		.uleb128 0x18
 3578 0f65 01       		.uleb128 0x1
 3579 0f66 53       		.byte	0x53
 3580 0f67 02       		.uleb128 0x2
 3581 0f68 76       		.byte	0x76
 3582 0f69 00       		.sleb128 0
 3583 0f6a 18       		.uleb128 0x18
 3584 0f6b 02       		.uleb128 0x2
 3585 0f6c 7D       		.byte	0x7d
 3586 0f6d 00       		.sleb128 0
 3587 0f6e 02       		.uleb128 0x2
 3588 0f6f 76       		.byte	0x76
 3589 0f70 00       		.sleb128 0
 3590 0f71 18       		.uleb128 0x18
 3591 0f72 02       		.uleb128 0x2
 3592 0f73 7D       		.byte	0x7d
 3593 0f74 04       		.sleb128 4
 3594 0f75 02       		.uleb128 0x2
 3595 0f76 78       		.byte	0x78
 3596 0f77 00       		.sleb128 0
 3597 0f78 00       		.byte	0
 3598 0f79 00       		.byte	0
 3599 0f7a 1A       		.uleb128 0x1a
 3600 0f7b 22000000 		.4byte	.LVL193
 3601 0f7f 47020000 		.4byte	0x247
 3602 0f83 8E0F0000 		.4byte	0xf8e
 3603 0f87 18       		.uleb128 0x18
 3604 0f88 01       		.uleb128 0x1
 3605 0f89 50       		.byte	0x50
 3606 0f8a 02       		.uleb128 0x2
 3607 0f8b 74       		.byte	0x74
 3608 0f8c 00       		.sleb128 0
 3609 0f8d 00       		.byte	0
 3610 0f8e 17       		.uleb128 0x17
 3611 0f8f 34000000 		.4byte	.LVL195
 3612 0f93 4E050000 		.4byte	0x54e
 3613 0f97 18       		.uleb128 0x18
 3614 0f98 01       		.uleb128 0x1
ARM GAS  C:\Users\df16\AppData\Local\Temp\ccjld08w.s 			page 95


 3615 0f99 50       		.byte	0x50
 3616 0f9a 02       		.uleb128 0x2
 3617 0f9b 74       		.byte	0x74
 3618 0f9c 00       		.sleb128 0
 3619 0f9d 18       		.uleb128 0x18
 3620 0f9e 01       		.uleb128 0x1
 3621 0f9f 51       		.byte	0x51
 3622 0fa0 02       		.uleb128 0x2
 3623 0fa1 76       		.byte	0x76
 3624 0fa2 00       		.sleb128 0
 3625 0fa3 18       		.uleb128 0x18
 3626 0fa4 01       		.uleb128 0x1
 3627 0fa5 52       		.byte	0x52
 3628 0fa6 02       		.uleb128 0x2
 3629 0fa7 77       		.byte	0x77
 3630 0fa8 00       		.sleb128 0
 3631 0fa9 18       		.uleb128 0x18
 3632 0faa 02       		.uleb128 0x2
 3633 0fab 7D       		.byte	0x7d
 3634 0fac 00       		.sleb128 0
 3635 0fad 02       		.uleb128 0x2
 3636 0fae 75       		.byte	0x75
 3637 0faf 00       		.sleb128 0
 3638 0fb0 00       		.byte	0
 3639 0fb1 00       		.byte	0
 3640 0fb2 21       		.uleb128 0x21
 3641 0fb3 D7020000 		.4byte	.LASF94
 3642 0fb7 01       		.byte	0x1
 3643 0fb8 FE03     		.2byte	0x3fe
 3644 0fba DD000000 		.4byte	0xdd
 3645 0fbe 00000000 		.4byte	.LFB80
 3646 0fc2 10000000 		.4byte	.LFE80-.LFB80
 3647 0fc6 01       		.uleb128 0x1
 3648 0fc7 9C       		.byte	0x9c
 3649 0fc8 09100000 		.4byte	0x1009
 3650 0fcc 12       		.uleb128 0x12
 3651 0fcd 4B020000 		.4byte	.LASF76
 3652 0fd1 01       		.byte	0x1
 3653 0fd2 FE03     		.2byte	0x3fe
 3654 0fd4 75010000 		.4byte	0x175
 3655 0fd8 E30E0000 		.4byte	.LLST87
 3656 0fdc 13       		.uleb128 0x13
 3657 0fdd 3C030000 		.4byte	.LASF47
 3658 0fe1 01       		.byte	0x1
 3659 0fe2 0004     		.2byte	0x400
 3660 0fe4 8D020000 		.4byte	0x28d
 3661 0fe8 1D0F0000 		.4byte	.LLST88
 3662 0fec 19       		.uleb128 0x19
 3663 0fed 0C030000 		.4byte	.LASF61
 3664 0ff1 01       		.byte	0x1
 3665 0ff2 0104     		.2byte	0x401
 3666 0ff4 DD000000 		.4byte	0xdd
 3667 0ff8 01       		.uleb128 0x1
 3668 0ff9 50       		.byte	0x50
 3669 0ffa 19       		.uleb128 0x19
 3670 0ffb 3F060000 		.4byte	.LASF36
 3671 0fff 01       		.byte	0x1
ARM GAS  C:\Users\df16\AppData\Local\Temp\ccjld08w.s 			page 96


 3672 1000 0204     		.2byte	0x402
 3673 1002 AD000000 		.4byte	0xad
 3674 1006 01       		.uleb128 0x1
 3675 1007 52       		.byte	0x52
 3676 1008 00       		.byte	0
 3677 1009 21       		.uleb128 0x21
 3678 100a AC020000 		.4byte	.LASF95
 3679 100e 01       		.byte	0x1
 3680 100f 1604     		.2byte	0x416
 3681 1011 DD000000 		.4byte	0xdd
 3682 1015 00000000 		.4byte	.LFB81
 3683 1019 20000000 		.4byte	.LFE81-.LFB81
 3684 101d 01       		.uleb128 0x1
 3685 101e 9C       		.byte	0x9c
 3686 101f 69100000 		.4byte	0x1069
 3687 1023 12       		.uleb128 0x12
 3688 1024 4B020000 		.4byte	.LASF76
 3689 1028 01       		.byte	0x1
 3690 1029 1604     		.2byte	0x416
 3691 102b 75010000 		.4byte	0x175
 3692 102f 570F0000 		.4byte	.LLST89
 3693 1033 19       		.uleb128 0x19
 3694 1034 0C030000 		.4byte	.LASF61
 3695 1038 01       		.byte	0x1
 3696 1039 1804     		.2byte	0x418
 3697 103b DD000000 		.4byte	0xdd
 3698 103f 01       		.uleb128 0x1
 3699 1040 50       		.byte	0x50
 3700 1041 19       		.uleb128 0x19
 3701 1042 02060000 		.4byte	.LASF69
 3702 1046 01       		.byte	0x1
 3703 1047 1904     		.2byte	0x419
 3704 1049 AD000000 		.4byte	0xad
 3705 104d 01       		.uleb128 0x1
 3706 104e 54       		.byte	0x54
 3707 104f 13       		.uleb128 0x13
 3708 1050 3C030000 		.4byte	.LASF47
 3709 1054 01       		.byte	0x1
 3710 1055 1A04     		.2byte	0x41a
 3711 1057 8D020000 		.4byte	0x28d
 3712 105b 780F0000 		.4byte	.LLST90
 3713 105f 22       		.uleb128 0x22
 3714 1060 14000000 		.4byte	.LVL212
 3715 1064 0A080000 		.4byte	0x80a
 3716 1068 00       		.byte	0
 3717 1069 21       		.uleb128 0x21
 3718 106a 45060000 		.4byte	.LASF96
 3719 106e 01       		.byte	0x1
 3720 106f 3904     		.2byte	0x439
 3721 1071 DD000000 		.4byte	0xdd
 3722 1075 00000000 		.4byte	.LFB82
 3723 1079 40000000 		.4byte	.LFE82-.LFB82
 3724 107d 01       		.uleb128 0x1
 3725 107e 9C       		.byte	0x9c
 3726 107f 42110000 		.4byte	0x1142
 3727 1083 12       		.uleb128 0x12
 3728 1084 4B020000 		.4byte	.LASF76
ARM GAS  C:\Users\df16\AppData\Local\Temp\ccjld08w.s 			page 97


 3729 1088 01       		.byte	0x1
 3730 1089 3904     		.2byte	0x439
 3731 108b 75010000 		.4byte	0x175
 3732 108f 990F0000 		.4byte	.LLST91
 3733 1093 12       		.uleb128 0x12
 3734 1094 09070000 		.4byte	.LASF88
 3735 1098 01       		.byte	0x1
 3736 1099 3A04     		.2byte	0x43a
 3737 109b 080C0000 		.4byte	0xc08
 3738 109f D00F0000 		.4byte	.LLST92
 3739 10a3 13       		.uleb128 0x13
 3740 10a4 3C030000 		.4byte	.LASF47
 3741 10a8 01       		.byte	0x1
 3742 10a9 3C04     		.2byte	0x43c
 3743 10ab 19030000 		.4byte	0x319
 3744 10af 16100000 		.4byte	.LLST93
 3745 10b3 13       		.uleb128 0x13
 3746 10b4 0C030000 		.4byte	.LASF61
 3747 10b8 01       		.byte	0x1
 3748 10b9 3D04     		.2byte	0x43d
 3749 10bb DD000000 		.4byte	0xdd
 3750 10bf 4D100000 		.4byte	.LLST94
 3751 10c3 24       		.uleb128 0x24
 3752 10c4 E9060000 		.4byte	.LASF89
 3753 10c8 01       		.byte	0x1
 3754 10c9 3E04     		.2byte	0x43e
 3755 10cb E8000000 		.4byte	0xe8
 3756 10cf 25       		.uleb128 0x25
 3757 10d0 08020000 		.4byte	0x208
 3758 10d4 04000000 		.4byte	.LBB30
 3759 10d8 14000000 		.4byte	.LBE30-.LBB30
 3760 10dc 01       		.byte	0x1
 3761 10dd 4204     		.2byte	0x442
 3762 10df F8100000 		.4byte	0x10f8
 3763 10e3 26       		.uleb128 0x26
 3764 10e4 04000000 		.4byte	.LBB31
 3765 10e8 14000000 		.4byte	.LBE31-.LBB31
 3766 10ec 27       		.uleb128 0x27
 3767 10ed 18020000 		.4byte	0x218
 3768 10f1 27       		.uleb128 0x27
 3769 10f2 23020000 		.4byte	0x223
 3770 10f6 00       		.byte	0
 3771 10f7 00       		.byte	0
 3772 10f8 25       		.uleb128 0x25
 3773 10f9 2F020000 		.4byte	0x22f
 3774 10fd 38000000 		.4byte	.LBB32
 3775 1101 04000000 		.4byte	.LBE32-.LBB32
 3776 1105 01       		.byte	0x1
 3777 1106 5204     		.2byte	0x452
 3778 1108 16110000 		.4byte	0x1116
 3779 110c 28       		.uleb128 0x28
 3780 110d 3B020000 		.4byte	0x23b
 3781 1111 6C100000 		.4byte	.LLST95
 3782 1115 00       		.byte	0
 3783 1116 17       		.uleb128 0x17
 3784 1117 30000000 		.4byte	.LVL219
 3785 111b CA120000 		.4byte	0x12ca
ARM GAS  C:\Users\df16\AppData\Local\Temp\ccjld08w.s 			page 98


 3786 111f 18       		.uleb128 0x18
 3787 1120 01       		.uleb128 0x1
 3788 1121 51       		.byte	0x51
 3789 1122 02       		.uleb128 0x2
 3790 1123 75       		.byte	0x75
 3791 1124 00       		.sleb128 0
 3792 1125 18       		.uleb128 0x18
 3793 1126 01       		.uleb128 0x1
 3794 1127 52       		.byte	0x52
 3795 1128 02       		.uleb128 0x2
 3796 1129 75       		.byte	0x75
 3797 112a 00       		.sleb128 0
 3798 112b 18       		.uleb128 0x18
 3799 112c 01       		.uleb128 0x1
 3800 112d 53       		.byte	0x53
 3801 112e 02       		.uleb128 0x2
 3802 112f 75       		.byte	0x75
 3803 1130 00       		.sleb128 0
 3804 1131 18       		.uleb128 0x18
 3805 1132 02       		.uleb128 0x2
 3806 1133 7D       		.byte	0x7d
 3807 1134 00       		.sleb128 0
 3808 1135 02       		.uleb128 0x2
 3809 1136 75       		.byte	0x75
 3810 1137 00       		.sleb128 0
 3811 1138 18       		.uleb128 0x18
 3812 1139 02       		.uleb128 0x2
 3813 113a 7D       		.byte	0x7d
 3814 113b 04       		.sleb128 4
 3815 113c 03       		.uleb128 0x3
 3816 113d F3       		.byte	0xf3
 3817 113e 01       		.uleb128 0x1
 3818 113f 51       		.byte	0x51
 3819 1140 00       		.byte	0
 3820 1141 00       		.byte	0
 3821 1142 21       		.uleb128 0x21
 3822 1143 37010000 		.4byte	.LASF97
 3823 1147 01       		.byte	0x1
 3824 1148 5804     		.2byte	0x458
 3825 114a DD000000 		.4byte	0xdd
 3826 114e 00000000 		.4byte	.LFB83
 3827 1152 40000000 		.4byte	.LFE83-.LFB83
 3828 1156 01       		.uleb128 0x1
 3829 1157 9C       		.byte	0x9c
 3830 1158 1B120000 		.4byte	0x121b
 3831 115c 12       		.uleb128 0x12
 3832 115d 4B020000 		.4byte	.LASF76
 3833 1161 01       		.byte	0x1
 3834 1162 5804     		.2byte	0x458
 3835 1164 75010000 		.4byte	0x175
 3836 1168 7F100000 		.4byte	.LLST96
 3837 116c 12       		.uleb128 0x12
 3838 116d 09070000 		.4byte	.LASF88
 3839 1171 01       		.byte	0x1
 3840 1172 5904     		.2byte	0x459
 3841 1174 080C0000 		.4byte	0xc08
 3842 1178 B6100000 		.4byte	.LLST97
ARM GAS  C:\Users\df16\AppData\Local\Temp\ccjld08w.s 			page 99


 3843 117c 13       		.uleb128 0x13
 3844 117d 3C030000 		.4byte	.LASF47
 3845 1181 01       		.byte	0x1
 3846 1182 5B04     		.2byte	0x45b
 3847 1184 19030000 		.4byte	0x319
 3848 1188 FC100000 		.4byte	.LLST98
 3849 118c 13       		.uleb128 0x13
 3850 118d 0C030000 		.4byte	.LASF61
 3851 1191 01       		.byte	0x1
 3852 1192 5C04     		.2byte	0x45c
 3853 1194 DD000000 		.4byte	0xdd
 3854 1198 33110000 		.4byte	.LLST99
 3855 119c 24       		.uleb128 0x24
 3856 119d E9060000 		.4byte	.LASF89
 3857 11a1 01       		.byte	0x1
 3858 11a2 5D04     		.2byte	0x45d
 3859 11a4 E8000000 		.4byte	0xe8
 3860 11a8 25       		.uleb128 0x25
 3861 11a9 08020000 		.4byte	0x208
 3862 11ad 04000000 		.4byte	.LBB34
 3863 11b1 14000000 		.4byte	.LBE34-.LBB34
 3864 11b5 01       		.byte	0x1
 3865 11b6 6104     		.2byte	0x461
 3866 11b8 D1110000 		.4byte	0x11d1
 3867 11bc 26       		.uleb128 0x26
 3868 11bd 04000000 		.4byte	.LBB35
 3869 11c1 14000000 		.4byte	.LBE35-.LBB35
 3870 11c5 27       		.uleb128 0x27
 3871 11c6 18020000 		.4byte	0x218
 3872 11ca 27       		.uleb128 0x27
 3873 11cb 23020000 		.4byte	0x223
 3874 11cf 00       		.byte	0
 3875 11d0 00       		.byte	0
 3876 11d1 25       		.uleb128 0x25
 3877 11d2 2F020000 		.4byte	0x22f
 3878 11d6 38000000 		.4byte	.LBB36
 3879 11da 04000000 		.4byte	.LBE36-.LBB36
 3880 11de 01       		.byte	0x1
 3881 11df 7104     		.2byte	0x471
 3882 11e1 EF110000 		.4byte	0x11ef
 3883 11e5 28       		.uleb128 0x28
 3884 11e6 3B020000 		.4byte	0x23b
 3885 11ea 52110000 		.4byte	.LLST100
 3886 11ee 00       		.byte	0
 3887 11ef 17       		.uleb128 0x17
 3888 11f0 30000000 		.4byte	.LVL228
 3889 11f4 CA120000 		.4byte	0x12ca
 3890 11f8 18       		.uleb128 0x18
 3891 11f9 01       		.uleb128 0x1
 3892 11fa 51       		.byte	0x51
 3893 11fb 02       		.uleb128 0x2
 3894 11fc 75       		.byte	0x75
 3895 11fd 00       		.sleb128 0
 3896 11fe 18       		.uleb128 0x18
 3897 11ff 01       		.uleb128 0x1
 3898 1200 52       		.byte	0x52
 3899 1201 02       		.uleb128 0x2
ARM GAS  C:\Users\df16\AppData\Local\Temp\ccjld08w.s 			page 100


 3900 1202 75       		.byte	0x75
 3901 1203 00       		.sleb128 0
 3902 1204 18       		.uleb128 0x18
 3903 1205 01       		.uleb128 0x1
 3904 1206 53       		.byte	0x53
 3905 1207 02       		.uleb128 0x2
 3906 1208 75       		.byte	0x75
 3907 1209 00       		.sleb128 0
 3908 120a 18       		.uleb128 0x18
 3909 120b 02       		.uleb128 0x2
 3910 120c 7D       		.byte	0x7d
 3911 120d 00       		.sleb128 0
 3912 120e 02       		.uleb128 0x2
 3913 120f 75       		.byte	0x75
 3914 1210 00       		.sleb128 0
 3915 1211 18       		.uleb128 0x18
 3916 1212 02       		.uleb128 0x2
 3917 1213 7D       		.byte	0x7d
 3918 1214 04       		.sleb128 4
 3919 1215 03       		.uleb128 0x3
 3920 1216 F3       		.byte	0xf3
 3921 1217 01       		.uleb128 0x1
 3922 1218 51       		.byte	0x51
 3923 1219 00       		.byte	0
 3924 121a 00       		.byte	0
 3925 121b 29       		.uleb128 0x29
 3926 121c 5F070000 		.4byte	.LASF122
 3927 1220 09       		.byte	0x9
 3928 1221 1207     		.2byte	0x712
 3929 1223 27120000 		.4byte	0x1227
 3930 1227 0C       		.uleb128 0xc
 3931 1228 97000000 		.4byte	0x97
 3932 122c 2A       		.uleb128 0x2a
 3933 122d A5020000 		.4byte	.LASF98
 3934 1231 A5020000 		.4byte	.LASF98
 3935 1235 2A       		.uleb128 0x2a
 3936 1236 FB010000 		.4byte	.LASF99
 3937 123a FB010000 		.4byte	.LASF99
 3938 123e 2B       		.uleb128 0x2b
 3939 123f 41080000 		.4byte	.LASF100
 3940 1243 41080000 		.4byte	.LASF100
 3941 1247 08       		.byte	0x8
 3942 1248 B0       		.byte	0xb0
 3943 1249 2B       		.uleb128 0x2b
 3944 124a 8B060000 		.4byte	.LASF101
 3945 124e 8B060000 		.4byte	.LASF101
 3946 1252 08       		.byte	0x8
 3947 1253 B1       		.byte	0xb1
 3948 1254 2B       		.uleb128 0x2b
 3949 1255 22050000 		.4byte	.LASF102
 3950 1259 22050000 		.4byte	.LASF102
 3951 125d 02       		.byte	0x2
 3952 125e 62       		.byte	0x62
 3953 125f 2B       		.uleb128 0x2b
 3954 1260 A0050000 		.4byte	.LASF103
 3955 1264 A0050000 		.4byte	.LASF103
 3956 1268 02       		.byte	0x2
ARM GAS  C:\Users\df16\AppData\Local\Temp\ccjld08w.s 			page 101


 3957 1269 63       		.byte	0x63
 3958 126a 2C       		.uleb128 0x2c
 3959 126b E6010000 		.4byte	.LASF104
 3960 126f E6010000 		.4byte	.LASF104
 3961 1273 06       		.byte	0x6
 3962 1274 930A     		.2byte	0xa93
 3963 1276 2C       		.uleb128 0x2c
 3964 1277 64000000 		.4byte	.LASF105
 3965 127b 64000000 		.4byte	.LASF105
 3966 127f 06       		.byte	0x6
 3967 1280 3C0A     		.2byte	0xa3c
 3968 1282 2C       		.uleb128 0x2c
 3969 1283 FA070000 		.4byte	.LASF106
 3970 1287 FA070000 		.4byte	.LASF106
 3971 128b 06       		.byte	0x6
 3972 128c 800B     		.2byte	0xb80
 3973 128e 2C       		.uleb128 0x2c
 3974 128f 81000000 		.4byte	.LASF107
 3975 1293 81000000 		.4byte	.LASF107
 3976 1297 06       		.byte	0x6
 3977 1298 EF08     		.2byte	0x8ef
 3978 129a 2C       		.uleb128 0x2c
 3979 129b 14030000 		.4byte	.LASF108
 3980 129f 14030000 		.4byte	.LASF108
 3981 12a3 06       		.byte	0x6
 3982 12a4 E80A     		.2byte	0xae8
 3983 12a6 2C       		.uleb128 0x2c
 3984 12a7 4E080000 		.4byte	.LASF109
 3985 12ab 4E080000 		.4byte	.LASF109
 3986 12af 06       		.byte	0x6
 3987 12b0 3B05     		.2byte	0x53b
 3988 12b2 2C       		.uleb128 0x2c
 3989 12b3 02020000 		.4byte	.LASF110
 3990 12b7 02020000 		.4byte	.LASF110
 3991 12bb 06       		.byte	0x6
 3992 12bc CD07     		.2byte	0x7cd
 3993 12be 2C       		.uleb128 0x2c
 3994 12bf 00050000 		.4byte	.LASF111
 3995 12c3 00050000 		.4byte	.LASF111
 3996 12c7 06       		.byte	0x6
 3997 12c8 7305     		.2byte	0x573
 3998 12ca 2C       		.uleb128 0x2c
 3999 12cb AF010000 		.4byte	.LASF112
 4000 12cf AF010000 		.4byte	.LASF112
 4001 12d3 06       		.byte	0x6
 4002 12d4 6108     		.2byte	0x861
 4003 12d6 00       		.byte	0
 4004              		.section	.debug_abbrev,"",%progbits
 4005              	.Ldebug_abbrev0:
 4006 0000 01       		.uleb128 0x1
 4007 0001 11       		.uleb128 0x11
 4008 0002 01       		.byte	0x1
 4009 0003 25       		.uleb128 0x25
 4010 0004 0E       		.uleb128 0xe
 4011 0005 13       		.uleb128 0x13
 4012 0006 0B       		.uleb128 0xb
 4013 0007 03       		.uleb128 0x3
ARM GAS  C:\Users\df16\AppData\Local\Temp\ccjld08w.s 			page 102


 4014 0008 0E       		.uleb128 0xe
 4015 0009 1B       		.uleb128 0x1b
 4016 000a 0E       		.uleb128 0xe
 4017 000b 55       		.uleb128 0x55
 4018 000c 17       		.uleb128 0x17
 4019 000d 11       		.uleb128 0x11
 4020 000e 01       		.uleb128 0x1
 4021 000f 10       		.uleb128 0x10
 4022 0010 17       		.uleb128 0x17
 4023 0011 00       		.byte	0
 4024 0012 00       		.byte	0
 4025 0013 02       		.uleb128 0x2
 4026 0014 24       		.uleb128 0x24
 4027 0015 00       		.byte	0
 4028 0016 0B       		.uleb128 0xb
 4029 0017 0B       		.uleb128 0xb
 4030 0018 3E       		.uleb128 0x3e
 4031 0019 0B       		.uleb128 0xb
 4032 001a 03       		.uleb128 0x3
 4033 001b 0E       		.uleb128 0xe
 4034 001c 00       		.byte	0
 4035 001d 00       		.byte	0
 4036 001e 03       		.uleb128 0x3
 4037 001f 16       		.uleb128 0x16
 4038 0020 00       		.byte	0
 4039 0021 03       		.uleb128 0x3
 4040 0022 0E       		.uleb128 0xe
 4041 0023 3A       		.uleb128 0x3a
 4042 0024 0B       		.uleb128 0xb
 4043 0025 3B       		.uleb128 0x3b
 4044 0026 0B       		.uleb128 0xb
 4045 0027 49       		.uleb128 0x49
 4046 0028 13       		.uleb128 0x13
 4047 0029 00       		.byte	0
 4048 002a 00       		.byte	0
 4049 002b 04       		.uleb128 0x4
 4050 002c 24       		.uleb128 0x24
 4051 002d 00       		.byte	0
 4052 002e 0B       		.uleb128 0xb
 4053 002f 0B       		.uleb128 0xb
 4054 0030 3E       		.uleb128 0x3e
 4055 0031 0B       		.uleb128 0xb
 4056 0032 03       		.uleb128 0x3
 4057 0033 08       		.uleb128 0x8
 4058 0034 00       		.byte	0
 4059 0035 00       		.byte	0
 4060 0036 05       		.uleb128 0x5
 4061 0037 0F       		.uleb128 0xf
 4062 0038 00       		.byte	0
 4063 0039 0B       		.uleb128 0xb
 4064 003a 0B       		.uleb128 0xb
 4065 003b 00       		.byte	0
 4066 003c 00       		.byte	0
 4067 003d 06       		.uleb128 0x6
 4068 003e 0F       		.uleb128 0xf
 4069 003f 00       		.byte	0
 4070 0040 0B       		.uleb128 0xb
ARM GAS  C:\Users\df16\AppData\Local\Temp\ccjld08w.s 			page 103


 4071 0041 0B       		.uleb128 0xb
 4072 0042 49       		.uleb128 0x49
 4073 0043 13       		.uleb128 0x13
 4074 0044 00       		.byte	0
 4075 0045 00       		.byte	0
 4076 0046 07       		.uleb128 0x7
 4077 0047 13       		.uleb128 0x13
 4078 0048 00       		.byte	0
 4079 0049 03       		.uleb128 0x3
 4080 004a 0E       		.uleb128 0xe
 4081 004b 3C       		.uleb128 0x3c
 4082 004c 19       		.uleb128 0x19
 4083 004d 00       		.byte	0
 4084 004e 00       		.byte	0
 4085 004f 08       		.uleb128 0x8
 4086 0050 04       		.uleb128 0x4
 4087 0051 01       		.byte	0x1
 4088 0052 0B       		.uleb128 0xb
 4089 0053 0B       		.uleb128 0xb
 4090 0054 49       		.uleb128 0x49
 4091 0055 13       		.uleb128 0x13
 4092 0056 3A       		.uleb128 0x3a
 4093 0057 0B       		.uleb128 0xb
 4094 0058 3B       		.uleb128 0x3b
 4095 0059 0B       		.uleb128 0xb
 4096 005a 01       		.uleb128 0x1
 4097 005b 13       		.uleb128 0x13
 4098 005c 00       		.byte	0
 4099 005d 00       		.byte	0
 4100 005e 09       		.uleb128 0x9
 4101 005f 28       		.uleb128 0x28
 4102 0060 00       		.byte	0
 4103 0061 03       		.uleb128 0x3
 4104 0062 0E       		.uleb128 0xe
 4105 0063 1C       		.uleb128 0x1c
 4106 0064 0B       		.uleb128 0xb
 4107 0065 00       		.byte	0
 4108 0066 00       		.byte	0
 4109 0067 0A       		.uleb128 0xa
 4110 0068 13       		.uleb128 0x13
 4111 0069 01       		.byte	0x1
 4112 006a 03       		.uleb128 0x3
 4113 006b 0E       		.uleb128 0xe
 4114 006c 0B       		.uleb128 0xb
 4115 006d 0B       		.uleb128 0xb
 4116 006e 3A       		.uleb128 0x3a
 4117 006f 0B       		.uleb128 0xb
 4118 0070 3B       		.uleb128 0x3b
 4119 0071 0B       		.uleb128 0xb
 4120 0072 01       		.uleb128 0x1
 4121 0073 13       		.uleb128 0x13
 4122 0074 00       		.byte	0
 4123 0075 00       		.byte	0
 4124 0076 0B       		.uleb128 0xb
 4125 0077 0D       		.uleb128 0xd
 4126 0078 00       		.byte	0
 4127 0079 03       		.uleb128 0x3
ARM GAS  C:\Users\df16\AppData\Local\Temp\ccjld08w.s 			page 104


 4128 007a 0E       		.uleb128 0xe
 4129 007b 3A       		.uleb128 0x3a
 4130 007c 0B       		.uleb128 0xb
 4131 007d 3B       		.uleb128 0x3b
 4132 007e 0B       		.uleb128 0xb
 4133 007f 49       		.uleb128 0x49
 4134 0080 13       		.uleb128 0x13
 4135 0081 38       		.uleb128 0x38
 4136 0082 0B       		.uleb128 0xb
 4137 0083 00       		.byte	0
 4138 0084 00       		.byte	0
 4139 0085 0C       		.uleb128 0xc
 4140 0086 35       		.uleb128 0x35
 4141 0087 00       		.byte	0
 4142 0088 49       		.uleb128 0x49
 4143 0089 13       		.uleb128 0x13
 4144 008a 00       		.byte	0
 4145 008b 00       		.byte	0
 4146 008c 0D       		.uleb128 0xd
 4147 008d 2E       		.uleb128 0x2e
 4148 008e 01       		.byte	0x1
 4149 008f 03       		.uleb128 0x3
 4150 0090 0E       		.uleb128 0xe
 4151 0091 3A       		.uleb128 0x3a
 4152 0092 0B       		.uleb128 0xb
 4153 0093 3B       		.uleb128 0x3b
 4154 0094 0B       		.uleb128 0xb
 4155 0095 27       		.uleb128 0x27
 4156 0096 19       		.uleb128 0x19
 4157 0097 49       		.uleb128 0x49
 4158 0098 13       		.uleb128 0x13
 4159 0099 20       		.uleb128 0x20
 4160 009a 0B       		.uleb128 0xb
 4161 009b 01       		.uleb128 0x1
 4162 009c 13       		.uleb128 0x13
 4163 009d 00       		.byte	0
 4164 009e 00       		.byte	0
 4165 009f 0E       		.uleb128 0xe
 4166 00a0 34       		.uleb128 0x34
 4167 00a1 00       		.byte	0
 4168 00a2 03       		.uleb128 0x3
 4169 00a3 0E       		.uleb128 0xe
 4170 00a4 3A       		.uleb128 0x3a
 4171 00a5 0B       		.uleb128 0xb
 4172 00a6 3B       		.uleb128 0x3b
 4173 00a7 0B       		.uleb128 0xb
 4174 00a8 49       		.uleb128 0x49
 4175 00a9 13       		.uleb128 0x13
 4176 00aa 00       		.byte	0
 4177 00ab 00       		.byte	0
 4178 00ac 0F       		.uleb128 0xf
 4179 00ad 2E       		.uleb128 0x2e
 4180 00ae 01       		.byte	0x1
 4181 00af 03       		.uleb128 0x3
 4182 00b0 0E       		.uleb128 0xe
 4183 00b1 3A       		.uleb128 0x3a
 4184 00b2 0B       		.uleb128 0xb
ARM GAS  C:\Users\df16\AppData\Local\Temp\ccjld08w.s 			page 105


 4185 00b3 3B       		.uleb128 0x3b
 4186 00b4 0B       		.uleb128 0xb
 4187 00b5 27       		.uleb128 0x27
 4188 00b6 19       		.uleb128 0x19
 4189 00b7 20       		.uleb128 0x20
 4190 00b8 0B       		.uleb128 0xb
 4191 00b9 01       		.uleb128 0x1
 4192 00ba 13       		.uleb128 0x13
 4193 00bb 00       		.byte	0
 4194 00bc 00       		.byte	0
 4195 00bd 10       		.uleb128 0x10
 4196 00be 05       		.uleb128 0x5
 4197 00bf 00       		.byte	0
 4198 00c0 03       		.uleb128 0x3
 4199 00c1 0E       		.uleb128 0xe
 4200 00c2 3A       		.uleb128 0x3a
 4201 00c3 0B       		.uleb128 0xb
 4202 00c4 3B       		.uleb128 0x3b
 4203 00c5 0B       		.uleb128 0xb
 4204 00c6 49       		.uleb128 0x49
 4205 00c7 13       		.uleb128 0x13
 4206 00c8 00       		.byte	0
 4207 00c9 00       		.byte	0
 4208 00ca 11       		.uleb128 0x11
 4209 00cb 2E       		.uleb128 0x2e
 4210 00cc 01       		.byte	0x1
 4211 00cd 03       		.uleb128 0x3
 4212 00ce 0E       		.uleb128 0xe
 4213 00cf 3A       		.uleb128 0x3a
 4214 00d0 0B       		.uleb128 0xb
 4215 00d1 3B       		.uleb128 0x3b
 4216 00d2 05       		.uleb128 0x5
 4217 00d3 27       		.uleb128 0x27
 4218 00d4 19       		.uleb128 0x19
 4219 00d5 49       		.uleb128 0x49
 4220 00d6 13       		.uleb128 0x13
 4221 00d7 11       		.uleb128 0x11
 4222 00d8 01       		.uleb128 0x1
 4223 00d9 12       		.uleb128 0x12
 4224 00da 06       		.uleb128 0x6
 4225 00db 40       		.uleb128 0x40
 4226 00dc 18       		.uleb128 0x18
 4227 00dd 9742     		.uleb128 0x2117
 4228 00df 19       		.uleb128 0x19
 4229 00e0 01       		.uleb128 0x1
 4230 00e1 13       		.uleb128 0x13
 4231 00e2 00       		.byte	0
 4232 00e3 00       		.byte	0
 4233 00e4 12       		.uleb128 0x12
 4234 00e5 05       		.uleb128 0x5
 4235 00e6 00       		.byte	0
 4236 00e7 03       		.uleb128 0x3
 4237 00e8 0E       		.uleb128 0xe
 4238 00e9 3A       		.uleb128 0x3a
 4239 00ea 0B       		.uleb128 0xb
 4240 00eb 3B       		.uleb128 0x3b
 4241 00ec 05       		.uleb128 0x5
ARM GAS  C:\Users\df16\AppData\Local\Temp\ccjld08w.s 			page 106


 4242 00ed 49       		.uleb128 0x49
 4243 00ee 13       		.uleb128 0x13
 4244 00ef 02       		.uleb128 0x2
 4245 00f0 17       		.uleb128 0x17
 4246 00f1 00       		.byte	0
 4247 00f2 00       		.byte	0
 4248 00f3 13       		.uleb128 0x13
 4249 00f4 34       		.uleb128 0x34
 4250 00f5 00       		.byte	0
 4251 00f6 03       		.uleb128 0x3
 4252 00f7 0E       		.uleb128 0xe
 4253 00f8 3A       		.uleb128 0x3a
 4254 00f9 0B       		.uleb128 0xb
 4255 00fa 3B       		.uleb128 0x3b
 4256 00fb 05       		.uleb128 0x5
 4257 00fc 49       		.uleb128 0x49
 4258 00fd 13       		.uleb128 0x13
 4259 00fe 02       		.uleb128 0x2
 4260 00ff 17       		.uleb128 0x17
 4261 0100 00       		.byte	0
 4262 0101 00       		.byte	0
 4263 0102 14       		.uleb128 0x14
 4264 0103 26       		.uleb128 0x26
 4265 0104 00       		.byte	0
 4266 0105 49       		.uleb128 0x49
 4267 0106 13       		.uleb128 0x13
 4268 0107 00       		.byte	0
 4269 0108 00       		.byte	0
 4270 0109 15       		.uleb128 0x15
 4271 010a 2E       		.uleb128 0x2e
 4272 010b 01       		.byte	0x1
 4273 010c 03       		.uleb128 0x3
 4274 010d 0E       		.uleb128 0xe
 4275 010e 3A       		.uleb128 0x3a
 4276 010f 0B       		.uleb128 0xb
 4277 0110 3B       		.uleb128 0x3b
 4278 0111 05       		.uleb128 0x5
 4279 0112 27       		.uleb128 0x27
 4280 0113 19       		.uleb128 0x19
 4281 0114 11       		.uleb128 0x11
 4282 0115 01       		.uleb128 0x1
 4283 0116 12       		.uleb128 0x12
 4284 0117 06       		.uleb128 0x6
 4285 0118 40       		.uleb128 0x40
 4286 0119 18       		.uleb128 0x18
 4287 011a 9742     		.uleb128 0x2117
 4288 011c 19       		.uleb128 0x19
 4289 011d 01       		.uleb128 0x1
 4290 011e 13       		.uleb128 0x13
 4291 011f 00       		.byte	0
 4292 0120 00       		.byte	0
 4293 0121 16       		.uleb128 0x16
 4294 0122 05       		.uleb128 0x5
 4295 0123 00       		.byte	0
 4296 0124 03       		.uleb128 0x3
 4297 0125 0E       		.uleb128 0xe
 4298 0126 3A       		.uleb128 0x3a
ARM GAS  C:\Users\df16\AppData\Local\Temp\ccjld08w.s 			page 107


 4299 0127 0B       		.uleb128 0xb
 4300 0128 3B       		.uleb128 0x3b
 4301 0129 05       		.uleb128 0x5
 4302 012a 49       		.uleb128 0x49
 4303 012b 13       		.uleb128 0x13
 4304 012c 02       		.uleb128 0x2
 4305 012d 18       		.uleb128 0x18
 4306 012e 00       		.byte	0
 4307 012f 00       		.byte	0
 4308 0130 17       		.uleb128 0x17
 4309 0131 898201   		.uleb128 0x4109
 4310 0134 01       		.byte	0x1
 4311 0135 11       		.uleb128 0x11
 4312 0136 01       		.uleb128 0x1
 4313 0137 31       		.uleb128 0x31
 4314 0138 13       		.uleb128 0x13
 4315 0139 00       		.byte	0
 4316 013a 00       		.byte	0
 4317 013b 18       		.uleb128 0x18
 4318 013c 8A8201   		.uleb128 0x410a
 4319 013f 00       		.byte	0
 4320 0140 02       		.uleb128 0x2
 4321 0141 18       		.uleb128 0x18
 4322 0142 9142     		.uleb128 0x2111
 4323 0144 18       		.uleb128 0x18
 4324 0145 00       		.byte	0
 4325 0146 00       		.byte	0
 4326 0147 19       		.uleb128 0x19
 4327 0148 34       		.uleb128 0x34
 4328 0149 00       		.byte	0
 4329 014a 03       		.uleb128 0x3
 4330 014b 0E       		.uleb128 0xe
 4331 014c 3A       		.uleb128 0x3a
 4332 014d 0B       		.uleb128 0xb
 4333 014e 3B       		.uleb128 0x3b
 4334 014f 05       		.uleb128 0x5
 4335 0150 49       		.uleb128 0x49
 4336 0151 13       		.uleb128 0x13
 4337 0152 02       		.uleb128 0x2
 4338 0153 18       		.uleb128 0x18
 4339 0154 00       		.byte	0
 4340 0155 00       		.byte	0
 4341 0156 1A       		.uleb128 0x1a
 4342 0157 898201   		.uleb128 0x4109
 4343 015a 01       		.byte	0x1
 4344 015b 11       		.uleb128 0x11
 4345 015c 01       		.uleb128 0x1
 4346 015d 31       		.uleb128 0x31
 4347 015e 13       		.uleb128 0x13
 4348 015f 01       		.uleb128 0x1
 4349 0160 13       		.uleb128 0x13
 4350 0161 00       		.byte	0
 4351 0162 00       		.byte	0
 4352 0163 1B       		.uleb128 0x1b
 4353 0164 26       		.uleb128 0x26
 4354 0165 00       		.byte	0
 4355 0166 00       		.byte	0
ARM GAS  C:\Users\df16\AppData\Local\Temp\ccjld08w.s 			page 108


 4356 0167 00       		.byte	0
 4357 0168 1C       		.uleb128 0x1c
 4358 0169 2E       		.uleb128 0x2e
 4359 016a 01       		.byte	0x1
 4360 016b 3F       		.uleb128 0x3f
 4361 016c 19       		.uleb128 0x19
 4362 016d 03       		.uleb128 0x3
 4363 016e 0E       		.uleb128 0xe
 4364 016f 3A       		.uleb128 0x3a
 4365 0170 0B       		.uleb128 0xb
 4366 0171 3B       		.uleb128 0x3b
 4367 0172 0B       		.uleb128 0xb
 4368 0173 27       		.uleb128 0x27
 4369 0174 19       		.uleb128 0x19
 4370 0175 49       		.uleb128 0x49
 4371 0176 13       		.uleb128 0x13
 4372 0177 11       		.uleb128 0x11
 4373 0178 01       		.uleb128 0x1
 4374 0179 12       		.uleb128 0x12
 4375 017a 06       		.uleb128 0x6
 4376 017b 40       		.uleb128 0x40
 4377 017c 18       		.uleb128 0x18
 4378 017d 9742     		.uleb128 0x2117
 4379 017f 19       		.uleb128 0x19
 4380 0180 01       		.uleb128 0x1
 4381 0181 13       		.uleb128 0x13
 4382 0182 00       		.byte	0
 4383 0183 00       		.byte	0
 4384 0184 1D       		.uleb128 0x1d
 4385 0185 05       		.uleb128 0x5
 4386 0186 00       		.byte	0
 4387 0187 03       		.uleb128 0x3
 4388 0188 0E       		.uleb128 0xe
 4389 0189 3A       		.uleb128 0x3a
 4390 018a 0B       		.uleb128 0xb
 4391 018b 3B       		.uleb128 0x3b
 4392 018c 0B       		.uleb128 0xb
 4393 018d 49       		.uleb128 0x49
 4394 018e 13       		.uleb128 0x13
 4395 018f 02       		.uleb128 0x2
 4396 0190 17       		.uleb128 0x17
 4397 0191 00       		.byte	0
 4398 0192 00       		.byte	0
 4399 0193 1E       		.uleb128 0x1e
 4400 0194 34       		.uleb128 0x34
 4401 0195 00       		.byte	0
 4402 0196 03       		.uleb128 0x3
 4403 0197 0E       		.uleb128 0xe
 4404 0198 3A       		.uleb128 0x3a
 4405 0199 0B       		.uleb128 0xb
 4406 019a 3B       		.uleb128 0x3b
 4407 019b 0B       		.uleb128 0xb
 4408 019c 49       		.uleb128 0x49
 4409 019d 13       		.uleb128 0x13
 4410 019e 02       		.uleb128 0x2
 4411 019f 17       		.uleb128 0x17
 4412 01a0 00       		.byte	0
ARM GAS  C:\Users\df16\AppData\Local\Temp\ccjld08w.s 			page 109


 4413 01a1 00       		.byte	0
 4414 01a2 1F       		.uleb128 0x1f
 4415 01a3 34       		.uleb128 0x34
 4416 01a4 00       		.byte	0
 4417 01a5 03       		.uleb128 0x3
 4418 01a6 0E       		.uleb128 0xe
 4419 01a7 3A       		.uleb128 0x3a
 4420 01a8 0B       		.uleb128 0xb
 4421 01a9 3B       		.uleb128 0x3b
 4422 01aa 0B       		.uleb128 0xb
 4423 01ab 49       		.uleb128 0x49
 4424 01ac 13       		.uleb128 0x13
 4425 01ad 02       		.uleb128 0x2
 4426 01ae 18       		.uleb128 0x18
 4427 01af 00       		.byte	0
 4428 01b0 00       		.byte	0
 4429 01b1 20       		.uleb128 0x20
 4430 01b2 2E       		.uleb128 0x2e
 4431 01b3 01       		.byte	0x1
 4432 01b4 3F       		.uleb128 0x3f
 4433 01b5 19       		.uleb128 0x19
 4434 01b6 03       		.uleb128 0x3
 4435 01b7 0E       		.uleb128 0xe
 4436 01b8 3A       		.uleb128 0x3a
 4437 01b9 0B       		.uleb128 0xb
 4438 01ba 3B       		.uleb128 0x3b
 4439 01bb 05       		.uleb128 0x5
 4440 01bc 27       		.uleb128 0x27
 4441 01bd 19       		.uleb128 0x19
 4442 01be 11       		.uleb128 0x11
 4443 01bf 01       		.uleb128 0x1
 4444 01c0 12       		.uleb128 0x12
 4445 01c1 06       		.uleb128 0x6
 4446 01c2 40       		.uleb128 0x40
 4447 01c3 18       		.uleb128 0x18
 4448 01c4 9742     		.uleb128 0x2117
 4449 01c6 19       		.uleb128 0x19
 4450 01c7 01       		.uleb128 0x1
 4451 01c8 13       		.uleb128 0x13
 4452 01c9 00       		.byte	0
 4453 01ca 00       		.byte	0
 4454 01cb 21       		.uleb128 0x21
 4455 01cc 2E       		.uleb128 0x2e
 4456 01cd 01       		.byte	0x1
 4457 01ce 3F       		.uleb128 0x3f
 4458 01cf 19       		.uleb128 0x19
 4459 01d0 03       		.uleb128 0x3
 4460 01d1 0E       		.uleb128 0xe
 4461 01d2 3A       		.uleb128 0x3a
 4462 01d3 0B       		.uleb128 0xb
 4463 01d4 3B       		.uleb128 0x3b
 4464 01d5 05       		.uleb128 0x5
 4465 01d6 27       		.uleb128 0x27
 4466 01d7 19       		.uleb128 0x19
 4467 01d8 49       		.uleb128 0x49
 4468 01d9 13       		.uleb128 0x13
 4469 01da 11       		.uleb128 0x11
ARM GAS  C:\Users\df16\AppData\Local\Temp\ccjld08w.s 			page 110


 4470 01db 01       		.uleb128 0x1
 4471 01dc 12       		.uleb128 0x12
 4472 01dd 06       		.uleb128 0x6
 4473 01de 40       		.uleb128 0x40
 4474 01df 18       		.uleb128 0x18
 4475 01e0 9742     		.uleb128 0x2117
 4476 01e2 19       		.uleb128 0x19
 4477 01e3 01       		.uleb128 0x1
 4478 01e4 13       		.uleb128 0x13
 4479 01e5 00       		.byte	0
 4480 01e6 00       		.byte	0
 4481 01e7 22       		.uleb128 0x22
 4482 01e8 898201   		.uleb128 0x4109
 4483 01eb 00       		.byte	0
 4484 01ec 11       		.uleb128 0x11
 4485 01ed 01       		.uleb128 0x1
 4486 01ee 31       		.uleb128 0x31
 4487 01ef 13       		.uleb128 0x13
 4488 01f0 00       		.byte	0
 4489 01f1 00       		.byte	0
 4490 01f2 23       		.uleb128 0x23
 4491 01f3 0B       		.uleb128 0xb
 4492 01f4 01       		.byte	0x1
 4493 01f5 11       		.uleb128 0x11
 4494 01f6 01       		.uleb128 0x1
 4495 01f7 12       		.uleb128 0x12
 4496 01f8 06       		.uleb128 0x6
 4497 01f9 01       		.uleb128 0x1
 4498 01fa 13       		.uleb128 0x13
 4499 01fb 00       		.byte	0
 4500 01fc 00       		.byte	0
 4501 01fd 24       		.uleb128 0x24
 4502 01fe 34       		.uleb128 0x34
 4503 01ff 00       		.byte	0
 4504 0200 03       		.uleb128 0x3
 4505 0201 0E       		.uleb128 0xe
 4506 0202 3A       		.uleb128 0x3a
 4507 0203 0B       		.uleb128 0xb
 4508 0204 3B       		.uleb128 0x3b
 4509 0205 05       		.uleb128 0x5
 4510 0206 49       		.uleb128 0x49
 4511 0207 13       		.uleb128 0x13
 4512 0208 00       		.byte	0
 4513 0209 00       		.byte	0
 4514 020a 25       		.uleb128 0x25
 4515 020b 1D       		.uleb128 0x1d
 4516 020c 01       		.byte	0x1
 4517 020d 31       		.uleb128 0x31
 4518 020e 13       		.uleb128 0x13
 4519 020f 11       		.uleb128 0x11
 4520 0210 01       		.uleb128 0x1
 4521 0211 12       		.uleb128 0x12
 4522 0212 06       		.uleb128 0x6
 4523 0213 58       		.uleb128 0x58
 4524 0214 0B       		.uleb128 0xb
 4525 0215 59       		.uleb128 0x59
 4526 0216 05       		.uleb128 0x5
ARM GAS  C:\Users\df16\AppData\Local\Temp\ccjld08w.s 			page 111


 4527 0217 01       		.uleb128 0x1
 4528 0218 13       		.uleb128 0x13
 4529 0219 00       		.byte	0
 4530 021a 00       		.byte	0
 4531 021b 26       		.uleb128 0x26
 4532 021c 0B       		.uleb128 0xb
 4533 021d 01       		.byte	0x1
 4534 021e 11       		.uleb128 0x11
 4535 021f 01       		.uleb128 0x1
 4536 0220 12       		.uleb128 0x12
 4537 0221 06       		.uleb128 0x6
 4538 0222 00       		.byte	0
 4539 0223 00       		.byte	0
 4540 0224 27       		.uleb128 0x27
 4541 0225 34       		.uleb128 0x34
 4542 0226 00       		.byte	0
 4543 0227 31       		.uleb128 0x31
 4544 0228 13       		.uleb128 0x13
 4545 0229 00       		.byte	0
 4546 022a 00       		.byte	0
 4547 022b 28       		.uleb128 0x28
 4548 022c 05       		.uleb128 0x5
 4549 022d 00       		.byte	0
 4550 022e 31       		.uleb128 0x31
 4551 022f 13       		.uleb128 0x13
 4552 0230 02       		.uleb128 0x2
 4553 0231 17       		.uleb128 0x17
 4554 0232 00       		.byte	0
 4555 0233 00       		.byte	0
 4556 0234 29       		.uleb128 0x29
 4557 0235 34       		.uleb128 0x34
 4558 0236 00       		.byte	0
 4559 0237 03       		.uleb128 0x3
 4560 0238 0E       		.uleb128 0xe
 4561 0239 3A       		.uleb128 0x3a
 4562 023a 0B       		.uleb128 0xb
 4563 023b 3B       		.uleb128 0x3b
 4564 023c 05       		.uleb128 0x5
 4565 023d 49       		.uleb128 0x49
 4566 023e 13       		.uleb128 0x13
 4567 023f 3F       		.uleb128 0x3f
 4568 0240 19       		.uleb128 0x19
 4569 0241 3C       		.uleb128 0x3c
 4570 0242 19       		.uleb128 0x19
 4571 0243 00       		.byte	0
 4572 0244 00       		.byte	0
 4573 0245 2A       		.uleb128 0x2a
 4574 0246 2E       		.uleb128 0x2e
 4575 0247 00       		.byte	0
 4576 0248 3F       		.uleb128 0x3f
 4577 0249 19       		.uleb128 0x19
 4578 024a 3C       		.uleb128 0x3c
 4579 024b 19       		.uleb128 0x19
 4580 024c 6E       		.uleb128 0x6e
 4581 024d 0E       		.uleb128 0xe
 4582 024e 03       		.uleb128 0x3
 4583 024f 0E       		.uleb128 0xe
ARM GAS  C:\Users\df16\AppData\Local\Temp\ccjld08w.s 			page 112


 4584 0250 00       		.byte	0
 4585 0251 00       		.byte	0
 4586 0252 2B       		.uleb128 0x2b
 4587 0253 2E       		.uleb128 0x2e
 4588 0254 00       		.byte	0
 4589 0255 3F       		.uleb128 0x3f
 4590 0256 19       		.uleb128 0x19
 4591 0257 3C       		.uleb128 0x3c
 4592 0258 19       		.uleb128 0x19
 4593 0259 6E       		.uleb128 0x6e
 4594 025a 0E       		.uleb128 0xe
 4595 025b 03       		.uleb128 0x3
 4596 025c 0E       		.uleb128 0xe
 4597 025d 3A       		.uleb128 0x3a
 4598 025e 0B       		.uleb128 0xb
 4599 025f 3B       		.uleb128 0x3b
 4600 0260 0B       		.uleb128 0xb
 4601 0261 00       		.byte	0
 4602 0262 00       		.byte	0
 4603 0263 2C       		.uleb128 0x2c
 4604 0264 2E       		.uleb128 0x2e
 4605 0265 00       		.byte	0
 4606 0266 3F       		.uleb128 0x3f
 4607 0267 19       		.uleb128 0x19
 4608 0268 3C       		.uleb128 0x3c
 4609 0269 19       		.uleb128 0x19
 4610 026a 6E       		.uleb128 0x6e
 4611 026b 0E       		.uleb128 0xe
 4612 026c 03       		.uleb128 0x3
 4613 026d 0E       		.uleb128 0xe
 4614 026e 3A       		.uleb128 0x3a
 4615 026f 0B       		.uleb128 0xb
 4616 0270 3B       		.uleb128 0x3b
 4617 0271 05       		.uleb128 0x5
 4618 0272 00       		.byte	0
 4619 0273 00       		.byte	0
 4620 0274 00       		.byte	0
 4621              		.section	.debug_loc,"",%progbits
 4622              	.Ldebug_loc0:
 4623              	.LLST0:
 4624 0000 00000000 		.4byte	.LVL0
 4625 0004 08000000 		.4byte	.LVL2
 4626 0008 0100     		.2byte	0x1
 4627 000a 50       		.byte	0x50
 4628 000b 08000000 		.4byte	.LVL2
 4629 000f 12000000 		.4byte	.LFE86
 4630 0013 0400     		.2byte	0x4
 4631 0015 F3       		.byte	0xf3
 4632 0016 01       		.uleb128 0x1
 4633 0017 50       		.byte	0x50
 4634 0018 9F       		.byte	0x9f
 4635 0019 00000000 		.4byte	0
 4636 001d 00000000 		.4byte	0
 4637              	.LLST1:
 4638 0021 06000000 		.4byte	.LVL1
 4639 0025 0A000000 		.4byte	.LVL3
 4640 0029 0100     		.2byte	0x1
ARM GAS  C:\Users\df16\AppData\Local\Temp\ccjld08w.s 			page 113


 4641 002b 53       		.byte	0x53
 4642 002c 0A000000 		.4byte	.LVL3
 4643 0030 12000000 		.4byte	.LFE86
 4644 0034 0100     		.2byte	0x1
 4645 0036 50       		.byte	0x50
 4646 0037 00000000 		.4byte	0
 4647 003b 00000000 		.4byte	0
 4648              	.LLST2:
 4649 003f 00000000 		.4byte	.LVL5
 4650 0043 11000000 		.4byte	.LVL8-1
 4651 0047 0100     		.2byte	0x1
 4652 0049 50       		.byte	0x50
 4653 004a 11000000 		.4byte	.LVL8-1
 4654 004e 20000000 		.4byte	.LFE87
 4655 0052 0100     		.2byte	0x1
 4656 0054 54       		.byte	0x54
 4657 0055 00000000 		.4byte	0
 4658 0059 00000000 		.4byte	0
 4659              	.LLST3:
 4660 005d 00000000 		.4byte	.LVL5
 4661 0061 0E000000 		.4byte	.LVL7
 4662 0065 0100     		.2byte	0x1
 4663 0067 51       		.byte	0x51
 4664 0068 0E000000 		.4byte	.LVL7
 4665 006c 20000000 		.4byte	.LFE87
 4666 0070 0100     		.2byte	0x1
 4667 0072 57       		.byte	0x57
 4668 0073 00000000 		.4byte	0
 4669 0077 00000000 		.4byte	0
 4670              	.LLST4:
 4671 007b 00000000 		.4byte	.LVL5
 4672 007f 0C000000 		.4byte	.LVL6
 4673 0083 0100     		.2byte	0x1
 4674 0085 52       		.byte	0x52
 4675 0086 0C000000 		.4byte	.LVL6
 4676 008a 20000000 		.4byte	.LFE87
 4677 008e 0100     		.2byte	0x1
 4678 0090 56       		.byte	0x56
 4679 0091 00000000 		.4byte	0
 4680 0095 00000000 		.4byte	0
 4681              	.LLST5:
 4682 0099 00000000 		.4byte	.LVL5
 4683 009d 11000000 		.4byte	.LVL8-1
 4684 00a1 0100     		.2byte	0x1
 4685 00a3 53       		.byte	0x53
 4686 00a4 11000000 		.4byte	.LVL8-1
 4687 00a8 20000000 		.4byte	.LFE87
 4688 00ac 0100     		.2byte	0x1
 4689 00ae 55       		.byte	0x55
 4690 00af 00000000 		.4byte	0
 4691 00b3 00000000 		.4byte	0
 4692              	.LLST6:
 4693 00b7 00000000 		.4byte	.LVL9
 4694 00bb 18000000 		.4byte	.LVL12
 4695 00bf 0100     		.2byte	0x1
 4696 00c1 50       		.byte	0x50
 4697 00c2 18000000 		.4byte	.LVL12
ARM GAS  C:\Users\df16\AppData\Local\Temp\ccjld08w.s 			page 114


 4698 00c6 42000000 		.4byte	.LFE84
 4699 00ca 0100     		.2byte	0x1
 4700 00cc 56       		.byte	0x56
 4701 00cd 00000000 		.4byte	0
 4702 00d1 00000000 		.4byte	0
 4703              	.LLST7:
 4704 00d5 00000000 		.4byte	.LVL9
 4705 00d9 1F000000 		.4byte	.LVL14-1
 4706 00dd 0100     		.2byte	0x1
 4707 00df 51       		.byte	0x51
 4708 00e0 1F000000 		.4byte	.LVL14-1
 4709 00e4 42000000 		.4byte	.LFE84
 4710 00e8 0100     		.2byte	0x1
 4711 00ea 58       		.byte	0x58
 4712 00eb 00000000 		.4byte	0
 4713 00ef 00000000 		.4byte	0
 4714              	.LLST8:
 4715 00f3 00000000 		.4byte	.LVL9
 4716 00f7 1A000000 		.4byte	.LVL13
 4717 00fb 0100     		.2byte	0x1
 4718 00fd 52       		.byte	0x52
 4719 00fe 1A000000 		.4byte	.LVL13
 4720 0102 42000000 		.4byte	.LFE84
 4721 0106 0100     		.2byte	0x1
 4722 0108 57       		.byte	0x57
 4723 0109 00000000 		.4byte	0
 4724 010d 00000000 		.4byte	0
 4725              	.LLST9:
 4726 0111 0C000000 		.4byte	.LVL10
 4727 0115 32000000 		.4byte	.LVL16
 4728 0119 0100     		.2byte	0x1
 4729 011b 54       		.byte	0x54
 4730 011c 32000000 		.4byte	.LVL16
 4731 0120 42000000 		.4byte	.LFE84
 4732 0124 0100     		.2byte	0x1
 4733 0126 53       		.byte	0x53
 4734 0127 00000000 		.4byte	0
 4735 012b 00000000 		.4byte	0
 4736              	.LLST10:
 4737 012f 00000000 		.4byte	.LVL18
 4738 0133 33000000 		.4byte	.LVL29-1
 4739 0137 0100     		.2byte	0x1
 4740 0139 50       		.byte	0x50
 4741 013a 33000000 		.4byte	.LVL29-1
 4742 013e 38000000 		.4byte	.LVL30
 4743 0142 0100     		.2byte	0x1
 4744 0144 54       		.byte	0x54
 4745 0145 38000000 		.4byte	.LVL30
 4746 0149 3E000000 		.4byte	.LVL33
 4747 014d 0100     		.2byte	0x1
 4748 014f 50       		.byte	0x50
 4749 0150 3E000000 		.4byte	.LVL33
 4750 0154 52000000 		.4byte	.LFE75
 4751 0158 0100     		.2byte	0x1
 4752 015a 54       		.byte	0x54
 4753 015b 00000000 		.4byte	0
 4754 015f 00000000 		.4byte	0
ARM GAS  C:\Users\df16\AppData\Local\Temp\ccjld08w.s 			page 115


 4755              	.LLST11:
 4756 0163 00000000 		.4byte	.LVL18
 4757 0167 30000000 		.4byte	.LVL28
 4758 016b 0100     		.2byte	0x1
 4759 016d 51       		.byte	0x51
 4760 016e 30000000 		.4byte	.LVL28
 4761 0172 38000000 		.4byte	.LVL30
 4762 0176 0100     		.2byte	0x1
 4763 0178 55       		.byte	0x55
 4764 0179 38000000 		.4byte	.LVL30
 4765 017d 3E000000 		.4byte	.LVL33
 4766 0181 0100     		.2byte	0x1
 4767 0183 51       		.byte	0x51
 4768 0184 3E000000 		.4byte	.LVL33
 4769 0188 52000000 		.4byte	.LFE75
 4770 018c 0100     		.2byte	0x1
 4771 018e 55       		.byte	0x55
 4772 018f 00000000 		.4byte	0
 4773 0193 00000000 		.4byte	0
 4774              	.LLST12:
 4775 0197 00000000 		.4byte	.LVL18
 4776 019b 0E000000 		.4byte	.LVL19
 4777 019f 0100     		.2byte	0x1
 4778 01a1 52       		.byte	0x52
 4779 01a2 0E000000 		.4byte	.LVL19
 4780 01a6 20000000 		.4byte	.LVL23
 4781 01aa 0200     		.2byte	0x2
 4782 01ac 91       		.byte	0x91
 4783 01ad 6C       		.sleb128 -20
 4784 01ae 20000000 		.4byte	.LVL23
 4785 01b2 22000000 		.4byte	.LVL24
 4786 01b6 0100     		.2byte	0x1
 4787 01b8 53       		.byte	0x53
 4788 01b9 22000000 		.4byte	.LVL24
 4789 01bd 24000000 		.4byte	.LVL25
 4790 01c1 0400     		.2byte	0x4
 4791 01c3 F3       		.byte	0xf3
 4792 01c4 01       		.uleb128 0x1
 4793 01c5 52       		.byte	0x52
 4794 01c6 9F       		.byte	0x9f
 4795 01c7 24000000 		.4byte	.LVL25
 4796 01cb 38000000 		.4byte	.LVL30
 4797 01cf 0200     		.2byte	0x2
 4798 01d1 91       		.byte	0x91
 4799 01d2 6C       		.sleb128 -20
 4800 01d3 38000000 		.4byte	.LVL30
 4801 01d7 3C000000 		.4byte	.LVL32
 4802 01db 0100     		.2byte	0x1
 4803 01dd 52       		.byte	0x52
 4804 01de 3C000000 		.4byte	.LVL32
 4805 01e2 3E000000 		.4byte	.LVL33
 4806 01e6 0200     		.2byte	0x2
 4807 01e8 91       		.byte	0x91
 4808 01e9 6C       		.sleb128 -20
 4809 01ea 00000000 		.4byte	0
 4810 01ee 00000000 		.4byte	0
 4811              	.LLST13:
ARM GAS  C:\Users\df16\AppData\Local\Temp\ccjld08w.s 			page 116


 4812 01f2 00000000 		.4byte	.LVL18
 4813 01f6 10000000 		.4byte	.LVL20
 4814 01fa 0100     		.2byte	0x1
 4815 01fc 53       		.byte	0x53
 4816 01fd 10000000 		.4byte	.LVL20
 4817 0201 1E000000 		.4byte	.LVL22
 4818 0205 0100     		.2byte	0x1
 4819 0207 52       		.byte	0x52
 4820 0208 1E000000 		.4byte	.LVL22
 4821 020c 24000000 		.4byte	.LVL25
 4822 0210 0400     		.2byte	0x4
 4823 0212 F3       		.byte	0xf3
 4824 0213 01       		.uleb128 0x1
 4825 0214 53       		.byte	0x53
 4826 0215 9F       		.byte	0x9f
 4827 0216 24000000 		.4byte	.LVL25
 4828 021a 2C000000 		.4byte	.LVL27
 4829 021e 0100     		.2byte	0x1
 4830 0220 52       		.byte	0x52
 4831 0221 2C000000 		.4byte	.LVL27
 4832 0225 38000000 		.4byte	.LVL30
 4833 0229 0400     		.2byte	0x4
 4834 022b F3       		.byte	0xf3
 4835 022c 01       		.uleb128 0x1
 4836 022d 53       		.byte	0x53
 4837 022e 9F       		.byte	0x9f
 4838 022f 38000000 		.4byte	.LVL30
 4839 0233 3A000000 		.4byte	.LVL31
 4840 0237 0100     		.2byte	0x1
 4841 0239 53       		.byte	0x53
 4842 023a 3A000000 		.4byte	.LVL31
 4843 023e 3C000000 		.4byte	.LVL32
 4844 0242 0400     		.2byte	0x4
 4845 0244 F3       		.byte	0xf3
 4846 0245 01       		.uleb128 0x1
 4847 0246 53       		.byte	0x53
 4848 0247 9F       		.byte	0x9f
 4849 0248 3C000000 		.4byte	.LVL32
 4850 024c 3E000000 		.4byte	.LVL33
 4851 0250 0100     		.2byte	0x1
 4852 0252 52       		.byte	0x52
 4853 0253 3E000000 		.4byte	.LVL33
 4854 0257 52000000 		.4byte	.LFE75
 4855 025b 0400     		.2byte	0x4
 4856 025d F3       		.byte	0xf3
 4857 025e 01       		.uleb128 0x1
 4858 025f 53       		.byte	0x53
 4859 0260 9F       		.byte	0x9f
 4860 0261 00000000 		.4byte	0
 4861 0265 00000000 		.4byte	0
 4862              	.LLST14:
 4863 0269 16000000 		.4byte	.LVL21
 4864 026d 24000000 		.4byte	.LVL25
 4865 0271 0200     		.2byte	0x2
 4866 0273 31       		.byte	0x31
 4867 0274 9F       		.byte	0x9f
 4868 0275 2A000000 		.4byte	.LVL26
ARM GAS  C:\Users\df16\AppData\Local\Temp\ccjld08w.s 			page 117


 4869 0279 38000000 		.4byte	.LVL30
 4870 027d 0200     		.2byte	0x2
 4871 027f 31       		.byte	0x31
 4872 0280 9F       		.byte	0x9f
 4873 0281 3E000000 		.4byte	.LVL33
 4874 0285 49000000 		.4byte	.LVL34-1
 4875 0289 0100     		.2byte	0x1
 4876 028b 53       		.byte	0x53
 4877 028c 4C000000 		.4byte	.LVL35
 4878 0290 4E000000 		.4byte	.LVL36
 4879 0294 0100     		.2byte	0x1
 4880 0296 53       		.byte	0x53
 4881 0297 00000000 		.4byte	0
 4882 029b 00000000 		.4byte	0
 4883              	.LLST15:
 4884 029f 4A000000 		.4byte	.LVL34
 4885 02a3 4C000000 		.4byte	.LVL35
 4886 02a7 0100     		.2byte	0x1
 4887 02a9 50       		.byte	0x50
 4888 02aa 4E000000 		.4byte	.LVL36
 4889 02ae 52000000 		.4byte	.LFE75
 4890 02b2 0100     		.2byte	0x1
 4891 02b4 50       		.byte	0x50
 4892 02b5 00000000 		.4byte	0
 4893 02b9 00000000 		.4byte	0
 4894              	.LLST16:
 4895 02bd 00000000 		.4byte	.LVL37
 4896 02c1 26000000 		.4byte	.LVL44
 4897 02c5 0100     		.2byte	0x1
 4898 02c7 50       		.byte	0x50
 4899 02c8 26000000 		.4byte	.LVL44
 4900 02cc 46000000 		.4byte	.LVL49
 4901 02d0 0100     		.2byte	0x1
 4902 02d2 55       		.byte	0x55
 4903 02d3 46000000 		.4byte	.LVL49
 4904 02d7 4C000000 		.4byte	.LFE85
 4905 02db 0400     		.2byte	0x4
 4906 02dd F3       		.byte	0xf3
 4907 02de 01       		.uleb128 0x1
 4908 02df 50       		.byte	0x50
 4909 02e0 9F       		.byte	0x9f
 4910 02e1 00000000 		.4byte	0
 4911 02e5 00000000 		.4byte	0
 4912              	.LLST17:
 4913 02e9 00000000 		.4byte	.LVL37
 4914 02ed 20000000 		.4byte	.LVL42
 4915 02f1 0100     		.2byte	0x1
 4916 02f3 51       		.byte	0x51
 4917 02f4 20000000 		.4byte	.LVL42
 4918 02f8 46000000 		.4byte	.LVL49
 4919 02fc 0100     		.2byte	0x1
 4920 02fe 58       		.byte	0x58
 4921 02ff 46000000 		.4byte	.LVL49
 4922 0303 4C000000 		.4byte	.LFE85
 4923 0307 0400     		.2byte	0x4
 4924 0309 F3       		.byte	0xf3
 4925 030a 01       		.uleb128 0x1
ARM GAS  C:\Users\df16\AppData\Local\Temp\ccjld08w.s 			page 118


 4926 030b 51       		.byte	0x51
 4927 030c 9F       		.byte	0x9f
 4928 030d 00000000 		.4byte	0
 4929 0311 00000000 		.4byte	0
 4930              	.LLST18:
 4931 0315 00000000 		.4byte	.LVL37
 4932 0319 0A000000 		.4byte	.LVL38
 4933 031d 0100     		.2byte	0x1
 4934 031f 52       		.byte	0x52
 4935 0320 0A000000 		.4byte	.LVL38
 4936 0324 4C000000 		.4byte	.LFE85
 4937 0328 0400     		.2byte	0x4
 4938 032a F3       		.byte	0xf3
 4939 032b 01       		.uleb128 0x1
 4940 032c 52       		.byte	0x52
 4941 032d 9F       		.byte	0x9f
 4942 032e 00000000 		.4byte	0
 4943 0332 00000000 		.4byte	0
 4944              	.LLST19:
 4945 0336 00000000 		.4byte	.LVL37
 4946 033a 29000000 		.4byte	.LVL45-1
 4947 033e 0100     		.2byte	0x1
 4948 0340 53       		.byte	0x53
 4949 0341 29000000 		.4byte	.LVL45-1
 4950 0345 4C000000 		.4byte	.LFE85
 4951 0349 0400     		.2byte	0x4
 4952 034b F3       		.byte	0xf3
 4953 034c 01       		.uleb128 0x1
 4954 034d 53       		.byte	0x53
 4955 034e 9F       		.byte	0x9f
 4956 034f 00000000 		.4byte	0
 4957 0353 00000000 		.4byte	0
 4958              	.LLST20:
 4959 0357 0C000000 		.4byte	.LVL39
 4960 035b 22000000 		.4byte	.LVL43
 4961 035f 0100     		.2byte	0x1
 4962 0361 52       		.byte	0x52
 4963 0362 22000000 		.4byte	.LVL43
 4964 0366 4C000000 		.4byte	.LFE85
 4965 036a 0100     		.2byte	0x1
 4966 036c 54       		.byte	0x54
 4967 036d 00000000 		.4byte	0
 4968 0371 00000000 		.4byte	0
 4969              	.LLST21:
 4970 0375 1E000000 		.4byte	.LVL41
 4971 0379 46000000 		.4byte	.LVL49
 4972 037d 0100     		.2byte	0x1
 4973 037f 57       		.byte	0x57
 4974 0380 00000000 		.4byte	0
 4975 0384 00000000 		.4byte	0
 4976              	.LLST22:
 4977 0388 14000000 		.4byte	.LVL40
 4978 038c 46000000 		.4byte	.LVL49
 4979 0390 0100     		.2byte	0x1
 4980 0392 56       		.byte	0x56
 4981 0393 00000000 		.4byte	0
 4982 0397 00000000 		.4byte	0
ARM GAS  C:\Users\df16\AppData\Local\Temp\ccjld08w.s 			page 119


 4983              	.LLST23:
 4984 039b 00000000 		.4byte	.LVL50
 4985 039f 1D000000 		.4byte	.LVL54-1
 4986 03a3 0100     		.2byte	0x1
 4987 03a5 50       		.byte	0x50
 4988 03a6 1D000000 		.4byte	.LVL54-1
 4989 03aa 42000000 		.4byte	.LFE79
 4990 03ae 0100     		.2byte	0x1
 4991 03b0 55       		.byte	0x55
 4992 03b1 00000000 		.4byte	0
 4993 03b5 00000000 		.4byte	0
 4994              	.LLST24:
 4995 03b9 00000000 		.4byte	.LVL50
 4996 03bd 1A000000 		.4byte	.LVL53
 4997 03c1 0100     		.2byte	0x1
 4998 03c3 51       		.byte	0x51
 4999 03c4 1A000000 		.4byte	.LVL53
 5000 03c8 42000000 		.4byte	.LFE79
 5001 03cc 0100     		.2byte	0x1
 5002 03ce 58       		.byte	0x58
 5003 03cf 00000000 		.4byte	0
 5004 03d3 00000000 		.4byte	0
 5005              	.LLST25:
 5006 03d7 00000000 		.4byte	.LVL50
 5007 03db 18000000 		.4byte	.LVL52
 5008 03df 0100     		.2byte	0x1
 5009 03e1 52       		.byte	0x52
 5010 03e2 18000000 		.4byte	.LVL52
 5011 03e6 2C000000 		.4byte	.LVL58
 5012 03ea 0100     		.2byte	0x1
 5013 03ec 56       		.byte	0x56
 5014 03ed 2C000000 		.4byte	.LVL58
 5015 03f1 2E000000 		.4byte	.LVL59
 5016 03f5 0400     		.2byte	0x4
 5017 03f7 F3       		.byte	0xf3
 5018 03f8 01       		.uleb128 0x1
 5019 03f9 52       		.byte	0x52
 5020 03fa 9F       		.byte	0x9f
 5021 03fb 2E000000 		.4byte	.LVL59
 5022 03ff 30000000 		.4byte	.LVL60
 5023 0403 0100     		.2byte	0x1
 5024 0405 56       		.byte	0x56
 5025 0406 30000000 		.4byte	.LVL60
 5026 040a 42000000 		.4byte	.LFE79
 5027 040e 0400     		.2byte	0x4
 5028 0410 F3       		.byte	0xf3
 5029 0411 01       		.uleb128 0x1
 5030 0412 52       		.byte	0x52
 5031 0413 9F       		.byte	0x9f
 5032 0414 00000000 		.4byte	0
 5033 0418 00000000 		.4byte	0
 5034              	.LLST26:
 5035 041c 00000000 		.4byte	.LVL50
 5036 0420 1D000000 		.4byte	.LVL54-1
 5037 0424 0100     		.2byte	0x1
 5038 0426 53       		.byte	0x53
 5039 0427 1D000000 		.4byte	.LVL54-1
ARM GAS  C:\Users\df16\AppData\Local\Temp\ccjld08w.s 			page 120


 5040 042b 42000000 		.4byte	.LFE79
 5041 042f 0100     		.2byte	0x1
 5042 0431 54       		.byte	0x54
 5043 0432 00000000 		.4byte	0
 5044 0436 00000000 		.4byte	0
 5045              	.LLST27:
 5046 043a 16000000 		.4byte	.LVL51
 5047 043e 30000000 		.4byte	.LVL60
 5048 0442 0100     		.2byte	0x1
 5049 0444 59       		.byte	0x59
 5050 0445 00000000 		.4byte	0
 5051 0449 00000000 		.4byte	0
 5052              	.LLST28:
 5053 044d 20000000 		.4byte	.LVL55
 5054 0451 2A000000 		.4byte	.LVL57
 5055 0455 0100     		.2byte	0x1
 5056 0457 53       		.byte	0x53
 5057 0458 2A000000 		.4byte	.LVL57
 5058 045c 2E000000 		.4byte	.LVL59
 5059 0460 0200     		.2byte	0x2
 5060 0462 30       		.byte	0x30
 5061 0463 9F       		.byte	0x9f
 5062 0464 2E000000 		.4byte	.LVL59
 5063 0468 30000000 		.4byte	.LVL60
 5064 046c 0100     		.2byte	0x1
 5065 046e 53       		.byte	0x53
 5066 046f 30000000 		.4byte	.LVL60
 5067 0473 42000000 		.4byte	.LFE79
 5068 0477 0100     		.2byte	0x1
 5069 0479 56       		.byte	0x56
 5070 047a 00000000 		.4byte	0
 5071 047e 00000000 		.4byte	0
 5072              	.LLST29:
 5073 0482 00000000 		.4byte	.LVL62
 5074 0486 16000000 		.4byte	.LVL65
 5075 048a 0100     		.2byte	0x1
 5076 048c 50       		.byte	0x50
 5077 048d 16000000 		.4byte	.LVL65
 5078 0491 34000000 		.4byte	.LFE67
 5079 0495 0100     		.2byte	0x1
 5080 0497 56       		.byte	0x56
 5081 0498 00000000 		.4byte	0
 5082 049c 00000000 		.4byte	0
 5083              	.LLST30:
 5084 04a0 00000000 		.4byte	.LVL62
 5085 04a4 14000000 		.4byte	.LVL64
 5086 04a8 0100     		.2byte	0x1
 5087 04aa 51       		.byte	0x51
 5088 04ab 14000000 		.4byte	.LVL64
 5089 04af 34000000 		.4byte	.LFE67
 5090 04b3 0100     		.2byte	0x1
 5091 04b5 55       		.byte	0x55
 5092 04b6 00000000 		.4byte	0
 5093 04ba 00000000 		.4byte	0
 5094              	.LLST31:
 5095 04be 00000000 		.4byte	.LVL62
 5096 04c2 1B000000 		.4byte	.LVL66-1
ARM GAS  C:\Users\df16\AppData\Local\Temp\ccjld08w.s 			page 121


 5097 04c6 0100     		.2byte	0x1
 5098 04c8 52       		.byte	0x52
 5099 04c9 1B000000 		.4byte	.LVL66-1
 5100 04cd 34000000 		.4byte	.LFE67
 5101 04d1 0400     		.2byte	0x4
 5102 04d3 F3       		.byte	0xf3
 5103 04d4 01       		.uleb128 0x1
 5104 04d5 52       		.byte	0x52
 5105 04d6 9F       		.byte	0x9f
 5106 04d7 00000000 		.4byte	0
 5107 04db 00000000 		.4byte	0
 5108              	.LLST32:
 5109 04df 1C000000 		.4byte	.LVL66
 5110 04e3 2D000000 		.4byte	.LVL67-1
 5111 04e7 0100     		.2byte	0x1
 5112 04e9 50       		.byte	0x50
 5113 04ea 2D000000 		.4byte	.LVL67-1
 5114 04ee 34000000 		.4byte	.LFE67
 5115 04f2 0100     		.2byte	0x1
 5116 04f4 54       		.byte	0x54
 5117 04f5 00000000 		.4byte	0
 5118 04f9 00000000 		.4byte	0
 5119              	.LLST33:
 5120 04fd 00000000 		.4byte	.LVL68
 5121 0501 0D000000 		.4byte	.LVL70-1
 5122 0505 0100     		.2byte	0x1
 5123 0507 50       		.byte	0x50
 5124 0508 0D000000 		.4byte	.LVL70-1
 5125 050c 10000000 		.4byte	.LVL71
 5126 0510 0400     		.2byte	0x4
 5127 0512 F3       		.byte	0xf3
 5128 0513 01       		.uleb128 0x1
 5129 0514 50       		.byte	0x50
 5130 0515 9F       		.byte	0x9f
 5131 0516 10000000 		.4byte	.LVL71
 5132 051a 17000000 		.4byte	.LVL72-1
 5133 051e 0100     		.2byte	0x1
 5134 0520 50       		.byte	0x50
 5135 0521 17000000 		.4byte	.LVL72-1
 5136 0525 1A000000 		.4byte	.LFE68
 5137 0529 0400     		.2byte	0x4
 5138 052b F3       		.byte	0xf3
 5139 052c 01       		.uleb128 0x1
 5140 052d 50       		.byte	0x50
 5141 052e 9F       		.byte	0x9f
 5142 052f 00000000 		.4byte	0
 5143 0533 00000000 		.4byte	0
 5144              	.LLST34:
 5145 0537 02000000 		.4byte	.LVL69
 5146 053b 0D000000 		.4byte	.LVL70-1
 5147 053f 0100     		.2byte	0x1
 5148 0541 50       		.byte	0x50
 5149 0542 0D000000 		.4byte	.LVL70-1
 5150 0546 10000000 		.4byte	.LVL71
 5151 054a 0400     		.2byte	0x4
 5152 054c F3       		.byte	0xf3
 5153 054d 01       		.uleb128 0x1
ARM GAS  C:\Users\df16\AppData\Local\Temp\ccjld08w.s 			page 122


 5154 054e 50       		.byte	0x50
 5155 054f 9F       		.byte	0x9f
 5156 0550 10000000 		.4byte	.LVL71
 5157 0554 17000000 		.4byte	.LVL72-1
 5158 0558 0100     		.2byte	0x1
 5159 055a 50       		.byte	0x50
 5160 055b 17000000 		.4byte	.LVL72-1
 5161 055f 1A000000 		.4byte	.LFE68
 5162 0563 0400     		.2byte	0x4
 5163 0565 F3       		.byte	0xf3
 5164 0566 01       		.uleb128 0x1
 5165 0567 50       		.byte	0x50
 5166 0568 9F       		.byte	0x9f
 5167 0569 00000000 		.4byte	0
 5168 056d 00000000 		.4byte	0
 5169              	.LLST35:
 5170 0571 00000000 		.4byte	.LVL73
 5171 0575 09000000 		.4byte	.LVL75-1
 5172 0579 0100     		.2byte	0x1
 5173 057b 50       		.byte	0x50
 5174 057c 09000000 		.4byte	.LVL75-1
 5175 0580 24000000 		.4byte	.LVL77
 5176 0584 0100     		.2byte	0x1
 5177 0586 54       		.byte	0x54
 5178 0587 24000000 		.4byte	.LVL77
 5179 058b 26000000 		.4byte	.LVL78
 5180 058f 0400     		.2byte	0x4
 5181 0591 F3       		.byte	0xf3
 5182 0592 01       		.uleb128 0x1
 5183 0593 50       		.byte	0x50
 5184 0594 9F       		.byte	0x9f
 5185 0595 26000000 		.4byte	.LVL78
 5186 0599 28000000 		.4byte	.LVL79
 5187 059d 0100     		.2byte	0x1
 5188 059f 54       		.byte	0x54
 5189 05a0 28000000 		.4byte	.LVL79
 5190 05a4 2A000000 		.4byte	.LVL80
 5191 05a8 0400     		.2byte	0x4
 5192 05aa F3       		.byte	0xf3
 5193 05ab 01       		.uleb128 0x1
 5194 05ac 50       		.byte	0x50
 5195 05ad 9F       		.byte	0x9f
 5196 05ae 2A000000 		.4byte	.LVL80
 5197 05b2 2C000000 		.4byte	.LVL81
 5198 05b6 0100     		.2byte	0x1
 5199 05b8 54       		.byte	0x54
 5200 05b9 2C000000 		.4byte	.LVL81
 5201 05bd 36000000 		.4byte	.LFE69
 5202 05c1 0400     		.2byte	0x4
 5203 05c3 F3       		.byte	0xf3
 5204 05c4 01       		.uleb128 0x1
 5205 05c5 50       		.byte	0x50
 5206 05c6 9F       		.byte	0x9f
 5207 05c7 00000000 		.4byte	0
 5208 05cb 00000000 		.4byte	0
 5209              	.LLST36:
 5210 05cf 06000000 		.4byte	.LVL74
ARM GAS  C:\Users\df16\AppData\Local\Temp\ccjld08w.s 			page 123


 5211 05d3 09000000 		.4byte	.LVL75-1
 5212 05d7 0100     		.2byte	0x1
 5213 05d9 50       		.byte	0x50
 5214 05da 09000000 		.4byte	.LVL75-1
 5215 05de 24000000 		.4byte	.LVL77
 5216 05e2 0100     		.2byte	0x1
 5217 05e4 54       		.byte	0x54
 5218 05e5 24000000 		.4byte	.LVL77
 5219 05e9 26000000 		.4byte	.LVL78
 5220 05ed 0400     		.2byte	0x4
 5221 05ef F3       		.byte	0xf3
 5222 05f0 01       		.uleb128 0x1
 5223 05f1 50       		.byte	0x50
 5224 05f2 9F       		.byte	0x9f
 5225 05f3 26000000 		.4byte	.LVL78
 5226 05f7 28000000 		.4byte	.LVL79
 5227 05fb 0100     		.2byte	0x1
 5228 05fd 54       		.byte	0x54
 5229 05fe 28000000 		.4byte	.LVL79
 5230 0602 2A000000 		.4byte	.LVL80
 5231 0606 0400     		.2byte	0x4
 5232 0608 F3       		.byte	0xf3
 5233 0609 01       		.uleb128 0x1
 5234 060a 50       		.byte	0x50
 5235 060b 9F       		.byte	0x9f
 5236 060c 2A000000 		.4byte	.LVL80
 5237 0610 2C000000 		.4byte	.LVL81
 5238 0614 0100     		.2byte	0x1
 5239 0616 54       		.byte	0x54
 5240 0617 2C000000 		.4byte	.LVL81
 5241 061b 36000000 		.4byte	.LFE69
 5242 061f 0400     		.2byte	0x4
 5243 0621 F3       		.byte	0xf3
 5244 0622 01       		.uleb128 0x1
 5245 0623 50       		.byte	0x50
 5246 0624 9F       		.byte	0x9f
 5247 0625 00000000 		.4byte	0
 5248 0629 00000000 		.4byte	0
 5249              	.LLST37:
 5250 062d 06000000 		.4byte	.LVL74
 5251 0631 22000000 		.4byte	.LVL76
 5252 0635 0200     		.2byte	0x2
 5253 0637 30       		.byte	0x30
 5254 0638 9F       		.byte	0x9f
 5255 0639 22000000 		.4byte	.LVL76
 5256 063d 26000000 		.4byte	.LVL78
 5257 0641 0200     		.2byte	0x2
 5258 0643 31       		.byte	0x31
 5259 0644 9F       		.byte	0x9f
 5260 0645 26000000 		.4byte	.LVL78
 5261 0649 2C000000 		.4byte	.LVL81
 5262 064d 0200     		.2byte	0x2
 5263 064f 30       		.byte	0x30
 5264 0650 9F       		.byte	0x9f
 5265 0651 2C000000 		.4byte	.LVL81
 5266 0655 36000000 		.4byte	.LFE69
 5267 0659 0100     		.2byte	0x1
ARM GAS  C:\Users\df16\AppData\Local\Temp\ccjld08w.s 			page 124


 5268 065b 54       		.byte	0x54
 5269 065c 00000000 		.4byte	0
 5270 0660 00000000 		.4byte	0
 5271              	.LLST38:
 5272 0664 00000000 		.4byte	.LVL83
 5273 0668 10000000 		.4byte	.LVL86
 5274 066c 0100     		.2byte	0x1
 5275 066e 50       		.byte	0x50
 5276 066f 10000000 		.4byte	.LVL86
 5277 0673 12000000 		.4byte	.LVL87
 5278 0677 0400     		.2byte	0x4
 5279 0679 F3       		.byte	0xf3
 5280 067a 01       		.uleb128 0x1
 5281 067b 50       		.byte	0x50
 5282 067c 9F       		.byte	0x9f
 5283 067d 12000000 		.4byte	.LVL87
 5284 0681 14000000 		.4byte	.LVL88
 5285 0685 0100     		.2byte	0x1
 5286 0687 50       		.byte	0x50
 5287 0688 14000000 		.4byte	.LVL88
 5288 068c 16000000 		.4byte	.LFE70
 5289 0690 0400     		.2byte	0x4
 5290 0692 F3       		.byte	0xf3
 5291 0693 01       		.uleb128 0x1
 5292 0694 50       		.byte	0x50
 5293 0695 9F       		.byte	0x9f
 5294 0696 00000000 		.4byte	0
 5295 069a 00000000 		.4byte	0
 5296              	.LLST39:
 5297 069e 00000000 		.4byte	.LVL83
 5298 06a2 06000000 		.4byte	.LVL84
 5299 06a6 0100     		.2byte	0x1
 5300 06a8 51       		.byte	0x51
 5301 06a9 06000000 		.4byte	.LVL84
 5302 06ad 16000000 		.4byte	.LFE70
 5303 06b1 0100     		.2byte	0x1
 5304 06b3 53       		.byte	0x53
 5305 06b4 00000000 		.4byte	0
 5306 06b8 00000000 		.4byte	0
 5307              	.LLST40:
 5308 06bc 00000000 		.4byte	.LVL83
 5309 06c0 10000000 		.4byte	.LVL86
 5310 06c4 0100     		.2byte	0x1
 5311 06c6 50       		.byte	0x50
 5312 06c7 10000000 		.4byte	.LVL86
 5313 06cb 12000000 		.4byte	.LVL87
 5314 06cf 0400     		.2byte	0x4
 5315 06d1 F3       		.byte	0xf3
 5316 06d2 01       		.uleb128 0x1
 5317 06d3 50       		.byte	0x50
 5318 06d4 9F       		.byte	0x9f
 5319 06d5 12000000 		.4byte	.LVL87
 5320 06d9 14000000 		.4byte	.LVL88
 5321 06dd 0100     		.2byte	0x1
 5322 06df 50       		.byte	0x50
 5323 06e0 14000000 		.4byte	.LVL88
 5324 06e4 16000000 		.4byte	.LFE70
ARM GAS  C:\Users\df16\AppData\Local\Temp\ccjld08w.s 			page 125


 5325 06e8 0400     		.2byte	0x4
 5326 06ea F3       		.byte	0xf3
 5327 06eb 01       		.uleb128 0x1
 5328 06ec 50       		.byte	0x50
 5329 06ed 9F       		.byte	0x9f
 5330 06ee 00000000 		.4byte	0
 5331 06f2 00000000 		.4byte	0
 5332              	.LLST41:
 5333 06f6 0E000000 		.4byte	.LVL85
 5334 06fa 12000000 		.4byte	.LVL87
 5335 06fe 0200     		.2byte	0x2
 5336 0700 31       		.byte	0x31
 5337 0701 9F       		.byte	0x9f
 5338 0702 14000000 		.4byte	.LVL88
 5339 0706 16000000 		.4byte	.LFE70
 5340 070a 0100     		.2byte	0x1
 5341 070c 50       		.byte	0x50
 5342 070d 00000000 		.4byte	0
 5343 0711 00000000 		.4byte	0
 5344              	.LLST42:
 5345 0715 00000000 		.4byte	.LVL89
 5346 0719 08000000 		.4byte	.LVL91
 5347 071d 0100     		.2byte	0x1
 5348 071f 50       		.byte	0x50
 5349 0720 08000000 		.4byte	.LVL91
 5350 0724 14000000 		.4byte	.LFE71
 5351 0728 0400     		.2byte	0x4
 5352 072a F3       		.byte	0xf3
 5353 072b 01       		.uleb128 0x1
 5354 072c 50       		.byte	0x50
 5355 072d 9F       		.byte	0x9f
 5356 072e 00000000 		.4byte	0
 5357 0732 00000000 		.4byte	0
 5358              	.LLST43:
 5359 0736 00000000 		.4byte	.LVL89
 5360 073a 08000000 		.4byte	.LVL91
 5361 073e 0100     		.2byte	0x1
 5362 0740 50       		.byte	0x50
 5363 0741 08000000 		.4byte	.LVL91
 5364 0745 14000000 		.4byte	.LFE71
 5365 0749 0400     		.2byte	0x4
 5366 074b F3       		.byte	0xf3
 5367 074c 01       		.uleb128 0x1
 5368 074d 50       		.byte	0x50
 5369 074e 9F       		.byte	0x9f
 5370 074f 00000000 		.4byte	0
 5371 0753 00000000 		.4byte	0
 5372              	.LLST44:
 5373 0757 06000000 		.4byte	.LVL90
 5374 075b 0A000000 		.4byte	.LVL92
 5375 075f 0100     		.2byte	0x1
 5376 0761 53       		.byte	0x53
 5377 0762 0A000000 		.4byte	.LVL92
 5378 0766 14000000 		.4byte	.LFE71
 5379 076a 0100     		.2byte	0x1
 5380 076c 50       		.byte	0x50
 5381 076d 00000000 		.4byte	0
ARM GAS  C:\Users\df16\AppData\Local\Temp\ccjld08w.s 			page 126


 5382 0771 00000000 		.4byte	0
 5383              	.LLST45:
 5384 0775 00000000 		.4byte	.LVL95
 5385 0779 05000000 		.4byte	.LVL97-1
 5386 077d 0100     		.2byte	0x1
 5387 077f 50       		.byte	0x50
 5388 0780 05000000 		.4byte	.LVL97-1
 5389 0784 08000000 		.4byte	.LFE72
 5390 0788 0400     		.2byte	0x4
 5391 078a F3       		.byte	0xf3
 5392 078b 01       		.uleb128 0x1
 5393 078c 50       		.byte	0x50
 5394 078d 9F       		.byte	0x9f
 5395 078e 00000000 		.4byte	0
 5396 0792 00000000 		.4byte	0
 5397              	.LLST46:
 5398 0796 02000000 		.4byte	.LVL96
 5399 079a 05000000 		.4byte	.LVL97-1
 5400 079e 0100     		.2byte	0x1
 5401 07a0 50       		.byte	0x50
 5402 07a1 05000000 		.4byte	.LVL97-1
 5403 07a5 08000000 		.4byte	.LFE72
 5404 07a9 0400     		.2byte	0x4
 5405 07ab F3       		.byte	0xf3
 5406 07ac 01       		.uleb128 0x1
 5407 07ad 50       		.byte	0x50
 5408 07ae 9F       		.byte	0x9f
 5409 07af 00000000 		.4byte	0
 5410 07b3 00000000 		.4byte	0
 5411              	.LLST47:
 5412 07b7 00000000 		.4byte	.LVL98
 5413 07bb 3C000000 		.4byte	.LVL109
 5414 07bf 0100     		.2byte	0x1
 5415 07c1 50       		.byte	0x50
 5416 07c2 3C000000 		.4byte	.LVL109
 5417 07c6 90000000 		.4byte	.LVL122
 5418 07ca 0100     		.2byte	0x1
 5419 07cc 54       		.byte	0x54
 5420 07cd 90000000 		.4byte	.LVL122
 5421 07d1 96000000 		.4byte	.LVL123
 5422 07d5 0100     		.2byte	0x1
 5423 07d7 50       		.byte	0x50
 5424 07d8 96000000 		.4byte	.LVL123
 5425 07dc E4000000 		.4byte	.LFE73
 5426 07e0 0100     		.2byte	0x1
 5427 07e2 54       		.byte	0x54
 5428 07e3 00000000 		.4byte	0
 5429 07e7 00000000 		.4byte	0
 5430              	.LLST48:
 5431 07eb 00000000 		.4byte	.LVL98
 5432 07ef 3F000000 		.4byte	.LVL110-1
 5433 07f3 0100     		.2byte	0x1
 5434 07f5 51       		.byte	0x51
 5435 07f6 3F000000 		.4byte	.LVL110-1
 5436 07fa 90000000 		.4byte	.LVL122
 5437 07fe 0100     		.2byte	0x1
 5438 0800 59       		.byte	0x59
ARM GAS  C:\Users\df16\AppData\Local\Temp\ccjld08w.s 			page 127


 5439 0801 90000000 		.4byte	.LVL122
 5440 0805 96000000 		.4byte	.LVL123
 5441 0809 0100     		.2byte	0x1
 5442 080b 51       		.byte	0x51
 5443 080c 96000000 		.4byte	.LVL123
 5444 0810 E4000000 		.4byte	.LFE73
 5445 0814 0100     		.2byte	0x1
 5446 0816 59       		.byte	0x59
 5447 0817 00000000 		.4byte	0
 5448 081b 00000000 		.4byte	0
 5449              	.LLST49:
 5450 081f 00000000 		.4byte	.LVL98
 5451 0823 20000000 		.4byte	.LVL102
 5452 0827 0100     		.2byte	0x1
 5453 0829 52       		.byte	0x52
 5454 082a 20000000 		.4byte	.LVL102
 5455 082e 22000000 		.4byte	.LVL103
 5456 0832 0100     		.2byte	0x1
 5457 0834 57       		.byte	0x57
 5458 0835 22000000 		.4byte	.LVL103
 5459 0839 2C000000 		.4byte	.LVL104
 5460 083d 0100     		.2byte	0x1
 5461 083f 52       		.byte	0x52
 5462 0840 2C000000 		.4byte	.LVL104
 5463 0844 2E000000 		.4byte	.LVL105
 5464 0848 0100     		.2byte	0x1
 5465 084a 57       		.byte	0x57
 5466 084b 2E000000 		.4byte	.LVL105
 5467 084f 30000000 		.4byte	.LVL106
 5468 0853 0100     		.2byte	0x1
 5469 0855 52       		.byte	0x52
 5470 0856 30000000 		.4byte	.LVL106
 5471 085a 32000000 		.4byte	.LVL107
 5472 085e 0100     		.2byte	0x1
 5473 0860 57       		.byte	0x57
 5474 0861 32000000 		.4byte	.LVL107
 5475 0865 34000000 		.4byte	.LVL108
 5476 0869 0100     		.2byte	0x1
 5477 086b 52       		.byte	0x52
 5478 086c 34000000 		.4byte	.LVL108
 5479 0870 E4000000 		.4byte	.LFE73
 5480 0874 0100     		.2byte	0x1
 5481 0876 57       		.byte	0x57
 5482 0877 00000000 		.4byte	0
 5483 087b 00000000 		.4byte	0
 5484              	.LLST50:
 5485 087f 00000000 		.4byte	.LVL98
 5486 0883 10000000 		.4byte	.LVL100
 5487 0887 0100     		.2byte	0x1
 5488 0889 53       		.byte	0x53
 5489 088a 10000000 		.4byte	.LVL100
 5490 088e E4000000 		.4byte	.LFE73
 5491 0892 0200     		.2byte	0x2
 5492 0894 91       		.byte	0x91
 5493 0895 54       		.sleb128 -44
 5494 0896 00000000 		.4byte	0
 5495 089a 00000000 		.4byte	0
ARM GAS  C:\Users\df16\AppData\Local\Temp\ccjld08w.s 			page 128


 5496              	.LLST51:
 5497 089e 0E000000 		.4byte	.LVL99
 5498 08a2 3C000000 		.4byte	.LVL109
 5499 08a6 0100     		.2byte	0x1
 5500 08a8 50       		.byte	0x50
 5501 08a9 3C000000 		.4byte	.LVL109
 5502 08ad 90000000 		.4byte	.LVL122
 5503 08b1 0100     		.2byte	0x1
 5504 08b3 54       		.byte	0x54
 5505 08b4 90000000 		.4byte	.LVL122
 5506 08b8 96000000 		.4byte	.LVL123
 5507 08bc 0100     		.2byte	0x1
 5508 08be 50       		.byte	0x50
 5509 08bf 96000000 		.4byte	.LVL123
 5510 08c3 E4000000 		.4byte	.LFE73
 5511 08c7 0100     		.2byte	0x1
 5512 08c9 54       		.byte	0x54
 5513 08ca 00000000 		.4byte	0
 5514 08ce 00000000 		.4byte	0
 5515              	.LLST52:
 5516 08d2 AE000000 		.4byte	.LVL126
 5517 08d6 B4000000 		.4byte	.LVL128
 5518 08da 0100     		.2byte	0x1
 5519 08dc 50       		.byte	0x50
 5520 08dd B4000000 		.4byte	.LVL128
 5521 08e1 E4000000 		.4byte	.LFE73
 5522 08e5 0100     		.2byte	0x1
 5523 08e7 55       		.byte	0x55
 5524 08e8 00000000 		.4byte	0
 5525 08ec 00000000 		.4byte	0
 5526              	.LLST53:
 5527 08f0 0E000000 		.4byte	.LVL99
 5528 08f4 40000000 		.4byte	.LVL110
 5529 08f8 0200     		.2byte	0x2
 5530 08fa 30       		.byte	0x30
 5531 08fb 9F       		.byte	0x9f
 5532 08fc 4C000000 		.4byte	.LVL113
 5533 0900 54000000 		.4byte	.LVL114
 5534 0904 0100     		.2byte	0x1
 5535 0906 50       		.byte	0x50
 5536 0907 54000000 		.4byte	.LVL114
 5537 090b 8A000000 		.4byte	.LVL120
 5538 090f 0100     		.2byte	0x1
 5539 0911 55       		.byte	0x55
 5540 0912 8A000000 		.4byte	.LVL120
 5541 0916 8D000000 		.4byte	.LVL121-1
 5542 091a 0100     		.2byte	0x1
 5543 091c 50       		.byte	0x50
 5544 091d 8D000000 		.4byte	.LVL121-1
 5545 0921 90000000 		.4byte	.LVL122
 5546 0925 0100     		.2byte	0x1
 5547 0927 55       		.byte	0x55
 5548 0928 90000000 		.4byte	.LVL122
 5549 092c 96000000 		.4byte	.LVL123
 5550 0930 0200     		.2byte	0x2
 5551 0932 30       		.byte	0x30
 5552 0933 9F       		.byte	0x9f
ARM GAS  C:\Users\df16\AppData\Local\Temp\ccjld08w.s 			page 129


 5553 0934 96000000 		.4byte	.LVL123
 5554 0938 B0000000 		.4byte	.LVL127
 5555 093c 0100     		.2byte	0x1
 5556 093e 55       		.byte	0x55
 5557 093f 00000000 		.4byte	0
 5558 0943 00000000 		.4byte	0
 5559              	.LLST54:
 5560 0947 0E000000 		.4byte	.LVL99
 5561 094b 18000000 		.4byte	.LVL101
 5562 094f 0100     		.2byte	0x1
 5563 0951 52       		.byte	0x52
 5564 0952 18000000 		.4byte	.LVL101
 5565 0956 22000000 		.4byte	.LVL103
 5566 095a 0100     		.2byte	0x1
 5567 095c 56       		.byte	0x56
 5568 095d 22000000 		.4byte	.LVL103
 5569 0961 2C000000 		.4byte	.LVL104
 5570 0965 0100     		.2byte	0x1
 5571 0967 52       		.byte	0x52
 5572 0968 2C000000 		.4byte	.LVL104
 5573 096c 2E000000 		.4byte	.LVL105
 5574 0970 0100     		.2byte	0x1
 5575 0972 57       		.byte	0x57
 5576 0973 2E000000 		.4byte	.LVL105
 5577 0977 32000000 		.4byte	.LVL107
 5578 097b 0100     		.2byte	0x1
 5579 097d 56       		.byte	0x56
 5580 097e 32000000 		.4byte	.LVL107
 5581 0982 34000000 		.4byte	.LVL108
 5582 0986 0100     		.2byte	0x1
 5583 0988 52       		.byte	0x52
 5584 0989 34000000 		.4byte	.LVL108
 5585 098d CA000000 		.4byte	.LVL131
 5586 0991 0100     		.2byte	0x1
 5587 0993 56       		.byte	0x56
 5588 0994 00000000 		.4byte	0
 5589 0998 00000000 		.4byte	0
 5590              	.LLST55:
 5591 099c 34000000 		.4byte	.LVL108
 5592 09a0 3F000000 		.4byte	.LVL110-1
 5593 09a4 0100     		.2byte	0x1
 5594 09a6 52       		.byte	0x52
 5595 09a7 90000000 		.4byte	.LVL122
 5596 09ab 96000000 		.4byte	.LVL123
 5597 09af 0100     		.2byte	0x1
 5598 09b1 52       		.byte	0x52
 5599 09b2 00000000 		.4byte	0
 5600 09b6 00000000 		.4byte	0
 5601              	.LLST56:
 5602 09ba 00000000 		.4byte	.LVL134
 5603 09be 1E000000 		.4byte	.LVL140
 5604 09c2 0100     		.2byte	0x1
 5605 09c4 50       		.byte	0x50
 5606 09c5 1E000000 		.4byte	.LVL140
 5607 09c9 7A000000 		.4byte	.LFE74
 5608 09cd 0100     		.2byte	0x1
 5609 09cf 54       		.byte	0x54
ARM GAS  C:\Users\df16\AppData\Local\Temp\ccjld08w.s 			page 130


 5610 09d0 00000000 		.4byte	0
 5611 09d4 00000000 		.4byte	0
 5612              	.LLST57:
 5613 09d8 00000000 		.4byte	.LVL134
 5614 09dc 21000000 		.4byte	.LVL141-1
 5615 09e0 0100     		.2byte	0x1
 5616 09e2 51       		.byte	0x51
 5617 09e3 21000000 		.4byte	.LVL141-1
 5618 09e7 60000000 		.4byte	.LVL148
 5619 09eb 0100     		.2byte	0x1
 5620 09ed 56       		.byte	0x56
 5621 09ee 60000000 		.4byte	.LVL148
 5622 09f2 7A000000 		.4byte	.LFE74
 5623 09f6 0400     		.2byte	0x4
 5624 09f8 F3       		.byte	0xf3
 5625 09f9 01       		.uleb128 0x1
 5626 09fa 51       		.byte	0x51
 5627 09fb 9F       		.byte	0x9f
 5628 09fc 00000000 		.4byte	0
 5629 0a00 00000000 		.4byte	0
 5630              	.LLST58:
 5631 0a04 00000000 		.4byte	.LVL134
 5632 0a08 21000000 		.4byte	.LVL141-1
 5633 0a0c 0100     		.2byte	0x1
 5634 0a0e 52       		.byte	0x52
 5635 0a0f 21000000 		.4byte	.LVL141-1
 5636 0a13 32000000 		.4byte	.LVL144
 5637 0a17 0100     		.2byte	0x1
 5638 0a19 55       		.byte	0x55
 5639 0a1a 32000000 		.4byte	.LVL144
 5640 0a1e 7A000000 		.4byte	.LFE74
 5641 0a22 0400     		.2byte	0x4
 5642 0a24 F3       		.byte	0xf3
 5643 0a25 01       		.uleb128 0x1
 5644 0a26 52       		.byte	0x52
 5645 0a27 9F       		.byte	0x9f
 5646 0a28 00000000 		.4byte	0
 5647 0a2c 00000000 		.4byte	0
 5648              	.LLST59:
 5649 0a30 00000000 		.4byte	.LVL134
 5650 0a34 10000000 		.4byte	.LVL136
 5651 0a38 0100     		.2byte	0x1
 5652 0a3a 53       		.byte	0x53
 5653 0a3b 10000000 		.4byte	.LVL136
 5654 0a3f 7A000000 		.4byte	.LFE74
 5655 0a43 0100     		.2byte	0x1
 5656 0a45 58       		.byte	0x58
 5657 0a46 00000000 		.4byte	0
 5658 0a4a 00000000 		.4byte	0
 5659              	.LLST60:
 5660 0a4e 0E000000 		.4byte	.LVL135
 5661 0a52 1E000000 		.4byte	.LVL140
 5662 0a56 0100     		.2byte	0x1
 5663 0a58 50       		.byte	0x50
 5664 0a59 1E000000 		.4byte	.LVL140
 5665 0a5d 7A000000 		.4byte	.LFE74
 5666 0a61 0100     		.2byte	0x1
ARM GAS  C:\Users\df16\AppData\Local\Temp\ccjld08w.s 			page 131


 5667 0a63 54       		.byte	0x54
 5668 0a64 00000000 		.4byte	0
 5669 0a68 00000000 		.4byte	0
 5670              	.LLST61:
 5671 0a6c 30000000 		.4byte	.LVL143
 5672 0a70 36000000 		.4byte	.LVL145
 5673 0a74 0100     		.2byte	0x1
 5674 0a76 50       		.byte	0x50
 5675 0a77 36000000 		.4byte	.LVL145
 5676 0a7b 7A000000 		.4byte	.LFE74
 5677 0a7f 0100     		.2byte	0x1
 5678 0a81 55       		.byte	0x55
 5679 0a82 00000000 		.4byte	0
 5680 0a86 00000000 		.4byte	0
 5681              	.LLST62:
 5682 0a8a 22000000 		.4byte	.LVL141
 5683 0a8e 2C000000 		.4byte	.LVL142
 5684 0a92 0100     		.2byte	0x1
 5685 0a94 50       		.byte	0x50
 5686 0a95 2C000000 		.4byte	.LVL142
 5687 0a99 2F000000 		.4byte	.LVL143-1
 5688 0a9d 0100     		.2byte	0x1
 5689 0a9f 53       		.byte	0x53
 5690 0aa0 00000000 		.4byte	0
 5691 0aa4 00000000 		.4byte	0
 5692              	.LLST63:
 5693 0aa8 0E000000 		.4byte	.LVL135
 5694 0aac 18000000 		.4byte	.LVL137
 5695 0ab0 0100     		.2byte	0x1
 5696 0ab2 52       		.byte	0x52
 5697 0ab3 18000000 		.4byte	.LVL137
 5698 0ab7 1A000000 		.4byte	.LVL138
 5699 0abb 0100     		.2byte	0x1
 5700 0abd 57       		.byte	0x57
 5701 0abe 1A000000 		.4byte	.LVL138
 5702 0ac2 1C000000 		.4byte	.LVL139
 5703 0ac6 0100     		.2byte	0x1
 5704 0ac8 52       		.byte	0x52
 5705 0ac9 1C000000 		.4byte	.LVL139
 5706 0acd 54000000 		.4byte	.LVL147
 5707 0ad1 0100     		.2byte	0x1
 5708 0ad3 57       		.byte	0x57
 5709 0ad4 00000000 		.4byte	0
 5710 0ad8 00000000 		.4byte	0
 5711              	.LLST64:
 5712 0adc 6E000000 		.4byte	.LVL150
 5713 0ae0 72000000 		.4byte	.LVL151
 5714 0ae4 0100     		.2byte	0x1
 5715 0ae6 57       		.byte	0x57
 5716 0ae7 00000000 		.4byte	0
 5717 0aeb 00000000 		.4byte	0
 5718              	.LLST65:
 5719 0aef 00000000 		.4byte	.LVL152
 5720 0af3 21000000 		.4byte	.LVL156-1
 5721 0af7 0100     		.2byte	0x1
 5722 0af9 50       		.byte	0x50
 5723 0afa 21000000 		.4byte	.LVL156-1
ARM GAS  C:\Users\df16\AppData\Local\Temp\ccjld08w.s 			page 132


 5724 0afe 60000000 		.4byte	.LVL166
 5725 0b02 0100     		.2byte	0x1
 5726 0b04 54       		.byte	0x54
 5727 0b05 60000000 		.4byte	.LVL166
 5728 0b09 62000000 		.4byte	.LVL167
 5729 0b0d 0100     		.2byte	0x1
 5730 0b0f 50       		.byte	0x50
 5731 0b10 62000000 		.4byte	.LVL167
 5732 0b14 A8000000 		.4byte	.LFE76
 5733 0b18 0100     		.2byte	0x1
 5734 0b1a 54       		.byte	0x54
 5735 0b1b 00000000 		.4byte	0
 5736 0b1f 00000000 		.4byte	0
 5737              	.LLST66:
 5738 0b23 00000000 		.4byte	.LVL152
 5739 0b27 21000000 		.4byte	.LVL156-1
 5740 0b2b 0100     		.2byte	0x1
 5741 0b2d 51       		.byte	0x51
 5742 0b2e 21000000 		.4byte	.LVL156-1
 5743 0b32 60000000 		.4byte	.LVL166
 5744 0b36 0100     		.2byte	0x1
 5745 0b38 58       		.byte	0x58
 5746 0b39 60000000 		.4byte	.LVL166
 5747 0b3d 65000000 		.4byte	.LVL168-1
 5748 0b41 0100     		.2byte	0x1
 5749 0b43 51       		.byte	0x51
 5750 0b44 65000000 		.4byte	.LVL168-1
 5751 0b48 A8000000 		.4byte	.LFE76
 5752 0b4c 0100     		.2byte	0x1
 5753 0b4e 58       		.byte	0x58
 5754 0b4f 00000000 		.4byte	0
 5755 0b53 00000000 		.4byte	0
 5756              	.LLST67:
 5757 0b57 00000000 		.4byte	.LVL152
 5758 0b5b 21000000 		.4byte	.LVL156-1
 5759 0b5f 0100     		.2byte	0x1
 5760 0b61 52       		.byte	0x52
 5761 0b62 21000000 		.4byte	.LVL156-1
 5762 0b66 60000000 		.4byte	.LVL166
 5763 0b6a 0100     		.2byte	0x1
 5764 0b6c 59       		.byte	0x59
 5765 0b6d 60000000 		.4byte	.LVL166
 5766 0b71 65000000 		.4byte	.LVL168-1
 5767 0b75 0100     		.2byte	0x1
 5768 0b77 52       		.byte	0x52
 5769 0b78 65000000 		.4byte	.LVL168-1
 5770 0b7c A8000000 		.4byte	.LFE76
 5771 0b80 0100     		.2byte	0x1
 5772 0b82 59       		.byte	0x59
 5773 0b83 00000000 		.4byte	0
 5774 0b87 00000000 		.4byte	0
 5775              	.LLST68:
 5776 0b8b 00000000 		.4byte	.LVL152
 5777 0b8f 10000000 		.4byte	.LVL154
 5778 0b93 0100     		.2byte	0x1
 5779 0b95 53       		.byte	0x53
 5780 0b96 10000000 		.4byte	.LVL154
ARM GAS  C:\Users\df16\AppData\Local\Temp\ccjld08w.s 			page 133


 5781 0b9a A8000000 		.4byte	.LFE76
 5782 0b9e 0100     		.2byte	0x1
 5783 0ba0 57       		.byte	0x57
 5784 0ba1 00000000 		.4byte	0
 5785 0ba5 00000000 		.4byte	0
 5786              	.LLST69:
 5787 0ba9 0E000000 		.4byte	.LVL153
 5788 0bad 21000000 		.4byte	.LVL156-1
 5789 0bb1 0100     		.2byte	0x1
 5790 0bb3 50       		.byte	0x50
 5791 0bb4 21000000 		.4byte	.LVL156-1
 5792 0bb8 60000000 		.4byte	.LVL166
 5793 0bbc 0100     		.2byte	0x1
 5794 0bbe 54       		.byte	0x54
 5795 0bbf 60000000 		.4byte	.LVL166
 5796 0bc3 62000000 		.4byte	.LVL167
 5797 0bc7 0100     		.2byte	0x1
 5798 0bc9 50       		.byte	0x50
 5799 0bca 62000000 		.4byte	.LVL167
 5800 0bce A8000000 		.4byte	.LFE76
 5801 0bd2 0100     		.2byte	0x1
 5802 0bd4 54       		.byte	0x54
 5803 0bd5 00000000 		.4byte	0
 5804 0bd9 00000000 		.4byte	0
 5805              	.LLST70:
 5806 0bdd 0E000000 		.4byte	.LVL153
 5807 0be1 7A000000 		.4byte	.LVL170
 5808 0be5 0200     		.2byte	0x2
 5809 0be7 30       		.byte	0x30
 5810 0be8 9F       		.byte	0x9f
 5811 0be9 7A000000 		.4byte	.LVL170
 5812 0bed 81000000 		.4byte	.LVL172-1
 5813 0bf1 0100     		.2byte	0x1
 5814 0bf3 50       		.byte	0x50
 5815 0bf4 81000000 		.4byte	.LVL172-1
 5816 0bf8 9E000000 		.4byte	.LVL176
 5817 0bfc 0100     		.2byte	0x1
 5818 0bfe 55       		.byte	0x55
 5819 0bff 9E000000 		.4byte	.LVL176
 5820 0c03 A0000000 		.4byte	.LVL177
 5821 0c07 0200     		.2byte	0x2
 5822 0c09 30       		.byte	0x30
 5823 0c0a 9F       		.byte	0x9f
 5824 0c0b A0000000 		.4byte	.LVL177
 5825 0c0f A8000000 		.4byte	.LFE76
 5826 0c13 0100     		.2byte	0x1
 5827 0c15 55       		.byte	0x55
 5828 0c16 00000000 		.4byte	0
 5829 0c1a 00000000 		.4byte	0
 5830              	.LLST71:
 5831 0c1e 2A000000 		.4byte	.LVL158
 5832 0c22 32000000 		.4byte	.LVL159
 5833 0c26 0100     		.2byte	0x1
 5834 0c28 50       		.byte	0x50
 5835 0c29 32000000 		.4byte	.LVL159
 5836 0c2d 5E000000 		.4byte	.LVL165
 5837 0c31 0100     		.2byte	0x1
ARM GAS  C:\Users\df16\AppData\Local\Temp\ccjld08w.s 			page 134


 5838 0c33 55       		.byte	0x55
 5839 0c34 5E000000 		.4byte	.LVL165
 5840 0c38 60000000 		.4byte	.LVL166
 5841 0c3c 0100     		.2byte	0x1
 5842 0c3e 50       		.byte	0x50
 5843 0c3f 68000000 		.4byte	.LVL169
 5844 0c43 7C000000 		.4byte	.LVL171
 5845 0c47 0100     		.2byte	0x1
 5846 0c49 55       		.byte	0x55
 5847 0c4a 9E000000 		.4byte	.LVL176
 5848 0c4e A0000000 		.4byte	.LVL177
 5849 0c52 0100     		.2byte	0x1
 5850 0c54 55       		.byte	0x55
 5851 0c55 00000000 		.4byte	0
 5852 0c59 00000000 		.4byte	0
 5853              	.LLST72:
 5854 0c5d 1C000000 		.4byte	.LVL155
 5855 0c61 8A000000 		.4byte	.LVL173
 5856 0c65 0100     		.2byte	0x1
 5857 0c67 56       		.byte	0x56
 5858 0c68 9E000000 		.4byte	.LVL176
 5859 0c6c A0000000 		.4byte	.LVL177
 5860 0c70 0100     		.2byte	0x1
 5861 0c72 56       		.byte	0x56
 5862 0c73 00000000 		.4byte	0
 5863 0c77 00000000 		.4byte	0
 5864              	.LLST73:
 5865 0c7b 00000000 		.4byte	.LVL178
 5866 0c7f 11000000 		.4byte	.LVL179-1
 5867 0c83 0100     		.2byte	0x1
 5868 0c85 50       		.byte	0x50
 5869 0c86 11000000 		.4byte	.LVL179-1
 5870 0c8a 2C000000 		.4byte	.LVL184
 5871 0c8e 0100     		.2byte	0x1
 5872 0c90 54       		.byte	0x54
 5873 0c91 2C000000 		.4byte	.LVL184
 5874 0c95 2E000000 		.4byte	.LVL185
 5875 0c99 0100     		.2byte	0x1
 5876 0c9b 50       		.byte	0x50
 5877 0c9c 2E000000 		.4byte	.LVL185
 5878 0ca0 30000000 		.4byte	.LVL186
 5879 0ca4 0400     		.2byte	0x4
 5880 0ca6 F3       		.byte	0xf3
 5881 0ca7 01       		.uleb128 0x1
 5882 0ca8 50       		.byte	0x50
 5883 0ca9 9F       		.byte	0x9f
 5884 0caa 30000000 		.4byte	.LVL186
 5885 0cae 36000000 		.4byte	.LFE77
 5886 0cb2 0100     		.2byte	0x1
 5887 0cb4 54       		.byte	0x54
 5888 0cb5 00000000 		.4byte	0
 5889 0cb9 00000000 		.4byte	0
 5890              	.LLST74:
 5891 0cbd 00000000 		.4byte	.LVL178
 5892 0cc1 11000000 		.4byte	.LVL179-1
 5893 0cc5 0100     		.2byte	0x1
 5894 0cc7 50       		.byte	0x50
ARM GAS  C:\Users\df16\AppData\Local\Temp\ccjld08w.s 			page 135


 5895 0cc8 11000000 		.4byte	.LVL179-1
 5896 0ccc 2C000000 		.4byte	.LVL184
 5897 0cd0 0100     		.2byte	0x1
 5898 0cd2 54       		.byte	0x54
 5899 0cd3 2C000000 		.4byte	.LVL184
 5900 0cd7 2E000000 		.4byte	.LVL185
 5901 0cdb 0100     		.2byte	0x1
 5902 0cdd 50       		.byte	0x50
 5903 0cde 2E000000 		.4byte	.LVL185
 5904 0ce2 30000000 		.4byte	.LVL186
 5905 0ce6 0400     		.2byte	0x4
 5906 0ce8 F3       		.byte	0xf3
 5907 0ce9 01       		.uleb128 0x1
 5908 0cea 50       		.byte	0x50
 5909 0ceb 9F       		.byte	0x9f
 5910 0cec 30000000 		.4byte	.LVL186
 5911 0cf0 36000000 		.4byte	.LFE77
 5912 0cf4 0100     		.2byte	0x1
 5913 0cf6 54       		.byte	0x54
 5914 0cf7 00000000 		.4byte	0
 5915 0cfb 00000000 		.4byte	0
 5916              	.LLST75:
 5917 0cff 28000000 		.4byte	.LVL183
 5918 0d03 2C000000 		.4byte	.LVL184
 5919 0d07 0100     		.2byte	0x1
 5920 0d09 50       		.byte	0x50
 5921 0d0a 2E000000 		.4byte	.LVL185
 5922 0d0e 30000000 		.4byte	.LVL186
 5923 0d12 0100     		.2byte	0x1
 5924 0d14 50       		.byte	0x50
 5925 0d15 32000000 		.4byte	.LVL187
 5926 0d19 36000000 		.4byte	.LFE77
 5927 0d1d 0100     		.2byte	0x1
 5928 0d1f 50       		.byte	0x50
 5929 0d20 00000000 		.4byte	0
 5930 0d24 00000000 		.4byte	0
 5931              	.LLST76:
 5932 0d28 12000000 		.4byte	.LVL179
 5933 0d2c 22000000 		.4byte	.LVL181
 5934 0d30 0100     		.2byte	0x1
 5935 0d32 50       		.byte	0x50
 5936 0d33 22000000 		.4byte	.LVL181
 5937 0d37 25000000 		.4byte	.LVL182-1
 5938 0d3b 0100     		.2byte	0x1
 5939 0d3d 53       		.byte	0x53
 5940 0d3e 30000000 		.4byte	.LVL186
 5941 0d42 32000000 		.4byte	.LVL187
 5942 0d46 0100     		.2byte	0x1
 5943 0d48 50       		.byte	0x50
 5944 0d49 00000000 		.4byte	0
 5945 0d4d 00000000 		.4byte	0
 5946              	.LLST77:
 5947 0d51 18000000 		.4byte	.LVL180
 5948 0d55 2C000000 		.4byte	.LVL184
 5949 0d59 0100     		.2byte	0x1
 5950 0d5b 55       		.byte	0x55
 5951 0d5c 00000000 		.4byte	0
ARM GAS  C:\Users\df16\AppData\Local\Temp\ccjld08w.s 			page 136


 5952 0d60 00000000 		.4byte	0
 5953              	.LLST78:
 5954 0d64 00000000 		.4byte	.LVL188
 5955 0d68 1E000000 		.4byte	.LVL192
 5956 0d6c 0100     		.2byte	0x1
 5957 0d6e 50       		.byte	0x50
 5958 0d6f 1E000000 		.4byte	.LVL192
 5959 0d73 76000000 		.4byte	.LFE78
 5960 0d77 0100     		.2byte	0x1
 5961 0d79 54       		.byte	0x54
 5962 0d7a 00000000 		.4byte	0
 5963 0d7e 00000000 		.4byte	0
 5964              	.LLST79:
 5965 0d82 00000000 		.4byte	.LVL188
 5966 0d86 21000000 		.4byte	.LVL193-1
 5967 0d8a 0100     		.2byte	0x1
 5968 0d8c 51       		.byte	0x51
 5969 0d8d 21000000 		.4byte	.LVL193-1
 5970 0d91 58000000 		.4byte	.LVL199
 5971 0d95 0100     		.2byte	0x1
 5972 0d97 56       		.byte	0x56
 5973 0d98 58000000 		.4byte	.LVL199
 5974 0d9c 6C000000 		.4byte	.LVL202
 5975 0da0 0400     		.2byte	0x4
 5976 0da2 F3       		.byte	0xf3
 5977 0da3 01       		.uleb128 0x1
 5978 0da4 51       		.byte	0x51
 5979 0da5 9F       		.byte	0x9f
 5980 0da6 6C000000 		.4byte	.LVL202
 5981 0daa 6E000000 		.4byte	.LVL203
 5982 0dae 0100     		.2byte	0x1
 5983 0db0 56       		.byte	0x56
 5984 0db1 6E000000 		.4byte	.LVL203
 5985 0db5 76000000 		.4byte	.LFE78
 5986 0db9 0400     		.2byte	0x4
 5987 0dbb F3       		.byte	0xf3
 5988 0dbc 01       		.uleb128 0x1
 5989 0dbd 51       		.byte	0x51
 5990 0dbe 9F       		.byte	0x9f
 5991 0dbf 00000000 		.4byte	0
 5992 0dc3 00000000 		.4byte	0
 5993              	.LLST80:
 5994 0dc7 00000000 		.4byte	.LVL188
 5995 0dcb 21000000 		.4byte	.LVL193-1
 5996 0dcf 0100     		.2byte	0x1
 5997 0dd1 52       		.byte	0x52
 5998 0dd2 21000000 		.4byte	.LVL193-1
 5999 0dd6 4C000000 		.4byte	.LVL197
 6000 0dda 0100     		.2byte	0x1
 6001 0ddc 57       		.byte	0x57
 6002 0ddd 4C000000 		.4byte	.LVL197
 6003 0de1 6C000000 		.4byte	.LVL202
 6004 0de5 0400     		.2byte	0x4
 6005 0de7 F3       		.byte	0xf3
 6006 0de8 01       		.uleb128 0x1
 6007 0de9 52       		.byte	0x52
 6008 0dea 9F       		.byte	0x9f
ARM GAS  C:\Users\df16\AppData\Local\Temp\ccjld08w.s 			page 137


 6009 0deb 6C000000 		.4byte	.LVL202
 6010 0def 6E000000 		.4byte	.LVL203
 6011 0df3 0100     		.2byte	0x1
 6012 0df5 57       		.byte	0x57
 6013 0df6 6E000000 		.4byte	.LVL203
 6014 0dfa 76000000 		.4byte	.LFE78
 6015 0dfe 0400     		.2byte	0x4
 6016 0e00 F3       		.byte	0xf3
 6017 0e01 01       		.uleb128 0x1
 6018 0e02 52       		.byte	0x52
 6019 0e03 9F       		.byte	0x9f
 6020 0e04 00000000 		.4byte	0
 6021 0e08 00000000 		.4byte	0
 6022              	.LLST81:
 6023 0e0c 00000000 		.4byte	.LVL188
 6024 0e10 10000000 		.4byte	.LVL190
 6025 0e14 0100     		.2byte	0x1
 6026 0e16 53       		.byte	0x53
 6027 0e17 10000000 		.4byte	.LVL190
 6028 0e1b 76000000 		.4byte	.LFE78
 6029 0e1f 0100     		.2byte	0x1
 6030 0e21 58       		.byte	0x58
 6031 0e22 00000000 		.4byte	0
 6032 0e26 00000000 		.4byte	0
 6033              	.LLST82:
 6034 0e2a 0E000000 		.4byte	.LVL189
 6035 0e2e 1E000000 		.4byte	.LVL192
 6036 0e32 0100     		.2byte	0x1
 6037 0e34 50       		.byte	0x50
 6038 0e35 1E000000 		.4byte	.LVL192
 6039 0e39 76000000 		.4byte	.LFE78
 6040 0e3d 0100     		.2byte	0x1
 6041 0e3f 54       		.byte	0x54
 6042 0e40 00000000 		.4byte	0
 6043 0e44 00000000 		.4byte	0
 6044              	.LLST83:
 6045 0e48 0E000000 		.4byte	.LVL189
 6046 0e4c 34000000 		.4byte	.LVL195
 6047 0e50 0200     		.2byte	0x2
 6048 0e52 30       		.byte	0x30
 6049 0e53 9F       		.byte	0x9f
 6050 0e54 34000000 		.4byte	.LVL195
 6051 0e58 52000000 		.4byte	.LVL198
 6052 0e5c 0100     		.2byte	0x1
 6053 0e5e 50       		.byte	0x50
 6054 0e5f 52000000 		.4byte	.LVL198
 6055 0e63 6C000000 		.4byte	.LVL202
 6056 0e67 0100     		.2byte	0x1
 6057 0e69 55       		.byte	0x55
 6058 0e6a 6C000000 		.4byte	.LVL202
 6059 0e6e 6E000000 		.4byte	.LVL203
 6060 0e72 0200     		.2byte	0x2
 6061 0e74 30       		.byte	0x30
 6062 0e75 9F       		.byte	0x9f
 6063 0e76 6E000000 		.4byte	.LVL203
 6064 0e7a 76000000 		.4byte	.LFE78
 6065 0e7e 0100     		.2byte	0x1
ARM GAS  C:\Users\df16\AppData\Local\Temp\ccjld08w.s 			page 138


 6066 0e80 55       		.byte	0x55
 6067 0e81 00000000 		.4byte	0
 6068 0e85 00000000 		.4byte	0
 6069              	.LLST84:
 6070 0e89 22000000 		.4byte	.LVL193
 6071 0e8d 30000000 		.4byte	.LVL194
 6072 0e91 0100     		.2byte	0x1
 6073 0e93 50       		.byte	0x50
 6074 0e94 30000000 		.4byte	.LVL194
 6075 0e98 33000000 		.4byte	.LVL195-1
 6076 0e9c 0100     		.2byte	0x1
 6077 0e9e 53       		.byte	0x53
 6078 0e9f 6C000000 		.4byte	.LVL202
 6079 0ea3 6E000000 		.4byte	.LVL203
 6080 0ea7 0100     		.2byte	0x1
 6081 0ea9 50       		.byte	0x50
 6082 0eaa 00000000 		.4byte	0
 6083 0eae 00000000 		.4byte	0
 6084              	.LLST85:
 6085 0eb2 1C000000 		.4byte	.LVL191
 6086 0eb6 36000000 		.4byte	.LVL196
 6087 0eba 0100     		.2byte	0x1
 6088 0ebc 55       		.byte	0x55
 6089 0ebd 6C000000 		.4byte	.LVL202
 6090 0ec1 6E000000 		.4byte	.LVL203
 6091 0ec5 0100     		.2byte	0x1
 6092 0ec7 55       		.byte	0x55
 6093 0ec8 00000000 		.4byte	0
 6094 0ecc 00000000 		.4byte	0
 6095              	.LLST86:
 6096 0ed0 66000000 		.4byte	.LVL201
 6097 0ed4 6C000000 		.4byte	.LVL202
 6098 0ed8 0100     		.2byte	0x1
 6099 0eda 57       		.byte	0x57
 6100 0edb 00000000 		.4byte	0
 6101 0edf 00000000 		.4byte	0
 6102              	.LLST87:
 6103 0ee3 00000000 		.4byte	.LVL204
 6104 0ee7 0A000000 		.4byte	.LVL206
 6105 0eeb 0100     		.2byte	0x1
 6106 0eed 50       		.byte	0x50
 6107 0eee 0A000000 		.4byte	.LVL206
 6108 0ef2 0C000000 		.4byte	.LVL207
 6109 0ef6 0400     		.2byte	0x4
 6110 0ef8 F3       		.byte	0xf3
 6111 0ef9 01       		.uleb128 0x1
 6112 0efa 50       		.byte	0x50
 6113 0efb 9F       		.byte	0x9f
 6114 0efc 0C000000 		.4byte	.LVL207
 6115 0f00 0E000000 		.4byte	.LVL208
 6116 0f04 0100     		.2byte	0x1
 6117 0f06 50       		.byte	0x50
 6118 0f07 0E000000 		.4byte	.LVL208
 6119 0f0b 10000000 		.4byte	.LFE80
 6120 0f0f 0400     		.2byte	0x4
 6121 0f11 F3       		.byte	0xf3
 6122 0f12 01       		.uleb128 0x1
ARM GAS  C:\Users\df16\AppData\Local\Temp\ccjld08w.s 			page 139


 6123 0f13 50       		.byte	0x50
 6124 0f14 9F       		.byte	0x9f
 6125 0f15 00000000 		.4byte	0
 6126 0f19 00000000 		.4byte	0
 6127              	.LLST88:
 6128 0f1d 00000000 		.4byte	.LVL204
 6129 0f21 0A000000 		.4byte	.LVL206
 6130 0f25 0100     		.2byte	0x1
 6131 0f27 50       		.byte	0x50
 6132 0f28 0A000000 		.4byte	.LVL206
 6133 0f2c 0C000000 		.4byte	.LVL207
 6134 0f30 0400     		.2byte	0x4
 6135 0f32 F3       		.byte	0xf3
 6136 0f33 01       		.uleb128 0x1
 6137 0f34 50       		.byte	0x50
 6138 0f35 9F       		.byte	0x9f
 6139 0f36 0C000000 		.4byte	.LVL207
 6140 0f3a 0E000000 		.4byte	.LVL208
 6141 0f3e 0100     		.2byte	0x1
 6142 0f40 50       		.byte	0x50
 6143 0f41 0E000000 		.4byte	.LVL208
 6144 0f45 10000000 		.4byte	.LFE80
 6145 0f49 0400     		.2byte	0x4
 6146 0f4b F3       		.byte	0xf3
 6147 0f4c 01       		.uleb128 0x1
 6148 0f4d 50       		.byte	0x50
 6149 0f4e 9F       		.byte	0x9f
 6150 0f4f 00000000 		.4byte	0
 6151 0f53 00000000 		.4byte	0
 6152              	.LLST89:
 6153 0f57 00000000 		.4byte	.LVL209
 6154 0f5b 13000000 		.4byte	.LVL212-1
 6155 0f5f 0100     		.2byte	0x1
 6156 0f61 50       		.byte	0x50
 6157 0f62 13000000 		.4byte	.LVL212-1
 6158 0f66 20000000 		.4byte	.LFE81
 6159 0f6a 0400     		.2byte	0x4
 6160 0f6c F3       		.byte	0xf3
 6161 0f6d 01       		.uleb128 0x1
 6162 0f6e 50       		.byte	0x50
 6163 0f6f 9F       		.byte	0x9f
 6164 0f70 00000000 		.4byte	0
 6165 0f74 00000000 		.4byte	0
 6166              	.LLST90:
 6167 0f78 02000000 		.4byte	.LVL210
 6168 0f7c 13000000 		.4byte	.LVL212-1
 6169 0f80 0100     		.2byte	0x1
 6170 0f82 50       		.byte	0x50
 6171 0f83 13000000 		.4byte	.LVL212-1
 6172 0f87 20000000 		.4byte	.LFE81
 6173 0f8b 0400     		.2byte	0x4
 6174 0f8d F3       		.byte	0xf3
 6175 0f8e 01       		.uleb128 0x1
 6176 0f8f 50       		.byte	0x50
 6177 0f90 9F       		.byte	0x9f
 6178 0f91 00000000 		.4byte	0
 6179 0f95 00000000 		.4byte	0
ARM GAS  C:\Users\df16\AppData\Local\Temp\ccjld08w.s 			page 140


 6180              	.LLST91:
 6181 0f99 00000000 		.4byte	.LVL215
 6182 0f9d 20000000 		.4byte	.LVL217
 6183 0fa1 0100     		.2byte	0x1
 6184 0fa3 50       		.byte	0x50
 6185 0fa4 20000000 		.4byte	.LVL217
 6186 0fa8 36000000 		.4byte	.LVL221
 6187 0fac 0100     		.2byte	0x1
 6188 0fae 54       		.byte	0x54
 6189 0faf 36000000 		.4byte	.LVL221
 6190 0fb3 38000000 		.4byte	.LVL222
 6191 0fb7 0100     		.2byte	0x1
 6192 0fb9 50       		.byte	0x50
 6193 0fba 38000000 		.4byte	.LVL222
 6194 0fbe 40000000 		.4byte	.LFE82
 6195 0fc2 0400     		.2byte	0x4
 6196 0fc4 F3       		.byte	0xf3
 6197 0fc5 01       		.uleb128 0x1
 6198 0fc6 50       		.byte	0x50
 6199 0fc7 9F       		.byte	0x9f
 6200 0fc8 00000000 		.4byte	0
 6201 0fcc 00000000 		.4byte	0
 6202              	.LLST92:
 6203 0fd0 00000000 		.4byte	.LVL215
 6204 0fd4 2C000000 		.4byte	.LVL218
 6205 0fd8 0100     		.2byte	0x1
 6206 0fda 51       		.byte	0x51
 6207 0fdb 2C000000 		.4byte	.LVL218
 6208 0fdf 2F000000 		.4byte	.LVL219-1
 6209 0fe3 0200     		.2byte	0x2
 6210 0fe5 91       		.byte	0x91
 6211 0fe6 6C       		.sleb128 -20
 6212 0fe7 2F000000 		.4byte	.LVL219-1
 6213 0feb 36000000 		.4byte	.LVL221
 6214 0fef 0400     		.2byte	0x4
 6215 0ff1 F3       		.byte	0xf3
 6216 0ff2 01       		.uleb128 0x1
 6217 0ff3 51       		.byte	0x51
 6218 0ff4 9F       		.byte	0x9f
 6219 0ff5 36000000 		.4byte	.LVL221
 6220 0ff9 38000000 		.4byte	.LVL222
 6221 0ffd 0100     		.2byte	0x1
 6222 0fff 51       		.byte	0x51
 6223 1000 38000000 		.4byte	.LVL222
 6224 1004 40000000 		.4byte	.LFE82
 6225 1008 0400     		.2byte	0x4
 6226 100a F3       		.byte	0xf3
 6227 100b 01       		.uleb128 0x1
 6228 100c 51       		.byte	0x51
 6229 100d 9F       		.byte	0x9f
 6230 100e 00000000 		.4byte	0
 6231 1012 00000000 		.4byte	0
 6232              	.LLST93:
 6233 1016 04000000 		.4byte	.LVL216
 6234 101a 20000000 		.4byte	.LVL217
 6235 101e 0100     		.2byte	0x1
 6236 1020 50       		.byte	0x50
ARM GAS  C:\Users\df16\AppData\Local\Temp\ccjld08w.s 			page 141


 6237 1021 20000000 		.4byte	.LVL217
 6238 1025 36000000 		.4byte	.LVL221
 6239 1029 0100     		.2byte	0x1
 6240 102b 54       		.byte	0x54
 6241 102c 36000000 		.4byte	.LVL221
 6242 1030 38000000 		.4byte	.LVL222
 6243 1034 0100     		.2byte	0x1
 6244 1036 50       		.byte	0x50
 6245 1037 38000000 		.4byte	.LVL222
 6246 103b 40000000 		.4byte	.LFE82
 6247 103f 0400     		.2byte	0x4
 6248 1041 F3       		.byte	0xf3
 6249 1042 01       		.uleb128 0x1
 6250 1043 50       		.byte	0x50
 6251 1044 9F       		.byte	0x9f
 6252 1045 00000000 		.4byte	0
 6253 1049 00000000 		.4byte	0
 6254              	.LLST94:
 6255 104d 32000000 		.4byte	.LVL220
 6256 1051 36000000 		.4byte	.LVL221
 6257 1055 0200     		.2byte	0x2
 6258 1057 31       		.byte	0x31
 6259 1058 9F       		.byte	0x9f
 6260 1059 38000000 		.4byte	.LVL222
 6261 105d 40000000 		.4byte	.LFE82
 6262 1061 0100     		.2byte	0x1
 6263 1063 50       		.byte	0x50
 6264 1064 00000000 		.4byte	0
 6265 1068 00000000 		.4byte	0
 6266              	.LLST95:
 6267 106c 38000000 		.4byte	.LVL222
 6268 1070 3C000000 		.4byte	.LVL223
 6269 1074 0100     		.2byte	0x1
 6270 1076 56       		.byte	0x56
 6271 1077 00000000 		.4byte	0
 6272 107b 00000000 		.4byte	0
 6273              	.LLST96:
 6274 107f 00000000 		.4byte	.LVL224
 6275 1083 20000000 		.4byte	.LVL226
 6276 1087 0100     		.2byte	0x1
 6277 1089 50       		.byte	0x50
 6278 108a 20000000 		.4byte	.LVL226
 6279 108e 36000000 		.4byte	.LVL230
 6280 1092 0100     		.2byte	0x1
 6281 1094 54       		.byte	0x54
 6282 1095 36000000 		.4byte	.LVL230
 6283 1099 38000000 		.4byte	.LVL231
 6284 109d 0100     		.2byte	0x1
 6285 109f 50       		.byte	0x50
 6286 10a0 38000000 		.4byte	.LVL231
 6287 10a4 40000000 		.4byte	.LFE83
 6288 10a8 0400     		.2byte	0x4
 6289 10aa F3       		.byte	0xf3
 6290 10ab 01       		.uleb128 0x1
 6291 10ac 50       		.byte	0x50
 6292 10ad 9F       		.byte	0x9f
 6293 10ae 00000000 		.4byte	0
ARM GAS  C:\Users\df16\AppData\Local\Temp\ccjld08w.s 			page 142


 6294 10b2 00000000 		.4byte	0
 6295              	.LLST97:
 6296 10b6 00000000 		.4byte	.LVL224
 6297 10ba 2C000000 		.4byte	.LVL227
 6298 10be 0100     		.2byte	0x1
 6299 10c0 51       		.byte	0x51
 6300 10c1 2C000000 		.4byte	.LVL227
 6301 10c5 2F000000 		.4byte	.LVL228-1
 6302 10c9 0200     		.2byte	0x2
 6303 10cb 91       		.byte	0x91
 6304 10cc 6C       		.sleb128 -20
 6305 10cd 2F000000 		.4byte	.LVL228-1
 6306 10d1 36000000 		.4byte	.LVL230
 6307 10d5 0400     		.2byte	0x4
 6308 10d7 F3       		.byte	0xf3
 6309 10d8 01       		.uleb128 0x1
 6310 10d9 51       		.byte	0x51
 6311 10da 9F       		.byte	0x9f
 6312 10db 36000000 		.4byte	.LVL230
 6313 10df 38000000 		.4byte	.LVL231
 6314 10e3 0100     		.2byte	0x1
 6315 10e5 51       		.byte	0x51
 6316 10e6 38000000 		.4byte	.LVL231
 6317 10ea 40000000 		.4byte	.LFE83
 6318 10ee 0400     		.2byte	0x4
 6319 10f0 F3       		.byte	0xf3
 6320 10f1 01       		.uleb128 0x1
 6321 10f2 51       		.byte	0x51
 6322 10f3 9F       		.byte	0x9f
 6323 10f4 00000000 		.4byte	0
 6324 10f8 00000000 		.4byte	0
 6325              	.LLST98:
 6326 10fc 04000000 		.4byte	.LVL225
 6327 1100 20000000 		.4byte	.LVL226
 6328 1104 0100     		.2byte	0x1
 6329 1106 50       		.byte	0x50
 6330 1107 20000000 		.4byte	.LVL226
 6331 110b 36000000 		.4byte	.LVL230
 6332 110f 0100     		.2byte	0x1
 6333 1111 54       		.byte	0x54
 6334 1112 36000000 		.4byte	.LVL230
 6335 1116 38000000 		.4byte	.LVL231
 6336 111a 0100     		.2byte	0x1
 6337 111c 50       		.byte	0x50
 6338 111d 38000000 		.4byte	.LVL231
 6339 1121 40000000 		.4byte	.LFE83
 6340 1125 0400     		.2byte	0x4
 6341 1127 F3       		.byte	0xf3
 6342 1128 01       		.uleb128 0x1
 6343 1129 50       		.byte	0x50
 6344 112a 9F       		.byte	0x9f
 6345 112b 00000000 		.4byte	0
 6346 112f 00000000 		.4byte	0
 6347              	.LLST99:
 6348 1133 32000000 		.4byte	.LVL229
 6349 1137 36000000 		.4byte	.LVL230
 6350 113b 0200     		.2byte	0x2
ARM GAS  C:\Users\df16\AppData\Local\Temp\ccjld08w.s 			page 143


 6351 113d 31       		.byte	0x31
 6352 113e 9F       		.byte	0x9f
 6353 113f 38000000 		.4byte	.LVL231
 6354 1143 40000000 		.4byte	.LFE83
 6355 1147 0100     		.2byte	0x1
 6356 1149 50       		.byte	0x50
 6357 114a 00000000 		.4byte	0
 6358 114e 00000000 		.4byte	0
 6359              	.LLST100:
 6360 1152 38000000 		.4byte	.LVL231
 6361 1156 3C000000 		.4byte	.LVL232
 6362 115a 0100     		.2byte	0x1
 6363 115c 56       		.byte	0x56
 6364 115d 00000000 		.4byte	0
 6365 1161 00000000 		.4byte	0
 6366              		.section	.debug_aranges,"",%progbits
 6367 0000 BC000000 		.4byte	0xbc
 6368 0004 0200     		.2byte	0x2
 6369 0006 00000000 		.4byte	.Ldebug_info0
 6370 000a 04       		.byte	0x4
 6371 000b 00       		.byte	0
 6372 000c 0000     		.2byte	0
 6373 000e 0000     		.2byte	0
 6374 0010 00000000 		.4byte	.LFB86
 6375 0014 12000000 		.4byte	.LFE86-.LFB86
 6376 0018 00000000 		.4byte	.LFB87
 6377 001c 20000000 		.4byte	.LFE87-.LFB87
 6378 0020 00000000 		.4byte	.LFB84
 6379 0024 42000000 		.4byte	.LFE84-.LFB84
 6380 0028 00000000 		.4byte	.LFB75
 6381 002c 52000000 		.4byte	.LFE75-.LFB75
 6382 0030 00000000 		.4byte	.LFB85
 6383 0034 4C000000 		.4byte	.LFE85-.LFB85
 6384 0038 00000000 		.4byte	.LFB79
 6385 003c 42000000 		.4byte	.LFE79-.LFB79
 6386 0040 00000000 		.4byte	.LFB67
 6387 0044 34000000 		.4byte	.LFE67-.LFB67
 6388 0048 00000000 		.4byte	.LFB68
 6389 004c 1A000000 		.4byte	.LFE68-.LFB68
 6390 0050 00000000 		.4byte	.LFB69
 6391 0054 36000000 		.4byte	.LFE69-.LFB69
 6392 0058 00000000 		.4byte	.LFB70
 6393 005c 16000000 		.4byte	.LFE70-.LFB70
 6394 0060 00000000 		.4byte	.LFB71
 6395 0064 14000000 		.4byte	.LFE71-.LFB71
 6396 0068 00000000 		.4byte	.LFB72
 6397 006c 08000000 		.4byte	.LFE72-.LFB72
 6398 0070 00000000 		.4byte	.LFB73
 6399 0074 E4000000 		.4byte	.LFE73-.LFB73
 6400 0078 00000000 		.4byte	.LFB74
 6401 007c 7A000000 		.4byte	.LFE74-.LFB74
 6402 0080 00000000 		.4byte	.LFB76
 6403 0084 A8000000 		.4byte	.LFE76-.LFB76
 6404 0088 00000000 		.4byte	.LFB77
 6405 008c 36000000 		.4byte	.LFE77-.LFB77
 6406 0090 00000000 		.4byte	.LFB78
 6407 0094 76000000 		.4byte	.LFE78-.LFB78
ARM GAS  C:\Users\df16\AppData\Local\Temp\ccjld08w.s 			page 144


 6408 0098 00000000 		.4byte	.LFB80
 6409 009c 10000000 		.4byte	.LFE80-.LFB80
 6410 00a0 00000000 		.4byte	.LFB81
 6411 00a4 20000000 		.4byte	.LFE81-.LFB81
 6412 00a8 00000000 		.4byte	.LFB82
 6413 00ac 40000000 		.4byte	.LFE82-.LFB82
 6414 00b0 00000000 		.4byte	.LFB83
 6415 00b4 40000000 		.4byte	.LFE83-.LFB83
 6416 00b8 00000000 		.4byte	0
 6417 00bc 00000000 		.4byte	0
 6418              		.section	.debug_ranges,"",%progbits
 6419              	.Ldebug_ranges0:
 6420 0000 00000000 		.4byte	.LFB86
 6421 0004 12000000 		.4byte	.LFE86
 6422 0008 00000000 		.4byte	.LFB87
 6423 000c 20000000 		.4byte	.LFE87
 6424 0010 00000000 		.4byte	.LFB84
 6425 0014 42000000 		.4byte	.LFE84
 6426 0018 00000000 		.4byte	.LFB75
 6427 001c 52000000 		.4byte	.LFE75
 6428 0020 00000000 		.4byte	.LFB85
 6429 0024 4C000000 		.4byte	.LFE85
 6430 0028 00000000 		.4byte	.LFB79
 6431 002c 42000000 		.4byte	.LFE79
 6432 0030 00000000 		.4byte	.LFB67
 6433 0034 34000000 		.4byte	.LFE67
 6434 0038 00000000 		.4byte	.LFB68
 6435 003c 1A000000 		.4byte	.LFE68
 6436 0040 00000000 		.4byte	.LFB69
 6437 0044 36000000 		.4byte	.LFE69
 6438 0048 00000000 		.4byte	.LFB70
 6439 004c 16000000 		.4byte	.LFE70
 6440 0050 00000000 		.4byte	.LFB71
 6441 0054 14000000 		.4byte	.LFE71
 6442 0058 00000000 		.4byte	.LFB72
 6443 005c 08000000 		.4byte	.LFE72
 6444 0060 00000000 		.4byte	.LFB73
 6445 0064 E4000000 		.4byte	.LFE73
 6446 0068 00000000 		.4byte	.LFB74
 6447 006c 7A000000 		.4byte	.LFE74
 6448 0070 00000000 		.4byte	.LFB76
 6449 0074 A8000000 		.4byte	.LFE76
 6450 0078 00000000 		.4byte	.LFB77
 6451 007c 36000000 		.4byte	.LFE77
 6452 0080 00000000 		.4byte	.LFB78
 6453 0084 76000000 		.4byte	.LFE78
 6454 0088 00000000 		.4byte	.LFB80
 6455 008c 10000000 		.4byte	.LFE80
 6456 0090 00000000 		.4byte	.LFB81
 6457 0094 20000000 		.4byte	.LFE81
 6458 0098 00000000 		.4byte	.LFB82
 6459 009c 40000000 		.4byte	.LFE82
 6460 00a0 00000000 		.4byte	.LFB83
 6461 00a4 40000000 		.4byte	.LFE83
 6462 00a8 00000000 		.4byte	0
 6463 00ac 00000000 		.4byte	0
 6464              		.section	.debug_line,"",%progbits
ARM GAS  C:\Users\df16\AppData\Local\Temp\ccjld08w.s 			page 145


 6465              	.Ldebug_line0:
 6466 0000 8E050000 		.section	.debug_str,"MS",%progbits,1
 6466      02009202 
 6466      00000201 
 6466      FB0E0D00 
 6466      01010101 
 6467              	.LASF60:
 6468 0000 7853686F 		.ascii	"xShouldWrite\000"
 6468      756C6457 
 6468      72697465 
 6468      00
 6469              	.LASF68:
 6470 000d 78427566 		.ascii	"xBufferLengthBytes\000"
 6470      6665724C 
 6470      656E6774 
 6470      68427974 
 6470      657300
 6471              	.LASF45:
 6472 0020 756C4F72 		.ascii	"ulOriginalBASEPRI\000"
 6472      6967696E 
 6472      616C4241 
 6472      53455052 
 6472      4900
 6473              	.LASF25:
 6474 0032 654E6F41 		.ascii	"eNoAction\000"
 6474      6374696F 
 6474      6E00
 6475              	.LASF77:
 6476 003c 78537472 		.ascii	"xStreamBufferGenericCreate\000"
 6476      65616D42 
 6476      75666665 
 6476      7247656E 
 6476      65726963 
 6477              	.LASF46:
 6478 0057 756C4E65 		.ascii	"ulNewBASEPRI\000"
 6478      77424153 
 6478      45505249 
 6478      00
 6479              	.LASF105:
 6480 0064 78546173 		.ascii	"xTaskGenericNotifyStateClear\000"
 6480      6B47656E 
 6480      65726963 
 6480      4E6F7469 
 6480      66795374 
 6481              	.LASF107:
 6482 0081 78546173 		.ascii	"xTaskGenericNotifyWait\000"
 6482      6B47656E 
 6482      65726963 
 6482      4E6F7469 
 6482      66795761 
 6483              	.LASF121:
 6484 0098 76537472 		.ascii	"vStreamBufferDelete\000"
 6484      65616D42 
 6484      75666665 
 6484      7244656C 
 6484      65746500 
 6485              	.LASF34:
ARM GAS  C:\Users\df16\AppData\Local\Temp\ccjld08w.s 			page 146


 6486 00ac 7854494D 		.ascii	"xTIME_OUT\000"
 6486      455F4F55 
 6486      5400
 6487              	.LASF90:
 6488 00b6 78537472 		.ascii	"xStreamBufferReceive\000"
 6488      65616D42 
 6488      75666665 
 6488      72526563 
 6488      65697665 
 6489              	.LASF35:
 6490 00cb 53747265 		.ascii	"StreamBufferDef_t\000"
 6490      616D4275 
 6490      66666572 
 6490      4465665F 
 6490      7400
 6491              	.LASF32:
 6492 00dd 54696D65 		.ascii	"TimeOut_t\000"
 6492      4F75745F 
 6492      7400
 6493              	.LASF2:
 6494 00e7 73686F72 		.ascii	"short int\000"
 6494      7420696E 
 6494      7400
 6495              	.LASF15:
 6496 00f1 73697A65 		.ascii	"size_t\000"
 6496      5F7400
 6497              	.LASF120:
 6498 00f8 70727649 		.ascii	"prvInitialiseNewStreamBuffer\000"
 6498      6E697469 
 6498      616C6973 
 6498      654E6577 
 6498      53747265 
 6499              	.LASF17:
 6500 0115 73697A65 		.ascii	"sizetype\000"
 6500      74797065 
 6500      00
 6501              	.LASF86:
 6502 011e 78497346 		.ascii	"xIsFeasible\000"
 6502      65617369 
 6502      626C6500 
 6503              	.LASF24:
 6504 012a 5461736B 		.ascii	"TaskHandle_t\000"
 6504      48616E64 
 6504      6C655F74 
 6504      00
 6505              	.LASF97:
 6506 0137 78537472 		.ascii	"xStreamBufferReceiveCompletedFromISR\000"
 6506      65616D42 
 6506      75666665 
 6506      72526563 
 6506      65697665 
 6507              	.LASF64:
 6508 015c 78427974 		.ascii	"xBytesAvailable\000"
 6508      65734176 
 6508      61696C61 
 6508      626C6500 
 6509              	.LASF72:
ARM GAS  C:\Users\df16\AppData\Local\Temp\ccjld08w.s 			page 147


 6510 016c 784E6578 		.ascii	"xNextMessageLength\000"
 6510      744D6573 
 6510      73616765 
 6510      4C656E67 
 6510      746800
 6511              	.LASF53:
 6512 017f 784E6578 		.ascii	"xNextHead\000"
 6512      74486561 
 6512      6400
 6513              	.LASF7:
 6514 0189 5F5F7569 		.ascii	"__uint32_t\000"
 6514      6E743332 
 6514      5F7400
 6515              	.LASF57:
 6516 0194 78446174 		.ascii	"xDataLengthBytes\000"
 6516      614C656E 
 6516      67746842 
 6516      79746573 
 6516      00
 6517              	.LASF42:
 6518 01a5 70756342 		.ascii	"pucBuffer\000"
 6518      75666665 
 6518      7200
 6519              	.LASF112:
 6520 01af 78546173 		.ascii	"xTaskGenericNotifyFromISR\000"
 6520      6B47656E 
 6520      65726963 
 6520      4E6F7469 
 6520      66794672 
 6521              	.LASF52:
 6522 01c9 78436F75 		.ascii	"xCount\000"
 6522      6E7400
 6523              	.LASF54:
 6524 01d0 78466972 		.ascii	"xFirstLength\000"
 6524      73744C65 
 6524      6E677468 
 6524      00
 6525              	.LASF85:
 6526 01dd 7854696D 		.ascii	"xTimeOut\000"
 6526      654F7574 
 6526      00
 6527              	.LASF104:
 6528 01e6 76546173 		.ascii	"vTaskSetTimeOutState\000"
 6528      6B536574 
 6528      54696D65 
 6528      4F757453 
 6528      74617465 
 6529              	.LASF99:
 6530 01fb 6D656D63 		.ascii	"memcpy\000"
 6530      707900
 6531              	.LASF110:
 6532 0202 78546173 		.ascii	"xTaskGenericNotify\000"
 6532      6B47656E 
 6532      65726963 
 6532      4E6F7469 
 6532      667900
 6533              	.LASF71:
ARM GAS  C:\Users\df16\AppData\Local\Temp\ccjld08w.s 			page 148


 6534 0215 78526563 		.ascii	"xReceivedLength\000"
 6534      65697665 
 6534      644C656E 
 6534      67746800 
 6535              	.LASF63:
 6536 0225 784D6178 		.ascii	"xMaxCount\000"
 6536      436F756E 
 6536      7400
 6537              	.LASF117:
 6538 022f 756C506F 		.ascii	"ulPortRaiseBASEPRI\000"
 6538      72745261 
 6538      69736542 
 6538      41534550 
 6538      524900
 6539              	.LASF26:
 6540 0242 65536574 		.ascii	"eSetBits\000"
 6540      42697473 
 6540      00
 6541              	.LASF76:
 6542 024b 78537472 		.ascii	"xStreamBuffer\000"
 6542      65616D42 
 6542      75666665 
 6542      7200
 6543              	.LASF19:
 6544 0259 666C6F61 		.ascii	"float\000"
 6544      7400
 6545              	.LASF84:
 6546 025f 78546963 		.ascii	"xTicksToWait\000"
 6546      6B73546F 
 6546      57616974 
 6546      00
 6547              	.LASF9:
 6548 026c 6C6F6E67 		.ascii	"long long int\000"
 6548      206C6F6E 
 6548      6720696E 
 6548      7400
 6549              	.LASF59:
 6550 027a 78526571 		.ascii	"xRequiredSpace\000"
 6550      75697265 
 6550      64537061 
 6550      636500
 6551              	.LASF93:
 6552 0289 78537472 		.ascii	"xStreamBufferReceiveFromISR\000"
 6552      65616D42 
 6552      75666665 
 6552      72526563 
 6552      65697665 
 6553              	.LASF98:
 6554 02a5 6D656D73 		.ascii	"memset\000"
 6554      657400
 6555              	.LASF95:
 6556 02ac 78537472 		.ascii	"xStreamBufferIsFull\000"
 6556      65616D42 
 6556      75666665 
 6556      72497346 
 6556      756C6C00 
 6557              	.LASF6:
ARM GAS  C:\Users\df16\AppData\Local\Temp\ccjld08w.s 			page 149


 6558 02c0 6C6F6E67 		.ascii	"long int\000"
 6558      20696E74 
 6558      00
 6559              	.LASF80:
 6560 02c9 78547269 		.ascii	"xTriggerLevel\000"
 6560      67676572 
 6560      4C657665 
 6560      6C00
 6561              	.LASF94:
 6562 02d7 78537472 		.ascii	"xStreamBufferIsEmpty\000"
 6562      65616D42 
 6562      75666665 
 6562      72497345 
 6562      6D707479 
 6563              	.LASF116:
 6564 02ec 74736B54 		.ascii	"tskTaskControlBlock\000"
 6564      61736B43 
 6564      6F6E7472 
 6564      6F6C426C 
 6564      6F636B00 
 6565              	.LASF92:
 6566 0300 7854656D 		.ascii	"xTempReturn\000"
 6566      70526574 
 6566      75726E00 
 6567              	.LASF61:
 6568 030c 78526574 		.ascii	"xReturn\000"
 6568      75726E00 
 6569              	.LASF108:
 6570 0314 78546173 		.ascii	"xTaskCheckForTimeOut\000"
 6570      6B436865 
 6570      636B466F 
 6570      7254696D 
 6570      654F7574 
 6571              	.LASF75:
 6572 0329 70756341 		.ascii	"pucAllocatedMemory\000"
 6572      6C6C6F63 
 6572      61746564 
 6572      4D656D6F 
 6572      727900
 6573              	.LASF47:
 6574 033c 70785374 		.ascii	"pxStreamBuffer\000"
 6574      7265616D 
 6574      42756666 
 6574      657200
 6575              	.LASF55:
 6576 034b 70727657 		.ascii	"prvWriteMessageToBuffer\000"
 6576      72697465 
 6576      4D657373 
 6576      61676554 
 6576      6F427566 
 6577              	.LASF114:
 6578 0363 47656E65 		.ascii	"Generated_Source\\PSoC5\\RTOS_stream_buffer.c\000"
 6578      72617465 
 6578      645F536F 
 6578      75726365 
 6578      5C50536F 
 6579              	.LASF16:
ARM GAS  C:\Users\df16\AppData\Local\Temp\ccjld08w.s 			page 150


 6580 038f 6C6F6E67 		.ascii	"long double\000"
 6580      20646F75 
 6580      626C6500 
 6581              	.LASF115:
 6582 039b 473A5C70 		.ascii	"G:\\project\\PsocWagen\\PSoC\\PSoCWagen\\PsocWagen."
 6582      726F6A65 
 6582      63745C50 
 6582      736F6357 
 6582      6167656E 
 6583 03c9 63796473 		.ascii	"cydsn\000"
 6583      6E00
 6584              	.LASF38:
 6585 03cf 784C656E 		.ascii	"xLength\000"
 6585      67746800 
 6586              	.LASF1:
 6587 03d7 756E7369 		.ascii	"unsigned char\000"
 6587      676E6564 
 6587      20636861 
 6587      7200
 6588              	.LASF31:
 6589 03e5 7854696D 		.ascii	"xTimeOnEntering\000"
 6589      654F6E45 
 6589      6E746572 
 6589      696E6700 
 6590              	.LASF48:
 6591 03f5 78427566 		.ascii	"xBufferSizeBytes\000"
 6591      66657253 
 6591      697A6542 
 6591      79746573 
 6591      00
 6592              	.LASF30:
 6593 0406 784F7665 		.ascii	"xOverflowCount\000"
 6593      72666C6F 
 6593      77436F75 
 6593      6E7400
 6594              	.LASF79:
 6595 0415 78537472 		.ascii	"xStreamBufferSetTriggerLevel\000"
 6595      65616D42 
 6595      75666665 
 6595      72536574 
 6595      54726967 
 6596              	.LASF40:
 6597 0432 78546173 		.ascii	"xTaskWaitingToReceive\000"
 6597      6B576169 
 6597      74696E67 
 6597      546F5265 
 6597      63656976 
 6598              	.LASF0:
 6599 0448 7369676E 		.ascii	"signed char\000"
 6599      65642063 
 6599      68617200 
 6600              	.LASF81:
 6601 0454 78537472 		.ascii	"xStreamBufferSpacesAvailable\000"
 6601      65616D42 
 6601      75666665 
 6601      72537061 
 6601      63657341 
ARM GAS  C:\Users\df16\AppData\Local\Temp\ccjld08w.s 			page 151


 6602              	.LASF10:
 6603 0471 6C6F6E67 		.ascii	"long long unsigned int\000"
 6603      206C6F6E 
 6603      6720756E 
 6603      7369676E 
 6603      65642069 
 6604              	.LASF66:
 6605 0488 70727652 		.ascii	"prvReadMessageFromBuffer\000"
 6605      6561644D 
 6605      65737361 
 6605      67654672 
 6605      6F6D4275 
 6606              	.LASF14:
 6607 04a1 75696E74 		.ascii	"uint32_t\000"
 6607      33325F74 
 6607      00
 6608              	.LASF87:
 6609 04aa 78537472 		.ascii	"xStreamBufferSendFromISR\000"
 6609      65616D42 
 6609      75666665 
 6609      7253656E 
 6609      6446726F 
 6610              	.LASF11:
 6611 04c3 756E7369 		.ascii	"unsigned int\000"
 6611      676E6564 
 6611      20696E74 
 6611      00
 6612              	.LASF21:
 6613 04d0 42617365 		.ascii	"BaseType_t\000"
 6613      54797065 
 6613      5F7400
 6614              	.LASF43:
 6615 04db 7563466C 		.ascii	"ucFlags\000"
 6615      61677300 
 6616              	.LASF83:
 6617 04e3 78537472 		.ascii	"xStreamBufferSend\000"
 6617      65616D42 
 6617      75666665 
 6617      7253656E 
 6617      6400
 6618              	.LASF23:
 6619 04f5 5469636B 		.ascii	"TickType_t\000"
 6619      54797065 
 6619      5F7400
 6620              	.LASF111:
 6621 0500 78546173 		.ascii	"xTaskResumeAll\000"
 6621      6B526573 
 6621      756D6541 
 6621      6C6C00
 6622              	.LASF3:
 6623 050f 73686F72 		.ascii	"short unsigned int\000"
 6623      7420756E 
 6623      7369676E 
 6623      65642069 
 6623      6E7400
 6624              	.LASF102:
 6625 0522 76506F72 		.ascii	"vPortEnterCritical\000"
ARM GAS  C:\Users\df16\AppData\Local\Temp\ccjld08w.s 			page 152


 6625      74456E74 
 6625      65724372 
 6625      69746963 
 6625      616C00
 6626              	.LASF119:
 6627 0535 756C4E65 		.ascii	"ulNewMaskValue\000"
 6627      774D6173 
 6627      6B56616C 
 6627      756500
 6628              	.LASF118:
 6629 0544 76506F72 		.ascii	"vPortSetBASEPRI\000"
 6629      74536574 
 6629      42415345 
 6629      50524900 
 6630              	.LASF18:
 6631 0554 63686172 		.ascii	"char\000"
 6631      00
 6632              	.LASF28:
 6633 0559 65536574 		.ascii	"eSetValueWithOverwrite\000"
 6633      56616C75 
 6633      65576974 
 6633      684F7665 
 6633      72777269 
 6634              	.LASF13:
 6635 0570 696E7433 		.ascii	"int32_t\000"
 6635      325F7400 
 6636              	.LASF74:
 6637 0578 7849734D 		.ascii	"xIsMessageBuffer\000"
 6637      65737361 
 6637      67654275 
 6637      66666572 
 6637      00
 6638              	.LASF73:
 6639 0589 7854656D 		.ascii	"xTempNextMessageLength\000"
 6639      704E6578 
 6639      744D6573 
 6639      73616765 
 6639      4C656E67 
 6640              	.LASF103:
 6641 05a0 76506F72 		.ascii	"vPortExitCritical\000"
 6641      74457869 
 6641      74437269 
 6641      74696361 
 6641      6C00
 6642              	.LASF49:
 6643 05b2 70727642 		.ascii	"prvBytesInBuffer\000"
 6643      79746573 
 6643      496E4275 
 6643      66666572 
 6643      00
 6644              	.LASF39:
 6645 05c3 78547269 		.ascii	"xTriggerLevelBytes\000"
 6645      67676572 
 6645      4C657665 
 6645      6C427974 
 6645      657300
 6646              	.LASF58:
ARM GAS  C:\Users\df16\AppData\Local\Temp\ccjld08w.s 			page 153


 6647 05d6 78537061 		.ascii	"xSpace\000"
 6647      636500
 6648              	.LASF78:
 6649 05dd 78537472 		.ascii	"xStreamBufferReset\000"
 6649      65616D42 
 6649      75666665 
 6649      72526573 
 6649      657400
 6650              	.LASF8:
 6651 05f0 6C6F6E67 		.ascii	"long unsigned int\000"
 6651      20756E73 
 6651      69676E65 
 6651      6420696E 
 6651      7400
 6652              	.LASF69:
 6653 0602 78427974 		.ascii	"xBytesToStoreMessageLength\000"
 6653      6573546F 
 6653      53746F72 
 6653      654D6573 
 6653      73616765 
 6654              	.LASF22:
 6655 061d 55426173 		.ascii	"UBaseType_t\000"
 6655      65547970 
 6655      655F7400 
 6656              	.LASF50:
 6657 0629 70727657 		.ascii	"prvWriteBytesToBuffer\000"
 6657      72697465 
 6657      42797465 
 6657      73546F42 
 6657      75666665 
 6658              	.LASF36:
 6659 063f 78546169 		.ascii	"xTail\000"
 6659      6C00
 6660              	.LASF96:
 6661 0645 78537472 		.ascii	"xStreamBufferSendCompletedFromISR\000"
 6661      65616D42 
 6661      75666665 
 6661      7253656E 
 6661      64436F6D 
 6662              	.LASF91:
 6663 0667 78537472 		.ascii	"xStreamBufferNextMessageLengthBytes\000"
 6663      65616D42 
 6663      75666665 
 6663      724E6578 
 6663      744D6573 
 6664              	.LASF101:
 6665 068b 76506F72 		.ascii	"vPortFree\000"
 6665      74467265 
 6665      6500
 6666              	.LASF29:
 6667 0695 65536574 		.ascii	"eSetValueWithoutOverwrite\000"
 6667      56616C75 
 6667      65576974 
 6667      686F7574 
 6667      4F766572 
 6668              	.LASF5:
 6669 06af 5F5F696E 		.ascii	"__int32_t\000"
ARM GAS  C:\Users\df16\AppData\Local\Temp\ccjld08w.s 			page 154


 6669      7433325F 
 6669      7400
 6670              	.LASF41:
 6671 06b9 78546173 		.ascii	"xTaskWaitingToSend\000"
 6671      6B576169 
 6671      74696E67 
 6671      546F5365 
 6671      6E6400
 6672              	.LASF33:
 6673 06cc 53747265 		.ascii	"StreamBufferHandle_t\000"
 6673      616D4275 
 6673      66666572 
 6673      48616E64 
 6673      6C655F74 
 6674              	.LASF12:
 6675 06e1 75696E74 		.ascii	"uint8_t\000"
 6675      385F7400 
 6676              	.LASF89:
 6677 06e9 75785361 		.ascii	"uxSavedInterruptStatus\000"
 6677      76656449 
 6677      6E746572 
 6677      72757074 
 6677      53746174 
 6678              	.LASF67:
 6679 0700 70765278 		.ascii	"pvRxData\000"
 6679      44617461 
 6679      00
 6680              	.LASF88:
 6681 0709 70784869 		.ascii	"pxHigherPriorityTaskWoken\000"
 6681      67686572 
 6681      5072696F 
 6681      72697479 
 6681      5461736B 
 6682              	.LASF65:
 6683 0723 784E6578 		.ascii	"xNextTail\000"
 6683      74546169 
 6683      6C00
 6684              	.LASF37:
 6685 072d 78486561 		.ascii	"xHead\000"
 6685      6400
 6686              	.LASF20:
 6687 0733 646F7562 		.ascii	"double\000"
 6687      6C6500
 6688              	.LASF62:
 6689 073a 70727652 		.ascii	"prvReadBytesFromBuffer\000"
 6689      65616442 
 6689      79746573 
 6689      46726F6D 
 6689      42756666 
 6690              	.LASF70:
 6691 0751 784F7269 		.ascii	"xOriginalTail\000"
 6691      67696E61 
 6691      6C546169 
 6691      6C00
 6692              	.LASF122:
 6693 075f 49544D5F 		.ascii	"ITM_RxBuffer\000"
 6693      52784275 
ARM GAS  C:\Users\df16\AppData\Local\Temp\ccjld08w.s 			page 155


 6693      66666572 
 6693      00
 6694              	.LASF113:
 6695 076c 474E5520 		.ascii	"GNU C11 5.4.1 20160609 (release) [ARM/embedded-5-br"
 6695      43313120 
 6695      352E342E 
 6695      31203230 
 6695      31363036 
 6696 079f 616E6368 		.ascii	"anch revision 237715] -mcpu=cortex-m3 -mthumb -g -O"
 6696      20726576 
 6696      6973696F 
 6696      6E203233 
 6696      37373135 
 6697 07d2 67202D66 		.ascii	"g -ffunction-sections -ffat-lto-objects\000"
 6697      66756E63 
 6697      74696F6E 
 6697      2D736563 
 6697      74696F6E 
 6698              	.LASF106:
 6699 07fa 78546173 		.ascii	"xTaskGetCurrentTaskHandle\000"
 6699      6B476574 
 6699      43757272 
 6699      656E7454 
 6699      61736B48 
 6700              	.LASF51:
 6701 0814 70756344 		.ascii	"pucData\000"
 6701      61746100 
 6702              	.LASF82:
 6703 081c 78537472 		.ascii	"xStreamBufferBytesAvailable\000"
 6703      65616D42 
 6703      75666665 
 6703      72427974 
 6703      65734176 
 6704              	.LASF56:
 6705 0838 70765478 		.ascii	"pvTxData\000"
 6705      44617461 
 6705      00
 6706              	.LASF100:
 6707 0841 7076506F 		.ascii	"pvPortMalloc\000"
 6707      72744D61 
 6707      6C6C6F63 
 6707      00
 6708              	.LASF109:
 6709 084e 76546173 		.ascii	"vTaskSuspendAll\000"
 6709      6B537573 
 6709      70656E64 
 6709      416C6C00 
 6710              	.LASF27:
 6711 085e 65496E63 		.ascii	"eIncrement\000"
 6711      72656D65 
 6711      6E7400
 6712              	.LASF4:
 6713 0869 5F5F7569 		.ascii	"__uint8_t\000"
 6713      6E74385F 
 6713      7400
 6714              	.LASF44:
 6715 0873 53747265 		.ascii	"StreamBuffer_t\000"
ARM GAS  C:\Users\df16\AppData\Local\Temp\ccjld08w.s 			page 156


 6715      616D4275 
 6715      66666572 
 6715      5F7400
 6716              		.ident	"GCC: (GNU Tools for ARM Embedded Processors) 5.4.1 20160609 (release) [ARM/embedded-5-bran
