ARM GAS  C:\Users\df16\AppData\Local\Temp\ccw3wFqT.s 			page 1


   1              		.syntax unified
   2              		.cpu cortex-m3
   3              		.fpu softvfp
   4              		.eabi_attribute 20, 1
   5              		.eabi_attribute 21, 1
   6              		.eabi_attribute 23, 3
   7              		.eabi_attribute 24, 1
   8              		.eabi_attribute 25, 1
   9              		.eabi_attribute 26, 1
  10              		.eabi_attribute 30, 1
  11              		.eabi_attribute 34, 1
  12              		.eabi_attribute 18, 4
  13              		.thumb
  14              		.syntax unified
  15              		.file	"RTOS_list.c"
  16              		.text
  17              	.Ltext0:
  18              		.cfi_sections	.debug_frame
  19              		.section	.text.vListInitialise,"ax",%progbits
  20              		.align	2
  21              		.global	vListInitialise
  22              		.thumb
  23              		.thumb_func
  24              		.type	vListInitialise, %function
  25              	vListInitialise:
  26              	.LFB67:
  27              		.file 1 "Generated_Source\\PSoC5\\RTOS_list.c"
   1:Generated_Source\PSoC5/RTOS_list.c **** /*
   2:Generated_Source\PSoC5/RTOS_list.c ****  * FreeRTOS Kernel V10.4.0
   3:Generated_Source\PSoC5/RTOS_list.c ****  * Copyright (C) 2020 Amazon.com, Inc. or its affiliates.  All Rights Reserved.
   4:Generated_Source\PSoC5/RTOS_list.c ****  *
   5:Generated_Source\PSoC5/RTOS_list.c ****  * Permission is hereby granted, free of charge, to any person obtaining a copy of
   6:Generated_Source\PSoC5/RTOS_list.c ****  * this software and associated documentation files (the "Software"), to deal in
   7:Generated_Source\PSoC5/RTOS_list.c ****  * the Software without restriction, including without limitation the rights to
   8:Generated_Source\PSoC5/RTOS_list.c ****  * use, copy, modify, merge, publish, distribute, sublicense, and/or sell copies of
   9:Generated_Source\PSoC5/RTOS_list.c ****  * the Software, and to permit persons to whom the Software is furnished to do so,
  10:Generated_Source\PSoC5/RTOS_list.c ****  * subject to the following conditions:
  11:Generated_Source\PSoC5/RTOS_list.c ****  *
  12:Generated_Source\PSoC5/RTOS_list.c ****  * The above copyright notice and this permission notice shall be included in all
  13:Generated_Source\PSoC5/RTOS_list.c ****  * copies or substantial portions of the Software.
  14:Generated_Source\PSoC5/RTOS_list.c ****  *
  15:Generated_Source\PSoC5/RTOS_list.c ****  * THE SOFTWARE IS PROVIDED "AS IS", WITHOUT WARRANTY OF ANY KIND, EXPRESS OR
  16:Generated_Source\PSoC5/RTOS_list.c ****  * IMPLIED, INCLUDING BUT NOT LIMITED TO THE WARRANTIES OF MERCHANTABILITY, FITNESS
  17:Generated_Source\PSoC5/RTOS_list.c ****  * FOR A PARTICULAR PURPOSE AND NONINFRINGEMENT. IN NO EVENT SHALL THE AUTHORS OR
  18:Generated_Source\PSoC5/RTOS_list.c ****  * COPYRIGHT HOLDERS BE LIABLE FOR ANY CLAIM, DAMAGES OR OTHER LIABILITY, WHETHER
  19:Generated_Source\PSoC5/RTOS_list.c ****  * IN AN ACTION OF CONTRACT, TORT OR OTHERWISE, ARISING FROM, OUT OF OR IN
  20:Generated_Source\PSoC5/RTOS_list.c ****  * CONNECTION WITH THE SOFTWARE OR THE USE OR OTHER DEALINGS IN THE SOFTWARE.
  21:Generated_Source\PSoC5/RTOS_list.c ****  *
  22:Generated_Source\PSoC5/RTOS_list.c ****  * https://www.FreeRTOS.org
  23:Generated_Source\PSoC5/RTOS_list.c ****  * https://github.com/FreeRTOS
  24:Generated_Source\PSoC5/RTOS_list.c ****  *
  25:Generated_Source\PSoC5/RTOS_list.c ****  */
  26:Generated_Source\PSoC5/RTOS_list.c **** 
  27:Generated_Source\PSoC5/RTOS_list.c **** 
  28:Generated_Source\PSoC5/RTOS_list.c **** #include <stdlib.h>
  29:Generated_Source\PSoC5/RTOS_list.c **** 
  30:Generated_Source\PSoC5/RTOS_list.c **** /* Defining MPU_WRAPPERS_INCLUDED_FROM_API_FILE prevents task.h from redefining
ARM GAS  C:\Users\df16\AppData\Local\Temp\ccw3wFqT.s 			page 2


  31:Generated_Source\PSoC5/RTOS_list.c ****  * all the API functions to use the MPU wrappers.  That should only be done when
  32:Generated_Source\PSoC5/RTOS_list.c ****  * task.h is included from an application file. */
  33:Generated_Source\PSoC5/RTOS_list.c **** #define MPU_WRAPPERS_INCLUDED_FROM_API_FILE
  34:Generated_Source\PSoC5/RTOS_list.c **** 
  35:Generated_Source\PSoC5/RTOS_list.c **** #include "RTOS_FreeRTOS.h"
  36:Generated_Source\PSoC5/RTOS_list.c **** #include "list.h"
  37:Generated_Source\PSoC5/RTOS_list.c **** 
  38:Generated_Source\PSoC5/RTOS_list.c **** /* Lint e9021, e961 and e750 are suppressed as a MISRA exception justified
  39:Generated_Source\PSoC5/RTOS_list.c ****  * because the MPU ports require MPU_WRAPPERS_INCLUDED_FROM_API_FILE to be
  40:Generated_Source\PSoC5/RTOS_list.c ****  * defined for the header files above, but not in this file, in order to
  41:Generated_Source\PSoC5/RTOS_list.c ****  * generate the correct privileged Vs unprivileged linkage and placement. */
  42:Generated_Source\PSoC5/RTOS_list.c **** #undef MPU_WRAPPERS_INCLUDED_FROM_API_FILE /*lint !e961 !e750 !e9021. */
  43:Generated_Source\PSoC5/RTOS_list.c **** 
  44:Generated_Source\PSoC5/RTOS_list.c **** /*-----------------------------------------------------------
  45:Generated_Source\PSoC5/RTOS_list.c **** * PUBLIC LIST API documented in list.h
  46:Generated_Source\PSoC5/RTOS_list.c **** *----------------------------------------------------------*/
  47:Generated_Source\PSoC5/RTOS_list.c **** 
  48:Generated_Source\PSoC5/RTOS_list.c **** void vListInitialise( List_t * const pxList )
  49:Generated_Source\PSoC5/RTOS_list.c **** {
  28              		.loc 1 49 0
  29              		.cfi_startproc
  30              		@ args = 0, pretend = 0, frame = 0
  31              		@ frame_needed = 0, uses_anonymous_args = 0
  32              		@ link register save eliminated.
  33              	.LVL0:
  50:Generated_Source\PSoC5/RTOS_list.c ****     /* The list structure contains a list item which is used to mark the
  51:Generated_Source\PSoC5/RTOS_list.c ****      * end of the list.  To initialise the list the list end is inserted
  52:Generated_Source\PSoC5/RTOS_list.c ****      * as the only list entry. */
  53:Generated_Source\PSoC5/RTOS_list.c ****     pxList->pxIndex = ( ListItem_t * ) &( pxList->xListEnd ); /*lint !e826 !e740 !e9087 The mini li
  34              		.loc 1 53 0
  35 0000 00F10803 		add	r3, r0, #8
  36 0004 4360     		str	r3, [r0, #4]
  54:Generated_Source\PSoC5/RTOS_list.c **** 
  55:Generated_Source\PSoC5/RTOS_list.c ****     /* The list end value is the highest possible value in the list to
  56:Generated_Source\PSoC5/RTOS_list.c ****      * ensure it remains at the end of the list. */
  57:Generated_Source\PSoC5/RTOS_list.c ****     pxList->xListEnd.xItemValue = portMAX_DELAY;
  37              		.loc 1 57 0
  38 0006 4FF0FF32 		mov	r2, #-1
  39 000a 8260     		str	r2, [r0, #8]
  58:Generated_Source\PSoC5/RTOS_list.c **** 
  59:Generated_Source\PSoC5/RTOS_list.c ****     /* The list end next and previous pointers point to itself so we know
  60:Generated_Source\PSoC5/RTOS_list.c ****      * when the list is empty. */
  61:Generated_Source\PSoC5/RTOS_list.c ****     pxList->xListEnd.pxNext = ( ListItem_t * ) &( pxList->xListEnd );     /*lint !e826 !e740 !e9087
  40              		.loc 1 61 0
  41 000c C360     		str	r3, [r0, #12]
  62:Generated_Source\PSoC5/RTOS_list.c ****     pxList->xListEnd.pxPrevious = ( ListItem_t * ) &( pxList->xListEnd ); /*lint !e826 !e740 !e9087
  42              		.loc 1 62 0
  43 000e 0361     		str	r3, [r0, #16]
  63:Generated_Source\PSoC5/RTOS_list.c **** 
  64:Generated_Source\PSoC5/RTOS_list.c ****     pxList->uxNumberOfItems = ( UBaseType_t ) 0U;
  44              		.loc 1 64 0
  45 0010 0023     		movs	r3, #0
  46 0012 0360     		str	r3, [r0]
  47 0014 7047     		bx	lr
  48              		.cfi_endproc
  49              	.LFE67:
  50              		.size	vListInitialise, .-vListInitialise
ARM GAS  C:\Users\df16\AppData\Local\Temp\ccw3wFqT.s 			page 3


  51 0016 00BF     		.section	.text.vListInitialiseItem,"ax",%progbits
  52              		.align	2
  53              		.global	vListInitialiseItem
  54              		.thumb
  55              		.thumb_func
  56              		.type	vListInitialiseItem, %function
  57              	vListInitialiseItem:
  58              	.LFB68:
  65:Generated_Source\PSoC5/RTOS_list.c **** 
  66:Generated_Source\PSoC5/RTOS_list.c ****     /* Write known values into the list if
  67:Generated_Source\PSoC5/RTOS_list.c ****      * configUSE_LIST_DATA_INTEGRITY_CHECK_BYTES is set to 1. */
  68:Generated_Source\PSoC5/RTOS_list.c ****     listSET_LIST_INTEGRITY_CHECK_1_VALUE( pxList );
  69:Generated_Source\PSoC5/RTOS_list.c ****     listSET_LIST_INTEGRITY_CHECK_2_VALUE( pxList );
  70:Generated_Source\PSoC5/RTOS_list.c **** }
  71:Generated_Source\PSoC5/RTOS_list.c **** /*-----------------------------------------------------------*/
  72:Generated_Source\PSoC5/RTOS_list.c **** 
  73:Generated_Source\PSoC5/RTOS_list.c **** void vListInitialiseItem( ListItem_t * const pxItem )
  74:Generated_Source\PSoC5/RTOS_list.c **** {
  59              		.loc 1 74 0
  60              		.cfi_startproc
  61              		@ args = 0, pretend = 0, frame = 0
  62              		@ frame_needed = 0, uses_anonymous_args = 0
  63              		@ link register save eliminated.
  64              	.LVL1:
  75:Generated_Source\PSoC5/RTOS_list.c ****     /* Make sure the list item is not recorded as being on a list. */
  76:Generated_Source\PSoC5/RTOS_list.c ****     pxItem->pxContainer = NULL;
  65              		.loc 1 76 0
  66 0000 0023     		movs	r3, #0
  67 0002 0361     		str	r3, [r0, #16]
  68 0004 7047     		bx	lr
  69              		.cfi_endproc
  70              	.LFE68:
  71              		.size	vListInitialiseItem, .-vListInitialiseItem
  72 0006 00BF     		.section	.text.vListInsertEnd,"ax",%progbits
  73              		.align	2
  74              		.global	vListInsertEnd
  75              		.thumb
  76              		.thumb_func
  77              		.type	vListInsertEnd, %function
  78              	vListInsertEnd:
  79              	.LFB69:
  77:Generated_Source\PSoC5/RTOS_list.c **** 
  78:Generated_Source\PSoC5/RTOS_list.c ****     /* Write known values into the list item if
  79:Generated_Source\PSoC5/RTOS_list.c ****      * configUSE_LIST_DATA_INTEGRITY_CHECK_BYTES is set to 1. */
  80:Generated_Source\PSoC5/RTOS_list.c ****     listSET_FIRST_LIST_ITEM_INTEGRITY_CHECK_VALUE( pxItem );
  81:Generated_Source\PSoC5/RTOS_list.c ****     listSET_SECOND_LIST_ITEM_INTEGRITY_CHECK_VALUE( pxItem );
  82:Generated_Source\PSoC5/RTOS_list.c **** }
  83:Generated_Source\PSoC5/RTOS_list.c **** /*-----------------------------------------------------------*/
  84:Generated_Source\PSoC5/RTOS_list.c **** 
  85:Generated_Source\PSoC5/RTOS_list.c **** void vListInsertEnd( List_t * const pxList,
  86:Generated_Source\PSoC5/RTOS_list.c ****                      ListItem_t * const pxNewListItem )
  87:Generated_Source\PSoC5/RTOS_list.c **** {
  80              		.loc 1 87 0
  81              		.cfi_startproc
  82              		@ args = 0, pretend = 0, frame = 0
  83              		@ frame_needed = 0, uses_anonymous_args = 0
  84              		@ link register save eliminated.
ARM GAS  C:\Users\df16\AppData\Local\Temp\ccw3wFqT.s 			page 4


  85              	.LVL2:
  88:Generated_Source\PSoC5/RTOS_list.c ****     ListItem_t * const pxIndex = pxList->pxIndex;
  86              		.loc 1 88 0
  87 0000 4368     		ldr	r3, [r0, #4]
  88              	.LVL3:
  89:Generated_Source\PSoC5/RTOS_list.c **** 
  90:Generated_Source\PSoC5/RTOS_list.c ****     /* Only effective when configASSERT() is also defined, these tests may catch
  91:Generated_Source\PSoC5/RTOS_list.c ****      * the list data structures being overwritten in memory.  They will not catch
  92:Generated_Source\PSoC5/RTOS_list.c ****      * data errors caused by incorrect configuration or use of FreeRTOS. */
  93:Generated_Source\PSoC5/RTOS_list.c ****     listTEST_LIST_INTEGRITY( pxList );
  94:Generated_Source\PSoC5/RTOS_list.c ****     listTEST_LIST_ITEM_INTEGRITY( pxNewListItem );
  95:Generated_Source\PSoC5/RTOS_list.c **** 
  96:Generated_Source\PSoC5/RTOS_list.c ****     /* Insert a new list item into pxList, but rather than sort the list,
  97:Generated_Source\PSoC5/RTOS_list.c ****      * makes the new list item the last item to be removed by a call to
  98:Generated_Source\PSoC5/RTOS_list.c ****      * listGET_OWNER_OF_NEXT_ENTRY(). */
  99:Generated_Source\PSoC5/RTOS_list.c ****     pxNewListItem->pxNext = pxIndex;
  89              		.loc 1 99 0
  90 0002 4B60     		str	r3, [r1, #4]
 100:Generated_Source\PSoC5/RTOS_list.c ****     pxNewListItem->pxPrevious = pxIndex->pxPrevious;
  91              		.loc 1 100 0
  92 0004 9A68     		ldr	r2, [r3, #8]
  93 0006 8A60     		str	r2, [r1, #8]
 101:Generated_Source\PSoC5/RTOS_list.c **** 
 102:Generated_Source\PSoC5/RTOS_list.c ****     /* Only used during decision coverage testing. */
 103:Generated_Source\PSoC5/RTOS_list.c ****     mtCOVERAGE_TEST_DELAY();
 104:Generated_Source\PSoC5/RTOS_list.c **** 
 105:Generated_Source\PSoC5/RTOS_list.c ****     pxIndex->pxPrevious->pxNext = pxNewListItem;
  94              		.loc 1 105 0
  95 0008 9A68     		ldr	r2, [r3, #8]
  96 000a 5160     		str	r1, [r2, #4]
 106:Generated_Source\PSoC5/RTOS_list.c ****     pxIndex->pxPrevious = pxNewListItem;
  97              		.loc 1 106 0
  98 000c 9960     		str	r1, [r3, #8]
 107:Generated_Source\PSoC5/RTOS_list.c **** 
 108:Generated_Source\PSoC5/RTOS_list.c ****     /* Remember which list the item is in. */
 109:Generated_Source\PSoC5/RTOS_list.c ****     pxNewListItem->pxContainer = pxList;
  99              		.loc 1 109 0
 100 000e 0861     		str	r0, [r1, #16]
 110:Generated_Source\PSoC5/RTOS_list.c **** 
 111:Generated_Source\PSoC5/RTOS_list.c ****     ( pxList->uxNumberOfItems )++;
 101              		.loc 1 111 0
 102 0010 0368     		ldr	r3, [r0]
 103              	.LVL4:
 104 0012 0133     		adds	r3, r3, #1
 105 0014 0360     		str	r3, [r0]
 106 0016 7047     		bx	lr
 107              		.cfi_endproc
 108              	.LFE69:
 109              		.size	vListInsertEnd, .-vListInsertEnd
 110              		.section	.text.vListInsert,"ax",%progbits
 111              		.align	2
 112              		.global	vListInsert
 113              		.thumb
 114              		.thumb_func
 115              		.type	vListInsert, %function
 116              	vListInsert:
 117              	.LFB70:
ARM GAS  C:\Users\df16\AppData\Local\Temp\ccw3wFqT.s 			page 5


 112:Generated_Source\PSoC5/RTOS_list.c **** }
 113:Generated_Source\PSoC5/RTOS_list.c **** /*-----------------------------------------------------------*/
 114:Generated_Source\PSoC5/RTOS_list.c **** 
 115:Generated_Source\PSoC5/RTOS_list.c **** void vListInsert( List_t * const pxList,
 116:Generated_Source\PSoC5/RTOS_list.c ****                   ListItem_t * const pxNewListItem )
 117:Generated_Source\PSoC5/RTOS_list.c **** {
 118              		.loc 1 117 0
 119              		.cfi_startproc
 120              		@ args = 0, pretend = 0, frame = 0
 121              		@ frame_needed = 0, uses_anonymous_args = 0
 122              		@ link register save eliminated.
 123              	.LVL5:
 124 0000 30B4     		push	{r4, r5}
 125              		.cfi_def_cfa_offset 8
 126              		.cfi_offset 4, -8
 127              		.cfi_offset 5, -4
 118:Generated_Source\PSoC5/RTOS_list.c ****     ListItem_t * pxIterator;
 119:Generated_Source\PSoC5/RTOS_list.c ****     const TickType_t xValueOfInsertion = pxNewListItem->xItemValue;
 128              		.loc 1 119 0
 129 0002 0D68     		ldr	r5, [r1]
 130              	.LVL6:
 120:Generated_Source\PSoC5/RTOS_list.c **** 
 121:Generated_Source\PSoC5/RTOS_list.c ****     /* Only effective when configASSERT() is also defined, these tests may catch
 122:Generated_Source\PSoC5/RTOS_list.c ****      * the list data structures being overwritten in memory.  They will not catch
 123:Generated_Source\PSoC5/RTOS_list.c ****      * data errors caused by incorrect configuration or use of FreeRTOS. */
 124:Generated_Source\PSoC5/RTOS_list.c ****     listTEST_LIST_INTEGRITY( pxList );
 125:Generated_Source\PSoC5/RTOS_list.c ****     listTEST_LIST_ITEM_INTEGRITY( pxNewListItem );
 126:Generated_Source\PSoC5/RTOS_list.c **** 
 127:Generated_Source\PSoC5/RTOS_list.c ****     /* Insert the new list item into the list, sorted in xItemValue order.
 128:Generated_Source\PSoC5/RTOS_list.c ****      *
 129:Generated_Source\PSoC5/RTOS_list.c ****      * If the list already contains a list item with the same item value then the
 130:Generated_Source\PSoC5/RTOS_list.c ****      * new list item should be placed after it.  This ensures that TCBs which are
 131:Generated_Source\PSoC5/RTOS_list.c ****      * stored in ready lists (all of which have the same xItemValue value) get a
 132:Generated_Source\PSoC5/RTOS_list.c ****      * share of the CPU.  However, if the xItemValue is the same as the back marker
 133:Generated_Source\PSoC5/RTOS_list.c ****      * the iteration loop below will not end.  Therefore the value is checked
 134:Generated_Source\PSoC5/RTOS_list.c ****      * first, and the algorithm slightly modified if necessary. */
 135:Generated_Source\PSoC5/RTOS_list.c ****     if( xValueOfInsertion == portMAX_DELAY )
 131              		.loc 1 135 0
 132 0004 B5F1FF3F 		cmp	r5, #-1
 133 0008 01D1     		bne	.L5
 136:Generated_Source\PSoC5/RTOS_list.c ****     {
 137:Generated_Source\PSoC5/RTOS_list.c ****         pxIterator = pxList->xListEnd.pxPrevious;
 134              		.loc 1 137 0
 135 000a 0269     		ldr	r2, [r0, #16]
 136              	.LVL7:
 137 000c 07E0     		b	.L6
 138              	.LVL8:
 139              	.L5:
 138:Generated_Source\PSoC5/RTOS_list.c ****     }
 139:Generated_Source\PSoC5/RTOS_list.c ****     else
 140:Generated_Source\PSoC5/RTOS_list.c ****     {
 141:Generated_Source\PSoC5/RTOS_list.c ****         /* *** NOTE ***********************************************************
 142:Generated_Source\PSoC5/RTOS_list.c ****         *  If you find your application is crashing here then likely causes are
 143:Generated_Source\PSoC5/RTOS_list.c ****         *  listed below.  In addition see https://www.FreeRTOS.org/FAQHelp.html for
 144:Generated_Source\PSoC5/RTOS_list.c ****         *  more tips, and ensure configASSERT() is defined!
 145:Generated_Source\PSoC5/RTOS_list.c ****         *  https://www.FreeRTOS.org/a00110.html#configASSERT
 146:Generated_Source\PSoC5/RTOS_list.c ****         *
ARM GAS  C:\Users\df16\AppData\Local\Temp\ccw3wFqT.s 			page 6


 147:Generated_Source\PSoC5/RTOS_list.c ****         *   1) Stack overflow -
 148:Generated_Source\PSoC5/RTOS_list.c ****         *      see https://www.FreeRTOS.org/Stacks-and-stack-overflow-checking.html
 149:Generated_Source\PSoC5/RTOS_list.c ****         *   2) Incorrect interrupt priority assignment, especially on Cortex-M
 150:Generated_Source\PSoC5/RTOS_list.c ****         *      parts where numerically high priority values denote low actual
 151:Generated_Source\PSoC5/RTOS_list.c ****         *      interrupt priorities, which can seem counter intuitive.  See
 152:Generated_Source\PSoC5/RTOS_list.c ****         *      https://www.FreeRTOS.org/RTOS-Cortex-M3-M4.html and the definition
 153:Generated_Source\PSoC5/RTOS_list.c ****         *      of configMAX_SYSCALL_INTERRUPT_PRIORITY on
 154:Generated_Source\PSoC5/RTOS_list.c ****         *      https://www.FreeRTOS.org/a00110.html
 155:Generated_Source\PSoC5/RTOS_list.c ****         *   3) Calling an API function from within a critical section or when
 156:Generated_Source\PSoC5/RTOS_list.c ****         *      the scheduler is suspended, or calling an API function that does
 157:Generated_Source\PSoC5/RTOS_list.c ****         *      not end in "FromISR" from an interrupt.
 158:Generated_Source\PSoC5/RTOS_list.c ****         *   4) Using a queue or semaphore before it has been initialised or
 159:Generated_Source\PSoC5/RTOS_list.c ****         *      before the scheduler has been started (are interrupts firing
 160:Generated_Source\PSoC5/RTOS_list.c ****         *      before vTaskStartScheduler() has been called?).
 161:Generated_Source\PSoC5/RTOS_list.c ****         **********************************************************************/
 162:Generated_Source\PSoC5/RTOS_list.c **** 
 163:Generated_Source\PSoC5/RTOS_list.c ****         for( pxIterator = ( ListItem_t * ) &( pxList->xListEnd ); pxIterator->pxNext->xItemValue <=
 140              		.loc 1 163 0
 141 000e 00F10802 		add	r2, r0, #8
 142              	.LVL9:
 143 0012 00E0     		b	.L7
 144              	.L8:
 145 0014 1A46     		mov	r2, r3
 146              	.LVL10:
 147              	.L7:
 148              		.loc 1 163 0 is_stmt 0 discriminator 1
 149 0016 5368     		ldr	r3, [r2, #4]
 150 0018 1C68     		ldr	r4, [r3]
 151 001a A542     		cmp	r5, r4
 152 001c FAD2     		bcs	.L8
 153              	.L6:
 164:Generated_Source\PSoC5/RTOS_list.c ****         {
 165:Generated_Source\PSoC5/RTOS_list.c ****             /* There is nothing to do here, just iterating to the wanted
 166:Generated_Source\PSoC5/RTOS_list.c ****              * insertion position. */
 167:Generated_Source\PSoC5/RTOS_list.c ****         }
 168:Generated_Source\PSoC5/RTOS_list.c ****     }
 169:Generated_Source\PSoC5/RTOS_list.c **** 
 170:Generated_Source\PSoC5/RTOS_list.c ****     pxNewListItem->pxNext = pxIterator->pxNext;
 154              		.loc 1 170 0 is_stmt 1
 155 001e 5368     		ldr	r3, [r2, #4]
 156 0020 4B60     		str	r3, [r1, #4]
 171:Generated_Source\PSoC5/RTOS_list.c ****     pxNewListItem->pxNext->pxPrevious = pxNewListItem;
 157              		.loc 1 171 0
 158 0022 9960     		str	r1, [r3, #8]
 172:Generated_Source\PSoC5/RTOS_list.c ****     pxNewListItem->pxPrevious = pxIterator;
 159              		.loc 1 172 0
 160 0024 8A60     		str	r2, [r1, #8]
 173:Generated_Source\PSoC5/RTOS_list.c ****     pxIterator->pxNext = pxNewListItem;
 161              		.loc 1 173 0
 162 0026 5160     		str	r1, [r2, #4]
 174:Generated_Source\PSoC5/RTOS_list.c **** 
 175:Generated_Source\PSoC5/RTOS_list.c ****     /* Remember which list the item is in.  This allows fast removal of the
 176:Generated_Source\PSoC5/RTOS_list.c ****      * item later. */
 177:Generated_Source\PSoC5/RTOS_list.c ****     pxNewListItem->pxContainer = pxList;
 163              		.loc 1 177 0
 164 0028 0861     		str	r0, [r1, #16]
 178:Generated_Source\PSoC5/RTOS_list.c **** 
ARM GAS  C:\Users\df16\AppData\Local\Temp\ccw3wFqT.s 			page 7


 179:Generated_Source\PSoC5/RTOS_list.c ****     ( pxList->uxNumberOfItems )++;
 165              		.loc 1 179 0
 166 002a 0368     		ldr	r3, [r0]
 167 002c 0133     		adds	r3, r3, #1
 168 002e 0360     		str	r3, [r0]
 180:Generated_Source\PSoC5/RTOS_list.c **** }
 169              		.loc 1 180 0
 170 0030 30BC     		pop	{r4, r5}
 171              		.cfi_restore 5
 172              		.cfi_restore 4
 173              		.cfi_def_cfa_offset 0
 174              	.LVL11:
 175 0032 7047     		bx	lr
 176              		.cfi_endproc
 177              	.LFE70:
 178              		.size	vListInsert, .-vListInsert
 179              		.section	.text.uxListRemove,"ax",%progbits
 180              		.align	2
 181              		.global	uxListRemove
 182              		.thumb
 183              		.thumb_func
 184              		.type	uxListRemove, %function
 185              	uxListRemove:
 186              	.LFB71:
 181:Generated_Source\PSoC5/RTOS_list.c **** /*-----------------------------------------------------------*/
 182:Generated_Source\PSoC5/RTOS_list.c **** 
 183:Generated_Source\PSoC5/RTOS_list.c **** UBaseType_t uxListRemove( ListItem_t * const pxItemToRemove )
 184:Generated_Source\PSoC5/RTOS_list.c **** {
 187              		.loc 1 184 0
 188              		.cfi_startproc
 189              		@ args = 0, pretend = 0, frame = 0
 190              		@ frame_needed = 0, uses_anonymous_args = 0
 191              		@ link register save eliminated.
 192              	.LVL12:
 185:Generated_Source\PSoC5/RTOS_list.c **** /* The list item knows which list it is in.  Obtain the list from the list
 186:Generated_Source\PSoC5/RTOS_list.c ****  * item. */
 187:Generated_Source\PSoC5/RTOS_list.c ****     List_t * const pxList = pxItemToRemove->pxContainer;
 193              		.loc 1 187 0
 194 0000 0369     		ldr	r3, [r0, #16]
 195              	.LVL13:
 188:Generated_Source\PSoC5/RTOS_list.c **** 
 189:Generated_Source\PSoC5/RTOS_list.c ****     pxItemToRemove->pxNext->pxPrevious = pxItemToRemove->pxPrevious;
 196              		.loc 1 189 0
 197 0002 4268     		ldr	r2, [r0, #4]
 198 0004 8168     		ldr	r1, [r0, #8]
 199 0006 9160     		str	r1, [r2, #8]
 190:Generated_Source\PSoC5/RTOS_list.c ****     pxItemToRemove->pxPrevious->pxNext = pxItemToRemove->pxNext;
 200              		.loc 1 190 0
 201 0008 8268     		ldr	r2, [r0, #8]
 202 000a 4168     		ldr	r1, [r0, #4]
 203 000c 5160     		str	r1, [r2, #4]
 191:Generated_Source\PSoC5/RTOS_list.c **** 
 192:Generated_Source\PSoC5/RTOS_list.c ****     /* Only used during decision coverage testing. */
 193:Generated_Source\PSoC5/RTOS_list.c ****     mtCOVERAGE_TEST_DELAY();
 194:Generated_Source\PSoC5/RTOS_list.c **** 
 195:Generated_Source\PSoC5/RTOS_list.c ****     /* Make sure the index is left pointing to a valid item. */
 196:Generated_Source\PSoC5/RTOS_list.c ****     if( pxList->pxIndex == pxItemToRemove )
ARM GAS  C:\Users\df16\AppData\Local\Temp\ccw3wFqT.s 			page 8


 204              		.loc 1 196 0
 205 000e 5A68     		ldr	r2, [r3, #4]
 206 0010 9042     		cmp	r0, r2
 207 0012 01D1     		bne	.L11
 197:Generated_Source\PSoC5/RTOS_list.c ****     {
 198:Generated_Source\PSoC5/RTOS_list.c ****         pxList->pxIndex = pxItemToRemove->pxPrevious;
 208              		.loc 1 198 0
 209 0014 8268     		ldr	r2, [r0, #8]
 210 0016 5A60     		str	r2, [r3, #4]
 211              	.L11:
 199:Generated_Source\PSoC5/RTOS_list.c ****     }
 200:Generated_Source\PSoC5/RTOS_list.c ****     else
 201:Generated_Source\PSoC5/RTOS_list.c ****     {
 202:Generated_Source\PSoC5/RTOS_list.c ****         mtCOVERAGE_TEST_MARKER();
 203:Generated_Source\PSoC5/RTOS_list.c ****     }
 204:Generated_Source\PSoC5/RTOS_list.c **** 
 205:Generated_Source\PSoC5/RTOS_list.c ****     pxItemToRemove->pxContainer = NULL;
 212              		.loc 1 205 0
 213 0018 0022     		movs	r2, #0
 214 001a 0261     		str	r2, [r0, #16]
 206:Generated_Source\PSoC5/RTOS_list.c ****     ( pxList->uxNumberOfItems )--;
 215              		.loc 1 206 0
 216 001c 1A68     		ldr	r2, [r3]
 217 001e 013A     		subs	r2, r2, #1
 218 0020 1A60     		str	r2, [r3]
 207:Generated_Source\PSoC5/RTOS_list.c **** 
 208:Generated_Source\PSoC5/RTOS_list.c ****     return pxList->uxNumberOfItems;
 219              		.loc 1 208 0
 220 0022 1868     		ldr	r0, [r3]
 221              	.LVL14:
 209:Generated_Source\PSoC5/RTOS_list.c **** }
 222              		.loc 1 209 0
 223 0024 7047     		bx	lr
 224              		.cfi_endproc
 225              	.LFE71:
 226              		.size	uxListRemove, .-uxListRemove
 227 0026 00BF     		.text
 228              	.Letext0:
 229              		.file 2 "c:\\program files (x86)\\cypress\\psoc creator\\4.4\\psoc creator\\import\\gnu\\arm\\5.4.
 230              		.file 3 "c:\\program files (x86)\\cypress\\psoc creator\\4.4\\psoc creator\\import\\gnu\\arm\\5.4.
 231              		.file 4 "g:\\project\\psocwagen\\psoc\\ucll_koen_lib.cylib\\myfreertos\\source\\portable\\gcc\\arm
 232              		.file 5 "..\\..\\UCLL_Koen_lib.cylib\\myFreeRTOS\\Source\\include/list.h"
 233              		.file 6 "Generated_Source\\PSoC5/core_cm3.h"