ARM GAS  C:\Users\df16\AppData\Local\Temp\ccbYZVyI.s 			page 1


   1              		.syntax unified
   2              		.cpu cortex-m3
   3              		.fpu softvfp
   4              		.eabi_attribute 20, 1
   5              		.eabi_attribute 21, 1
   6              		.eabi_attribute 23, 3
   7              		.eabi_attribute 24, 1
   8              		.eabi_attribute 25, 1
   9              		.eabi_attribute 26, 1
  10              		.eabi_attribute 30, 1
  11              		.eabi_attribute 34, 1
  12              		.eabi_attribute 18, 4
  13              		.thumb
  14              		.syntax unified
  15              		.file	"UART.c"
  16              		.text
  17              	.Ltext0:
  18              		.cfi_sections	.debug_frame
  19              		.section	.text._write,"ax",%progbits
  20              		.align	2
  21              		.global	_write
  22              		.thumb
  23              		.thumb_func
  24              		.type	_write, %function
  25              	_write:
  26              	.LFB67:
  27              		.file 1 "UART.c"
   1:UART.c        **** #define BUF_SIZE    100
   2:UART.c        **** #define EIND        139
   3:UART.c        **** #define OVER        104
   4:UART.c        **** #define BEGIN       137
   5:UART.c        **** #define POGING      2
   6:UART.c        **** #include <project.h>
   7:UART.c        **** #include <stdlib.h>
   8:UART.c        **** 
   9:UART.c        **** typedef struct{
  10:UART.c        ****     uint8 links;
  11:UART.c        ****     uint8 rechts;
  12:UART.c        **** }bericht_handler;
  13:UART.c        **** typedef struct{
  14:UART.c        ****     uint8 buffer[BUF_SIZE][2];
  15:UART.c        ****     int geschreven;
  16:UART.c        ****     int gelezen;
  17:UART.c        ****     int size;
  18:UART.c        **** }RingBuf;
  19:UART.c        **** 
  20:UART.c        **** 
  21:UART.c        **** void RingBuf_reset(RingBuf * RB);
  22:UART.c        **** void RingBuf_putchar(RingBuf * RB,char plek, char a);
  23:UART.c        **** uint8 *RingBuf_getchar(RingBuf * RB);
  24:UART.c        **** extern int bericht;
  25:UART.c        **** extern RingBuf rcx_buffer;
  26:UART.c        **** 
  27:UART.c        **** 
  28:UART.c        **** int _write(int file, char *ptr, int len){
  28              		.loc 1 28 0
  29              		.cfi_startproc
ARM GAS  C:\Users\df16\AppData\Local\Temp\ccbYZVyI.s 			page 2


  30              		@ args = 0, pretend = 0, frame = 0
  31              		@ frame_needed = 0, uses_anonymous_args = 0
  32              	.LVL0:
  33 0000 70B5     		push	{r4, r5, r6, lr}
  34              		.cfi_def_cfa_offset 16
  35              		.cfi_offset 4, -16
  36              		.cfi_offset 5, -12
  37              		.cfi_offset 6, -8
  38              		.cfi_offset 14, -4
  39 0002 1646     		mov	r6, r2
  40              	.LVL1:
  29:UART.c        ****     int i;
  30:UART.c        ****     file = file;
  31:UART.c        ****     for (i = 0; i < len; i++)
  41              		.loc 1 31 0
  42 0004 0024     		movs	r4, #0
  43 0006 05E0     		b	.L2
  44              	.LVL2:
  45              	.L3:
  32:UART.c        ****     {
  33:UART.c        ****         UART_TRX_PutChar(*ptr++);
  46              		.loc 1 33 0 discriminator 3
  47 0008 4D1C     		adds	r5, r1, #1
  48              	.LVL3:
  49 000a 0878     		ldrb	r0, [r1]	@ zero_extendqisi2
  50 000c FFF7FEFF 		bl	UART_TRX_PutChar
  51              	.LVL4:
  31:UART.c        ****     {
  52              		.loc 1 31 0 discriminator 3
  53 0010 0134     		adds	r4, r4, #1
  54              	.LVL5:
  55              		.loc 1 33 0 discriminator 3
  56 0012 2946     		mov	r1, r5
  57              	.LVL6:
  58              	.L2:
  31:UART.c        ****     {
  59              		.loc 1 31 0 discriminator 1
  60 0014 B442     		cmp	r4, r6
  61 0016 F7DB     		blt	.L3
  34:UART.c        ****     }
  35:UART.c        ****     return len;
  36:UART.c        **** }
  62              		.loc 1 36 0
  63 0018 3046     		mov	r0, r6
  64 001a 70BD     		pop	{r4, r5, r6, pc}
  65              		.cfi_endproc
  66              	.LFE67:
  67              		.size	_write, .-_write
  68              		.section	.text.RingBuf_reset,"ax",%progbits
  69              		.align	2
  70              		.global	RingBuf_reset
  71              		.thumb
  72              		.thumb_func
  73              		.type	RingBuf_reset, %function
  74              	RingBuf_reset:
  75              	.LFB69:
  37:UART.c        **** 
ARM GAS  C:\Users\df16\AppData\Local\Temp\ccbYZVyI.s 			page 3


  38:UART.c        **** CY_ISR(RCX_ontvang){    
  39:UART.c        ****     char hulp = UART_RCX_GetChar();
  40:UART.c        ****     if(hulp == BEGIN) return;
  41:UART.c        ****     char plekje;
  42:UART.c        ****     if(bericht%2 == 0) plekje = 0;
  43:UART.c        ****     if(bericht%2 == 1) plekje = 1;
  44:UART.c        ****     if(hulp == EIND){
  45:UART.c        ****         RingBuf_putchar(&rcx_buffer,3,0);
  46:UART.c        ****         bericht++;
  47:UART.c        ****     }
  48:UART.c        ****     else{
  49:UART.c        ****         RingBuf_putchar(&rcx_buffer, plekje, hulp);
  50:UART.c        ****     }
  51:UART.c        **** }
  52:UART.c        **** 
  53:UART.c        **** void RingBuf_reset(RingBuf * RB){
  76              		.loc 1 53 0
  77              		.cfi_startproc
  78              		@ args = 0, pretend = 0, frame = 0
  79              		@ frame_needed = 0, uses_anonymous_args = 0
  80              		@ link register save eliminated.
  81              	.LVL7:
  54:UART.c        ****     RB->gelezen = 0;
  82              		.loc 1 54 0
  83 0000 0023     		movs	r3, #0
  84 0002 C0F8CC30 		str	r3, [r0, #204]
  55:UART.c        ****     RB->geschreven = 0;
  85              		.loc 1 55 0
  86 0006 C0F8C830 		str	r3, [r0, #200]
  56:UART.c        ****     RB->size = 0;
  87              		.loc 1 56 0
  88 000a C0F8D030 		str	r3, [r0, #208]
  89 000e 7047     		bx	lr
  90              		.cfi_endproc
  91              	.LFE69:
  92              		.size	RingBuf_reset, .-RingBuf_reset
  93              		.section	.text.RingBuf_putchar,"ax",%progbits
  94              		.align	2
  95              		.global	RingBuf_putchar
  96              		.thumb
  97              		.thumb_func
  98              		.type	RingBuf_putchar, %function
  99              	RingBuf_putchar:
 100              	.LFB70:
  57:UART.c        **** }
  58:UART.c        **** void RingBuf_putchar(RingBuf * RB,char plek, char c){
 101              		.loc 1 58 0
 102              		.cfi_startproc
 103              		@ args = 0, pretend = 0, frame = 0
 104              		@ frame_needed = 0, uses_anonymous_args = 0
 105              		@ link register save eliminated.
 106              	.LVL8:
 107 0000 30B4     		push	{r4, r5}
 108              		.cfi_def_cfa_offset 8
 109              		.cfi_offset 4, -8
 110              		.cfi_offset 5, -4
  59:UART.c        ****     if (RB->geschreven +1 != RB->gelezen){
ARM GAS  C:\Users\df16\AppData\Local\Temp\ccbYZVyI.s 			page 4


 111              		.loc 1 59 0
 112 0002 D0F8C840 		ldr	r4, [r0, #200]
 113 0006 631C     		adds	r3, r4, #1
 114 0008 D0F8CC50 		ldr	r5, [r0, #204]
 115 000c AB42     		cmp	r3, r5
 116 000e 0BD0     		beq	.L6
  60:UART.c        ****         if(plek==3) 
 117              		.loc 1 60 0
 118 0010 0329     		cmp	r1, #3
 119 0012 02D1     		bne	.L8
  61:UART.c        ****         RB->buffer[RB->geschreven][plek] = c;
 120              		.loc 1 61 0
 121 0014 00EB4404 		add	r4, r0, r4, lsl #1
 122 0018 6254     		strb	r2, [r4, r1]
 123              	.L8:
  62:UART.c        ****         RB->geschreven++;
 124              		.loc 1 62 0
 125 001a C0F8C830 		str	r3, [r0, #200]
  63:UART.c        ****         if(RB->geschreven == BUF_SIZE) RB->geschreven = 0;
 126              		.loc 1 63 0
 127 001e 642B     		cmp	r3, #100
 128 0020 02D1     		bne	.L6
 129              		.loc 1 63 0 is_stmt 0 discriminator 1
 130 0022 0023     		movs	r3, #0
 131 0024 C0F8C830 		str	r3, [r0, #200]
 132              	.L6:
  64:UART.c        ****     }
  65:UART.c        **** }
 133              		.loc 1 65 0 is_stmt 1
 134 0028 30BC     		pop	{r4, r5}
 135              		.cfi_restore 5
 136              		.cfi_restore 4
 137              		.cfi_def_cfa_offset 0
 138 002a 7047     		bx	lr
 139              		.cfi_endproc
 140              	.LFE70:
 141              		.size	RingBuf_putchar, .-RingBuf_putchar
 142              		.section	.text.RCX_ontvang,"ax",%progbits
 143              		.align	2
 144              		.global	RCX_ontvang
 145              		.thumb
 146              		.thumb_func
 147              		.type	RCX_ontvang, %function
 148              	RCX_ontvang:
 149              	.LFB68:
  38:UART.c        ****     char hulp = UART_RCX_GetChar();
 150              		.loc 1 38 0
 151              		.cfi_startproc
 152              		@ args = 0, pretend = 0, frame = 0
 153              		@ frame_needed = 0, uses_anonymous_args = 0
 154 0000 08B5     		push	{r3, lr}
 155              		.cfi_def_cfa_offset 8
 156              		.cfi_offset 3, -8
 157              		.cfi_offset 14, -4
  39:UART.c        ****     if(hulp == BEGIN) return;
 158              		.loc 1 39 0
 159 0002 FFF7FEFF 		bl	UART_RCX_GetChar
ARM GAS  C:\Users\df16\AppData\Local\Temp\ccbYZVyI.s 			page 5


 160              	.LVL9:
  40:UART.c        ****     char plekje;
 161              		.loc 1 40 0
 162 0006 8928     		cmp	r0, #137
 163 0008 1DD0     		beq	.L10
  42:UART.c        ****     if(bericht%2 == 1) plekje = 1;
 164              		.loc 1 42 0
 165 000a 0F4B     		ldr	r3, .L17
 166 000c 1B68     		ldr	r3, [r3]
 167              	.LVL10:
  43:UART.c        ****     if(hulp == EIND){
 168              		.loc 1 43 0
 169 000e 0F4A     		ldr	r2, .L17+4
 170 0010 1340     		ands	r3, r3, r2
 171 0012 03D5     		bpl	.L12
 172 0014 013B     		subs	r3, r3, #1
 173 0016 63F00103 		orn	r3, r3, #1
 174 001a 0133     		adds	r3, r3, #1
 175              	.L12:
 176 001c 012B     		cmp	r3, #1
 177 001e 01D0     		beq	.L15
 178 0020 0021     		movs	r1, #0
 179 0022 00E0     		b	.L13
 180              	.L15:
 181 0024 0121     		movs	r1, #1
 182              	.L13:
 183              	.LVL11:
  44:UART.c        ****         RingBuf_putchar(&rcx_buffer,3,0);
 184              		.loc 1 44 0
 185 0026 8B28     		cmp	r0, #139
 186 0028 09D1     		bne	.L14
  45:UART.c        ****         bericht++;
 187              		.loc 1 45 0
 188 002a 0022     		movs	r2, #0
 189 002c 0321     		movs	r1, #3
 190              	.LVL12:
 191 002e 0848     		ldr	r0, .L17+8
 192              	.LVL13:
 193 0030 FFF7FEFF 		bl	RingBuf_putchar
 194              	.LVL14:
  46:UART.c        ****     }
 195              		.loc 1 46 0
 196 0034 044A     		ldr	r2, .L17
 197 0036 1368     		ldr	r3, [r2]
 198 0038 0133     		adds	r3, r3, #1
 199 003a 1360     		str	r3, [r2]
 200 003c 08BD     		pop	{r3, pc}
 201              	.LVL15:
 202              	.L14:
  49:UART.c        ****     }
 203              		.loc 1 49 0
 204 003e 0246     		mov	r2, r0
 205 0040 0348     		ldr	r0, .L17+8
 206              	.LVL16:
 207 0042 FFF7FEFF 		bl	RingBuf_putchar
 208              	.LVL17:
 209              	.L10:
ARM GAS  C:\Users\df16\AppData\Local\Temp\ccbYZVyI.s 			page 6


 210 0046 08BD     		pop	{r3, pc}
 211              	.L18:
 212              		.align	2
 213              	.L17:
 214 0048 00000000 		.word	bericht
 215 004c 01000080 		.word	-2147483647
 216 0050 00000000 		.word	rcx_buffer
 217              		.cfi_endproc
 218              	.LFE68:
 219              		.size	RCX_ontvang, .-RCX_ontvang
 220              		.section	.text.RingBuf_getchar,"ax",%progbits
 221              		.align	2
 222              		.global	RingBuf_getchar
 223              		.thumb
 224              		.thumb_func
 225              		.type	RingBuf_getchar, %function
 226              	RingBuf_getchar:
 227              	.LFB71:
  66:UART.c        **** uint8 *RingBuf_getchar(RingBuf * RB){
 228              		.loc 1 66 0
 229              		.cfi_startproc
 230              		@ args = 0, pretend = 0, frame = 0
 231              		@ frame_needed = 0, uses_anonymous_args = 0
 232              		@ link register save eliminated.
 233              	.LVL18:
  67:UART.c        ****     uint8 *bufWaarde =  malloc(sizeof(uint8)*2);
  68:UART.c        ****     if (RB->geschreven != RB->gelezen){
 234              		.loc 1 68 0
 235 0000 D0F8C820 		ldr	r2, [r0, #200]
 236 0004 D0F8CC30 		ldr	r3, [r0, #204]
 237 0008 9A42     		cmp	r2, r3
 238 000a 0CD0     		beq	.L22
  69:UART.c        ****         RB->gelezen++; 
 239              		.loc 1 69 0
 240 000c 5A1C     		adds	r2, r3, #1
 241 000e C0F8CC20 		str	r2, [r0, #204]
  70:UART.c        ****         if(RB->gelezen == BUF_SIZE) {
 242              		.loc 1 70 0
 243 0012 642A     		cmp	r2, #100
 244 0014 04D1     		bne	.L21
  71:UART.c        ****             RB->gelezen = 0;
 245              		.loc 1 71 0
 246 0016 0023     		movs	r3, #0
 247 0018 C0F8CC30 		str	r3, [r0, #204]
  72:UART.c        ****             return &(RB->buffer[BUF_SIZE-1]);
 248              		.loc 1 72 0
 249 001c C630     		adds	r0, r0, #198
 250              	.LVL19:
 251 001e 7047     		bx	lr
 252              	.LVL20:
 253              	.L21:
  73:UART.c        ****         }
  74:UART.c        ****         else{
  75:UART.c        ****             return &(RB->buffer[RB->gelezen - 1]);
 254              		.loc 1 75 0
 255 0020 00EB4300 		add	r0, r0, r3, lsl #1
 256              	.LVL21:
ARM GAS  C:\Users\df16\AppData\Local\Temp\ccbYZVyI.s 			page 7


 257 0024 7047     		bx	lr
 258              	.LVL22:
 259              	.L22:
  76:UART.c        ****         }
  77:UART.c        ****     }
  78:UART.c        ****     return 0;
 260              		.loc 1 78 0
 261 0026 0020     		movs	r0, #0
 262              	.LVL23:
  79:UART.c        **** }
 263              		.loc 1 79 0
 264 0028 7047     		bx	lr
 265              		.cfi_endproc
 266              	.LFE71:
 267              		.size	RingBuf_getchar, .-RingBuf_getchar
 268 002a 00BF     		.section	.text.commStart,"ax",%progbits
 269              		.align	2
 270              		.global	commStart
 271              		.thumb
 272              		.thumb_func
 273              		.type	commStart, %function
 274              	commStart:
 275              	.LFB72:
  80:UART.c        **** void commStart(){
 276              		.loc 1 80 0
 277              		.cfi_startproc
 278              		@ args = 0, pretend = 0, frame = 0
 279              		@ frame_needed = 0, uses_anonymous_args = 0
 280 0000 08B5     		push	{r3, lr}
 281              		.cfi_def_cfa_offset 8
 282              		.cfi_offset 3, -8
 283              		.cfi_offset 14, -4
  81:UART.c        ****     UART_RCX_Init();
 284              		.loc 1 81 0
 285 0002 FFF7FEFF 		bl	UART_RCX_Init
 286              	.LVL24:
  82:UART.c        ****     UART_TRX_Init();
 287              		.loc 1 82 0
 288 0006 FFF7FEFF 		bl	UART_TRX_Init
 289              	.LVL25:
  83:UART.c        ****     RCX_ISR_StartEx(RCX_ontvang);
 290              		.loc 1 83 0
 291 000a 0348     		ldr	r0, .L25
 292 000c FFF7FEFF 		bl	RCX_ISR_StartEx
 293              	.LVL26:
  84:UART.c        ****     RingBuf_reset(&rcx_buffer);
 294              		.loc 1 84 0
 295 0010 0248     		ldr	r0, .L25+4
 296 0012 FFF7FEFF 		bl	RingBuf_reset
 297              	.LVL27:
 298 0016 08BD     		pop	{r3, pc}
 299              	.L26:
 300              		.align	2
 301              	.L25:
 302 0018 00000000 		.word	RCX_ontvang
 303 001c 00000000 		.word	rcx_buffer
 304              		.cfi_endproc
ARM GAS  C:\Users\df16\AppData\Local\Temp\ccbYZVyI.s 			page 8


 305              	.LFE72:
 306              		.size	commStart, .-commStart
 307              		.section	.text.trx_verzend,"ax",%progbits
 308              		.align	2
 309              		.global	trx_verzend
 310              		.thumb
 311              		.thumb_func
 312              		.type	trx_verzend, %function
 313              	trx_verzend:
 314              	.LFB73:
  85:UART.c        **** }
  86:UART.c        **** //void rcx_bevestig(){
  87:UART.c        **** //    UART_RCX_PutChar(OVER);
  88:UART.c        **** //    UART_RCX_PutChar(EIND);
  89:UART.c        **** //}
  90:UART.c        **** 
  91:UART.c        **** void trx_verzend(uint8 commArr[3]){
 315              		.loc 1 91 0
 316              		.cfi_startproc
 317              		@ args = 0, pretend = 0, frame = 0
 318              		@ frame_needed = 0, uses_anonymous_args = 0
 319              	.LVL28:
 320 0000 08B5     		push	{r3, lr}
 321              		.cfi_def_cfa_offset 8
 322              		.cfi_offset 3, -8
 323              		.cfi_offset 14, -4
  92:UART.c        ****     UART_TRX_PutChar(BEGIN);
 324              		.loc 1 92 0
 325 0002 8920     		movs	r0, #137
 326              	.LVL29:
 327 0004 FFF7FEFF 		bl	UART_TRX_PutChar
 328              	.LVL30:
  93:UART.c        ****     for(uint8 data_pos = 0; data_pos > 3; data_pos++){
  94:UART.c        ****         UART_TRX_PutChar(commArr[data_pos]);
  95:UART.c        ****     }
  96:UART.c        ****     UART_TRX_PutChar(EIND);
 329              		.loc 1 96 0
 330 0008 8B20     		movs	r0, #139
 331 000a FFF7FEFF 		bl	UART_TRX_PutChar
 332              	.LVL31:
 333 000e 08BD     		pop	{r3, pc}
 334              		.cfi_endproc
 335              	.LFE73:
 336              		.size	trx_verzend, .-trx_verzend
 337              		.text
 338              	.Letext0:
 339              		.file 2 "c:\\program files (x86)\\cypress\\psoc creator\\4.4\\psoc creator\\import\\gnu\\arm\\5.4.
 340              		.file 3 "c:\\program files (x86)\\cypress\\psoc creator\\4.4\\psoc creator\\import\\gnu\\arm\\5.4.
 341              		.file 4 "Generated_Source\\PSoC5/cytypes.h"
 342              		.file 5 "Generated_Source\\PSoC5/core_cm3.h"
 343              		.file 6 "Generated_Source\\PSoC5/UART_TRX.h"
 344              		.file 7 "Generated_Source\\PSoC5/UART_RCX.h"
 345              		.file 8 "Generated_Source\\PSoC5/RCX_ISR.h"