ARM GAS  C:\Users\df16\AppData\Local\Temp\ccj8CYuD.s 			page 1


   1              		.syntax unified
   2              		.cpu cortex-m3
   3              		.fpu softvfp
   4              		.eabi_attribute 20, 1
   5              		.eabi_attribute 21, 1
   6              		.eabi_attribute 23, 3
   7              		.eabi_attribute 24, 1
   8              		.eabi_attribute 25, 1
   9              		.eabi_attribute 26, 1
  10              		.eabi_attribute 30, 1
  11              		.eabi_attribute 34, 1
  12              		.eabi_attribute 18, 4
  13              		.thumb
  14              		.syntax unified
  15              		.file	"Wagen.c"
  16              		.text
  17              	.Ltext0:
  18              		.cfi_sections	.debug_frame
  19              		.section	.text.wagen_init,"ax",%progbits
  20              		.align	2
  21              		.global	wagen_init
  22              		.thumb
  23              		.thumb_func
  24              		.type	wagen_init, %function
  25              	wagen_init:
  26              	.LFB67:
  27              		.file 1 "Wagen.c"
   1:Wagen.c       **** //switch plakker
   2:Wagen.c       **** //switch (kant){
   3:Wagen.c       **** //    case (LINKS):
   4:Wagen.c       **** //        break;
   5:Wagen.c       **** //    case (RECHTS):
   6:Wagen.c       **** //        break; 
   7:Wagen.c       **** #include <project.h>
   8:Wagen.c       **** #include <UART.h>
   9:Wagen.c       **** 
  10:Wagen.c       **** #define LINKS       0
  11:Wagen.c       **** #define RECHTS      1
  12:Wagen.c       **** 
  13:Wagen.c       **** 
  14:Wagen.c       **** 
  15:Wagen.c       **** typedef void(*kant_start)();
  16:Wagen.c       **** typedef void(*kant_stop)();
  17:Wagen.c       **** typedef uint8(*kant_read_comp)();
  18:Wagen.c       **** typedef void(*kant_write_comp)(uint8);
  19:Wagen.c       **** //uint8= char vr UART!
  20:Wagen.c       **** 
  21:Wagen.c       **** struct Kanten{
  22:Wagen.c       ****     kant_start starter;
  23:Wagen.c       ****     kant_stop stopper;
  24:Wagen.c       ****     kant_read_comp comp_reader;
  25:Wagen.c       ****     kant_write_comp comp_writer;
  26:Wagen.c       **** }Kant;
  27:Wagen.c       **** 
  28:Wagen.c       **** struct Kanten links;
  29:Wagen.c       **** struct Kanten rechts;
  30:Wagen.c       **** uint8 kantArr[2] = {LINKS,RECHTS};
ARM GAS  C:\Users\df16\AppData\Local\Temp\ccj8CYuD.s 			page 2


  31:Wagen.c       **** uint8 lijnArr[3] = {2,3,5};
  32:Wagen.c       **** uint8 vermogensArr[2]={0,0};
  33:Wagen.c       **** uint8 commArr[3];
  34:Wagen.c       **** 
  35:Wagen.c       **** void wagen_init(){
  28              		.loc 1 35 0
  29              		.cfi_startproc
  30              		@ args = 0, pretend = 0, frame = 0
  31              		@ frame_needed = 0, uses_anonymous_args = 0
  32              		@ link register save eliminated.
  36:Wagen.c       ****     links.starter = &VermogenLinks_Start;
  33              		.loc 1 36 0
  34 0000 094B     		ldr	r3, .L2
  35 0002 0A4A     		ldr	r2, .L2+4
  36 0004 1A60     		str	r2, [r3]
  37:Wagen.c       ****     links.stopper = &VermogenLinks_Stop;
  37              		.loc 1 37 0
  38 0006 0A4A     		ldr	r2, .L2+8
  39 0008 5A60     		str	r2, [r3, #4]
  38:Wagen.c       ****     links.comp_reader = &VermogenLinks_ReadCompare;
  40              		.loc 1 38 0
  41 000a 0A4A     		ldr	r2, .L2+12
  42 000c 9A60     		str	r2, [r3, #8]
  39:Wagen.c       ****     links.comp_writer = &VermogenLinks_WriteCompare;
  43              		.loc 1 39 0
  44 000e 0A4A     		ldr	r2, .L2+16
  45 0010 DA60     		str	r2, [r3, #12]
  40:Wagen.c       **** 
  41:Wagen.c       ****     rechts.starter = &VermogenRechts_Start;
  46              		.loc 1 41 0
  47 0012 0A4B     		ldr	r3, .L2+20
  48 0014 0A4A     		ldr	r2, .L2+24
  49 0016 1A60     		str	r2, [r3]
  42:Wagen.c       ****     rechts.stopper = &VermogenRechts_Stop;
  50              		.loc 1 42 0
  51 0018 0A4A     		ldr	r2, .L2+28
  52 001a 5A60     		str	r2, [r3, #4]
  43:Wagen.c       ****     rechts.comp_reader = &VermogenRechts_ReadCompare;
  53              		.loc 1 43 0
  54 001c 0A4A     		ldr	r2, .L2+32
  55 001e 9A60     		str	r2, [r3, #8]
  44:Wagen.c       ****     rechts.comp_writer = &VermogenRechts_WriteCompare;   
  56              		.loc 1 44 0
  57 0020 0A4A     		ldr	r2, .L2+36
  58 0022 DA60     		str	r2, [r3, #12]
  59 0024 7047     		bx	lr
  60              	.L3:
  61 0026 00BF     		.align	2
  62              	.L2:
  63 0028 00000000 		.word	links
  64 002c 00000000 		.word	VermogenLinks_Start
  65 0030 00000000 		.word	VermogenLinks_Stop
  66 0034 00000000 		.word	VermogenLinks_ReadCompare
  67 0038 00000000 		.word	VermogenLinks_WriteCompare
  68 003c 00000000 		.word	rechts
  69 0040 00000000 		.word	VermogenRechts_Start
  70 0044 00000000 		.word	VermogenRechts_Stop
ARM GAS  C:\Users\df16\AppData\Local\Temp\ccj8CYuD.s 			page 3


  71 0048 00000000 		.word	VermogenRechts_ReadCompare
  72 004c 00000000 		.word	VermogenRechts_WriteCompare
  73              		.cfi_endproc
  74              	.LFE67:
  75              		.size	wagen_init, .-wagen_init
  76              		.section	.text.startMotor,"ax",%progbits
  77              		.align	2
  78              		.global	startMotor
  79              		.thumb
  80              		.thumb_func
  81              		.type	startMotor, %function
  82              	startMotor:
  83              	.LFB68:
  45:Wagen.c       **** }
  46:Wagen.c       **** 
  47:Wagen.c       **** void startMotor(uint8 kant){
  84              		.loc 1 47 0
  85              		.cfi_startproc
  86              		@ args = 0, pretend = 0, frame = 0
  87              		@ frame_needed = 0, uses_anonymous_args = 0
  88              	.LVL0:
  89 0000 08B5     		push	{r3, lr}
  90              		.cfi_def_cfa_offset 8
  91              		.cfi_offset 3, -8
  92              		.cfi_offset 14, -4
  48:Wagen.c       ****     switch (kant){
  93              		.loc 1 48 0
  94 0002 10B1     		cbz	r0, .L6
  95 0004 0128     		cmp	r0, #1
  96 0006 04D0     		beq	.L7
  97 0008 08BD     		pop	{r3, pc}
  98              	.L6:
  49:Wagen.c       ****         case (LINKS):
  50:Wagen.c       ****             (*links.starter)();
  99              		.loc 1 50 0
 100 000a 044B     		ldr	r3, .L9
 101 000c 1B68     		ldr	r3, [r3]
 102 000e 9847     		blx	r3
 103              	.LVL1:
  51:Wagen.c       ****             break;
 104              		.loc 1 51 0
 105 0010 08BD     		pop	{r3, pc}
 106              	.LVL2:
 107              	.L7:
  52:Wagen.c       ****         case (RECHTS):
  53:Wagen.c       ****             (*rechts.starter)();
 108              		.loc 1 53 0
 109 0012 034B     		ldr	r3, .L9+4
 110 0014 1B68     		ldr	r3, [r3]
 111 0016 9847     		blx	r3
 112              	.LVL3:
 113 0018 08BD     		pop	{r3, pc}
 114              	.L10:
 115 001a 00BF     		.align	2
 116              	.L9:
 117 001c 00000000 		.word	links
 118 0020 00000000 		.word	rechts
ARM GAS  C:\Users\df16\AppData\Local\Temp\ccj8CYuD.s 			page 4


 119              		.cfi_endproc
 120              	.LFE68:
 121              		.size	startMotor, .-startMotor
 122              		.section	.text.herstartMotor,"ax",%progbits
 123              		.align	2
 124              		.global	herstartMotor
 125              		.thumb
 126              		.thumb_func
 127              		.type	herstartMotor, %function
 128              	herstartMotor:
 129              	.LFB69:
  54:Wagen.c       ****             break;
  55:Wagen.c       ****     }
  56:Wagen.c       **** }
  57:Wagen.c       **** 
  58:Wagen.c       **** void herstartMotor(uint8 kant){
 130              		.loc 1 58 0
 131              		.cfi_startproc
 132              		@ args = 0, pretend = 0, frame = 0
 133              		@ frame_needed = 0, uses_anonymous_args = 0
 134              	.LVL4:
 135 0000 10B5     		push	{r4, lr}
 136              		.cfi_def_cfa_offset 8
 137              		.cfi_offset 4, -8
 138              		.cfi_offset 14, -4
  59:Wagen.c       ****     switch (kant){
 139              		.loc 1 59 0
 140 0002 10B1     		cbz	r0, .L13
 141 0004 0128     		cmp	r0, #1
 142 0006 06D0     		beq	.L14
 143 0008 10BD     		pop	{r4, pc}
 144              	.L13:
  60:Wagen.c       ****         case (LINKS):
  61:Wagen.c       ****             (*links.stopper)();
 145              		.loc 1 61 0
 146 000a 064C     		ldr	r4, .L16
 147 000c 6368     		ldr	r3, [r4, #4]
 148 000e 9847     		blx	r3
 149              	.LVL5:
  62:Wagen.c       ****             (*links.starter)();
 150              		.loc 1 62 0
 151 0010 2368     		ldr	r3, [r4]
 152 0012 9847     		blx	r3
 153              	.LVL6:
  63:Wagen.c       ****             break;
 154              		.loc 1 63 0
 155 0014 10BD     		pop	{r4, pc}
 156              	.LVL7:
 157              	.L14:
  64:Wagen.c       ****         case (RECHTS):
  65:Wagen.c       ****             (*rechts.stopper)();
 158              		.loc 1 65 0
 159 0016 044C     		ldr	r4, .L16+4
 160 0018 6368     		ldr	r3, [r4, #4]
 161 001a 9847     		blx	r3
 162              	.LVL8:
  66:Wagen.c       ****             (*rechts.starter)();
ARM GAS  C:\Users\df16\AppData\Local\Temp\ccj8CYuD.s 			page 5


 163              		.loc 1 66 0
 164 001c 2368     		ldr	r3, [r4]
 165 001e 9847     		blx	r3
 166              	.LVL9:
 167 0020 10BD     		pop	{r4, pc}
 168              	.L17:
 169 0022 00BF     		.align	2
 170              	.L16:
 171 0024 00000000 		.word	links
 172 0028 00000000 		.word	rechts
 173              		.cfi_endproc
 174              	.LFE69:
 175              		.size	herstartMotor, .-herstartMotor
 176              		.section	.text.setVermogen,"ax",%progbits
 177              		.align	2
 178              		.global	setVermogen
 179              		.thumb
 180              		.thumb_func
 181              		.type	setVermogen, %function
 182              	setVermogen:
 183              	.LFB70:
  67:Wagen.c       ****             break;
  68:Wagen.c       ****     }
  69:Wagen.c       **** }
  70:Wagen.c       **** 
  71:Wagen.c       **** void setVermogen(uint8 kant,uint8 vermogen){
 184              		.loc 1 71 0
 185              		.cfi_startproc
 186              		@ args = 0, pretend = 0, frame = 0
 187              		@ frame_needed = 0, uses_anonymous_args = 0
 188              	.LVL10:
 189 0000 08B5     		push	{r3, lr}
 190              		.cfi_def_cfa_offset 8
 191              		.cfi_offset 3, -8
 192              		.cfi_offset 14, -4
  72:Wagen.c       ****     if(vermogen >100) vermogen = 100; 
 193              		.loc 1 72 0
 194 0002 6429     		cmp	r1, #100
 195 0004 00D9     		bls	.L19
 196 0006 6421     		movs	r1, #100
 197              	.LVL11:
 198              	.L19:
  73:Wagen.c       ****     switch (kant){
 199              		.loc 1 73 0
 200 0008 10B1     		cbz	r0, .L21
 201 000a 0128     		cmp	r0, #1
 202 000c 05D0     		beq	.L22
 203 000e 08BD     		pop	{r3, pc}
 204              	.L21:
  74:Wagen.c       ****         case (LINKS):
  75:Wagen.c       ****         (*links.comp_writer)(vermogen);
 205              		.loc 1 75 0
 206 0010 044B     		ldr	r3, .L25
 207 0012 DB68     		ldr	r3, [r3, #12]
 208 0014 0846     		mov	r0, r1
 209              	.LVL12:
 210 0016 9847     		blx	r3
ARM GAS  C:\Users\df16\AppData\Local\Temp\ccj8CYuD.s 			page 6


 211              	.LVL13:
  76:Wagen.c       ****             break;
 212              		.loc 1 76 0
 213 0018 08BD     		pop	{r3, pc}
 214              	.LVL14:
 215              	.L22:
  77:Wagen.c       ****         case (RECHTS):
  78:Wagen.c       ****             (*rechts.comp_writer)(vermogen);
 216              		.loc 1 78 0
 217 001a 034B     		ldr	r3, .L25+4
 218 001c DB68     		ldr	r3, [r3, #12]
 219 001e 0846     		mov	r0, r1
 220              	.LVL15:
 221 0020 9847     		blx	r3
 222              	.LVL16:
 223 0022 08BD     		pop	{r3, pc}
 224              	.L26:
 225              		.align	2
 226              	.L25:
 227 0024 00000000 		.word	links
 228 0028 00000000 		.word	rechts
 229              		.cfi_endproc
 230              	.LFE70:
 231              		.size	setVermogen, .-setVermogen
 232              		.section	.text.getVermogen,"ax",%progbits
 233              		.align	2
 234              		.global	getVermogen
 235              		.thumb
 236              		.thumb_func
 237              		.type	getVermogen, %function
 238              	getVermogen:
 239              	.LFB71:
  79:Wagen.c       ****             break;
  80:Wagen.c       ****     }
  81:Wagen.c       **** }
  82:Wagen.c       **** 
  83:Wagen.c       **** uint8 getVermogen(uint8 kant){
 240              		.loc 1 83 0
 241              		.cfi_startproc
 242              		@ args = 0, pretend = 0, frame = 0
 243              		@ frame_needed = 0, uses_anonymous_args = 0
 244              	.LVL17:
 245 0000 08B5     		push	{r3, lr}
 246              		.cfi_def_cfa_offset 8
 247              		.cfi_offset 3, -8
 248              		.cfi_offset 14, -4
 249              	.LVL18:
  84:Wagen.c       ****     uint8 vermogen=255;
  85:Wagen.c       ****     switch (kant){
 250              		.loc 1 85 0
 251 0002 10B1     		cbz	r0, .L29
 252 0004 0128     		cmp	r0, #1
 253 0006 04D0     		beq	.L30
 254 0008 07E0     		b	.L32
 255              	.L29:
  86:Wagen.c       ****         case (LINKS):
  87:Wagen.c       ****             vermogen = (*links.comp_reader)();
ARM GAS  C:\Users\df16\AppData\Local\Temp\ccj8CYuD.s 			page 7


 256              		.loc 1 87 0
 257 000a 054B     		ldr	r3, .L34
 258 000c 9B68     		ldr	r3, [r3, #8]
 259 000e 9847     		blx	r3
 260              	.LVL19:
  88:Wagen.c       ****             break;
 261              		.loc 1 88 0
 262 0010 08BD     		pop	{r3, pc}
 263              	.LVL20:
 264              	.L30:
  89:Wagen.c       ****         case (RECHTS):
  90:Wagen.c       ****             vermogen = (*rechts.comp_reader)();
 265              		.loc 1 90 0
 266 0012 044B     		ldr	r3, .L34+4
 267 0014 9B68     		ldr	r3, [r3, #8]
 268 0016 9847     		blx	r3
 269              	.LVL21:
  91:Wagen.c       ****             break;
 270              		.loc 1 91 0
 271 0018 08BD     		pop	{r3, pc}
 272              	.LVL22:
 273              	.L32:
  84:Wagen.c       ****     switch (kant){
 274              		.loc 1 84 0
 275 001a FF20     		movs	r0, #255
 276              	.LVL23:
  92:Wagen.c       ****     }
  93:Wagen.c       ****     return vermogen;
  94:Wagen.c       **** }
 277              		.loc 1 94 0
 278 001c 08BD     		pop	{r3, pc}
 279              	.L35:
 280 001e 00BF     		.align	2
 281              	.L34:
 282 0020 00000000 		.word	links
 283 0024 00000000 		.word	rechts
 284              		.cfi_endproc
 285              	.LFE71:
 286              		.size	getVermogen, .-getVermogen
 287              		.section	.text.lijnCheck,"ax",%progbits
 288              		.align	2
 289              		.global	lijnCheck
 290              		.thumb
 291              		.thumb_func
 292              		.type	lijnCheck, %function
 293              	lijnCheck:
 294              	.LFB72:
  95:Wagen.c       **** 
  96:Wagen.c       **** uint8 lijnCheck(){
 295              		.loc 1 96 0
 296              		.cfi_startproc
 297              		@ args = 0, pretend = 0, frame = 0
 298              		@ frame_needed = 0, uses_anonymous_args = 0
 299 0000 38B5     		push	{r3, r4, r5, lr}
 300              		.cfi_def_cfa_offset 16
 301              		.cfi_offset 3, -16
 302              		.cfi_offset 4, -12
ARM GAS  C:\Users\df16\AppData\Local\Temp\ccj8CYuD.s 			page 8


 303              		.cfi_offset 5, -8
 304              		.cfi_offset 14, -4
  97:Wagen.c       ****     uint8 lijn   = GeenIsr0_Read() * lijnArr[0]
 305              		.loc 1 97 0
 306 0002 FFF7FEFF 		bl	GeenIsr0_Read
 307              	.LVL24:
 308 0006 094D     		ldr	r5, .L38
 309 0008 2C78     		ldrb	r4, [r5]	@ zero_extendqisi2
 310 000a 04FB00F0 		mul	r0, r4, r0
 311 000e C4B2     		uxtb	r4, r0
  98:Wagen.c       ****                 + GeenIsr1_Read() * lijnArr[1]
 312              		.loc 1 98 0
 313 0010 FFF7FEFF 		bl	GeenIsr1_Read
 314              	.LVL25:
 315 0014 6B78     		ldrb	r3, [r5, #1]	@ zero_extendqisi2
  97:Wagen.c       ****     uint8 lijn   = GeenIsr0_Read() * lijnArr[0]
 316              		.loc 1 97 0
 317 0016 03FB0040 		mla	r0, r3, r0, r4
 318 001a C4B2     		uxtb	r4, r0
  99:Wagen.c       ****                 + GeenIsr2_Read() * lijnArr[2];
 319              		.loc 1 99 0
 320 001c FFF7FEFF 		bl	GeenIsr2_Read
 321              	.LVL26:
 322 0020 AB78     		ldrb	r3, [r5, #2]	@ zero_extendqisi2
  97:Wagen.c       ****     uint8 lijn   = GeenIsr0_Read() * lijnArr[0]
 323              		.loc 1 97 0
 324 0022 03FB0040 		mla	r0, r3, r0, r4
 325              	.LVL27:
 100:Wagen.c       ****     return lijn;
 101:Wagen.c       **** }   
 326              		.loc 1 101 0
 327 0026 C0B2     		uxtb	r0, r0
 328 0028 38BD     		pop	{r3, r4, r5, pc}
 329              	.L39:
 330 002a 00BF     		.align	2
 331              	.L38:
 332 002c 00000000 		.word	.LANCHOR0
 333              		.cfi_endproc
 334              	.LFE72:
 335              		.size	lijnCheck, .-lijnCheck
 336              		.section	.text.commArrMaker,"ax",%progbits
 337              		.align	2
 338              		.global	commArrMaker
 339              		.thumb
 340              		.thumb_func
 341              		.type	commArrMaker, %function
 342              	commArrMaker:
 343              	.LFB73:
 102:Wagen.c       **** void commArrMaker(){
 344              		.loc 1 102 0
 345              		.cfi_startproc
 346              		@ args = 0, pretend = 0, frame = 0
 347              		@ frame_needed = 0, uses_anonymous_args = 0
 348 0000 10B5     		push	{r4, lr}
 349              		.cfi_def_cfa_offset 8
 350              		.cfi_offset 4, -8
 351              		.cfi_offset 14, -4
ARM GAS  C:\Users\df16\AppData\Local\Temp\ccj8CYuD.s 			page 9


 103:Wagen.c       ****     commArr[0] = lijnCheck();
 352              		.loc 1 103 0
 353 0002 FFF7FEFF 		bl	lijnCheck
 354              	.LVL28:
 355 0006 054C     		ldr	r4, .L42
 356 0008 2070     		strb	r0, [r4]
 104:Wagen.c       ****     commArr[1] = getVermogen(LINKS);
 357              		.loc 1 104 0
 358 000a 0020     		movs	r0, #0
 359 000c FFF7FEFF 		bl	getVermogen
 360              	.LVL29:
 361 0010 6070     		strb	r0, [r4, #1]
 105:Wagen.c       ****     commArr[2] = getVermogen(RECHTS);
 362              		.loc 1 105 0
 363 0012 0120     		movs	r0, #1
 364 0014 FFF7FEFF 		bl	getVermogen
 365              	.LVL30:
 366 0018 A070     		strb	r0, [r4, #2]
 367 001a 10BD     		pop	{r4, pc}
 368              	.L43:
 369              		.align	2
 370              	.L42:
 371 001c 00000000 		.word	commArr
 372              		.cfi_endproc
 373              	.LFE73:
 374              		.size	commArrMaker, .-commArrMaker
 375              		.section	.text.snelheidsregelaar,"ax",%progbits
 376              		.align	2
 377              		.global	snelheidsregelaar
 378              		.thumb
 379              		.thumb_func
 380              		.type	snelheidsregelaar, %function
 381              	snelheidsregelaar:
 382              	.LFB74:
 106:Wagen.c       **** }
 107:Wagen.c       **** 
 108:Wagen.c       **** void snelheidsregelaar(uint8 linker,uint8 rechter){
 383              		.loc 1 108 0
 384              		.cfi_startproc
 385              		@ args = 0, pretend = 0, frame = 0
 386              		@ frame_needed = 0, uses_anonymous_args = 0
 387              	.LVL31:
 388 0000 10B5     		push	{r4, lr}
 389              		.cfi_def_cfa_offset 8
 390              		.cfi_offset 4, -8
 391              		.cfi_offset 14, -4
 392 0002 0C46     		mov	r4, r1
 109:Wagen.c       ****     setVermogen(LINKS,linker);
 393              		.loc 1 109 0
 394 0004 0146     		mov	r1, r0
 395              	.LVL32:
 396 0006 0020     		movs	r0, #0
 397              	.LVL33:
 398 0008 FFF7FEFF 		bl	setVermogen
 399              	.LVL34:
 110:Wagen.c       ****     setVermogen(RECHTS,rechter);
 400              		.loc 1 110 0
ARM GAS  C:\Users\df16\AppData\Local\Temp\ccj8CYuD.s 			page 10


 401 000c 2146     		mov	r1, r4
 402 000e 0120     		movs	r0, #1
 403 0010 FFF7FEFF 		bl	setVermogen
 404              	.LVL35:
 405 0014 10BD     		pop	{r4, pc}
 406              		.cfi_endproc
 407              	.LFE74:
 408              		.size	snelheidsregelaar, .-snelheidsregelaar
 409 0016 00BF     		.section	.text.wagen_start,"ax",%progbits
 410              		.align	2
 411              		.global	wagen_start
 412              		.thumb
 413              		.thumb_func
 414              		.type	wagen_start, %function
 415              	wagen_start:
 416              	.LFB75:
 111:Wagen.c       **** }
 112:Wagen.c       **** void wagen_start(){
 417              		.loc 1 112 0
 418              		.cfi_startproc
 419              		@ args = 0, pretend = 0, frame = 0
 420              		@ frame_needed = 0, uses_anonymous_args = 0
 421 0000 38B5     		push	{r3, r4, r5, lr}
 422              		.cfi_def_cfa_offset 16
 423              		.cfi_offset 3, -16
 424              		.cfi_offset 4, -12
 425              		.cfi_offset 5, -8
 426              		.cfi_offset 14, -4
 113:Wagen.c       ****     wagen_init();
 427              		.loc 1 113 0
 428 0002 FFF7FEFF 		bl	wagen_init
 429              	.LVL36:
 114:Wagen.c       ****     startMotor(kantArr[LINKS]);
 430              		.loc 1 114 0
 431 0006 094C     		ldr	r4, .L48
 432 0008 2079     		ldrb	r0, [r4, #4]	@ zero_extendqisi2
 433 000a FFF7FEFF 		bl	startMotor
 434              	.LVL37:
 115:Wagen.c       ****     setVermogen(kantArr[LINKS],vermogensArr[LINKS]);
 435              		.loc 1 115 0
 436 000e 084D     		ldr	r5, .L48+4
 437 0010 2978     		ldrb	r1, [r5]	@ zero_extendqisi2
 438 0012 2079     		ldrb	r0, [r4, #4]	@ zero_extendqisi2
 439 0014 FFF7FEFF 		bl	setVermogen
 440              	.LVL38:
 116:Wagen.c       ****     startMotor(kantArr[RECHTS]);
 441              		.loc 1 116 0
 442 0018 6079     		ldrb	r0, [r4, #5]	@ zero_extendqisi2
 443 001a FFF7FEFF 		bl	startMotor
 444              	.LVL39:
 117:Wagen.c       ****     setVermogen(kantArr[RECHTS],vermogensArr[RECHTS]);
 445              		.loc 1 117 0
 446 001e 6978     		ldrb	r1, [r5, #1]	@ zero_extendqisi2
 447 0020 6079     		ldrb	r0, [r4, #5]	@ zero_extendqisi2
 448 0022 FFF7FEFF 		bl	setVermogen
 449              	.LVL40:
 118:Wagen.c       ****     commStart();
ARM GAS  C:\Users\df16\AppData\Local\Temp\ccj8CYuD.s 			page 11


 450              		.loc 1 118 0
 451 0026 FFF7FEFF 		bl	commStart
 452              	.LVL41:
 453 002a 38BD     		pop	{r3, r4, r5, pc}
 454              	.L49:
 455              		.align	2
 456              	.L48:
 457 002c 00000000 		.word	.LANCHOR0
 458 0030 00000000 		.word	.LANCHOR1
 459              		.cfi_endproc
 460              	.LFE75:
 461              		.size	wagen_start, .-wagen_start
 462              		.comm	commArr,3,4
 463              		.global	vermogensArr
 464              		.global	lijnArr
 465              		.global	kantArr
 466              		.comm	rechts,16,4
 467              		.comm	links,16,4
 468              		.comm	Kant,16,4
 469              		.data
 470              		.align	2
 471              		.set	.LANCHOR0,. + 0
 472              		.type	lijnArr, %object
 473              		.size	lijnArr, 3
 474              	lijnArr:
 475 0000 02       		.byte	2
 476 0001 03       		.byte	3
 477 0002 05       		.byte	5
 478 0003 00       		.space	1
 479              		.type	kantArr, %object
 480              		.size	kantArr, 2
 481              	kantArr:
 482 0004 00       		.byte	0
 483 0005 01       		.byte	1
 484              		.bss
 485              		.align	2
 486              		.set	.LANCHOR1,. + 0
 487              		.type	vermogensArr, %object
 488              		.size	vermogensArr, 2
 489              	vermogensArr:
 490 0000 0000     		.space	2
 491              		.text
 492              	.Letext0:
 493              		.file 2 "c:\\program files (x86)\\cypress\\psoc creator\\4.4\\psoc creator\\import\\gnu\\arm\\5.4.
 494              		.file 3 "c:\\program files (x86)\\cypress\\psoc creator\\4.4\\psoc creator\\import\\gnu\\arm\\5.4.
 495              		.file 4 "Generated_Source\\PSoC5/cytypes.h"
 496              		.file 5 "Generated_Source\\PSoC5/core_cm3.h"
 497              		.file 6 "Generated_Source\\PSoC5/GeenIsr0.h"
 498              		.file 7 "Generated_Source\\PSoC5/GeenIsr1.h"
 499              		.file 8 "Generated_Source\\PSoC5/GeenIsr2.h"
 500              		.file 9 "./UART.h"