ARM GAS  C:\Users\u0036181\AppData\Local\Temp\cc3UM1Sh.s 			page 1


   1              		.syntax unified
   2              		.cpu cortex-m3
   3              		.fpu softvfp
   4              		.eabi_attribute 20, 1
   5              		.eabi_attribute 21, 1
   6              		.eabi_attribute 23, 3
   7              		.eabi_attribute 24, 1
   8              		.eabi_attribute 25, 1
   9              		.eabi_attribute 26, 1
  10              		.eabi_attribute 30, 1
  11              		.eabi_attribute 34, 1
  12              		.eabi_attribute 18, 4
  13              		.thumb
  14              		.syntax unified
  15              		.file	"event_groups.c"
  16              		.text
  17              	.Ltext0:
  18              		.cfi_sections	.debug_frame
  19              		.section	.text.prvTestWaitCondition,"ax",%progbits
  20              		.align	2
  21              		.thumb
  22              		.thumb_func
  23              		.type	prvTestWaitCondition, %function
  24              	prvTestWaitCondition:
  25              	.LFB13:
  26              		.file 1 "..\\..\\..\\..\\..\\..\\FreeRTOS\\FreeRTOS\\FreeRTOS\\Source\\event_groups.c"
   1:..\..\..\..\..\..\FreeRTOS\FreeRTOS\FreeRTOS\Source/event_groups.c **** /*
   2:..\..\..\..\..\..\FreeRTOS\FreeRTOS\FreeRTOS\Source/event_groups.c ****  * FreeRTOS Kernel V10.4.0
   3:..\..\..\..\..\..\FreeRTOS\FreeRTOS\FreeRTOS\Source/event_groups.c ****  * Copyright (C) 2020 Amazon.com, Inc. or its affiliates.  All Rights Reserved.
   4:..\..\..\..\..\..\FreeRTOS\FreeRTOS\FreeRTOS\Source/event_groups.c ****  *
   5:..\..\..\..\..\..\FreeRTOS\FreeRTOS\FreeRTOS\Source/event_groups.c ****  * Permission is hereby granted, free of charge, to any person obtaining a copy of
   6:..\..\..\..\..\..\FreeRTOS\FreeRTOS\FreeRTOS\Source/event_groups.c ****  * this software and associated documentation files (the "Software"), to deal in
   7:..\..\..\..\..\..\FreeRTOS\FreeRTOS\FreeRTOS\Source/event_groups.c ****  * the Software without restriction, including without limitation the rights to
   8:..\..\..\..\..\..\FreeRTOS\FreeRTOS\FreeRTOS\Source/event_groups.c ****  * use, copy, modify, merge, publish, distribute, sublicense, and/or sell copies of
   9:..\..\..\..\..\..\FreeRTOS\FreeRTOS\FreeRTOS\Source/event_groups.c ****  * the Software, and to permit persons to whom the Software is furnished to do so,
  10:..\..\..\..\..\..\FreeRTOS\FreeRTOS\FreeRTOS\Source/event_groups.c ****  * subject to the following conditions:
  11:..\..\..\..\..\..\FreeRTOS\FreeRTOS\FreeRTOS\Source/event_groups.c ****  *
  12:..\..\..\..\..\..\FreeRTOS\FreeRTOS\FreeRTOS\Source/event_groups.c ****  * The above copyright notice and this permission notice shall be included in all
  13:..\..\..\..\..\..\FreeRTOS\FreeRTOS\FreeRTOS\Source/event_groups.c ****  * copies or substantial portions of the Software.
  14:..\..\..\..\..\..\FreeRTOS\FreeRTOS\FreeRTOS\Source/event_groups.c ****  *
  15:..\..\..\..\..\..\FreeRTOS\FreeRTOS\FreeRTOS\Source/event_groups.c ****  * THE SOFTWARE IS PROVIDED "AS IS", WITHOUT WARRANTY OF ANY KIND, EXPRESS OR
  16:..\..\..\..\..\..\FreeRTOS\FreeRTOS\FreeRTOS\Source/event_groups.c ****  * IMPLIED, INCLUDING BUT NOT LIMITED TO THE WARRANTIES OF MERCHANTABILITY, FITNESS
  17:..\..\..\..\..\..\FreeRTOS\FreeRTOS\FreeRTOS\Source/event_groups.c ****  * FOR A PARTICULAR PURPOSE AND NONINFRINGEMENT. IN NO EVENT SHALL THE AUTHORS OR
  18:..\..\..\..\..\..\FreeRTOS\FreeRTOS\FreeRTOS\Source/event_groups.c ****  * COPYRIGHT HOLDERS BE LIABLE FOR ANY CLAIM, DAMAGES OR OTHER LIABILITY, WHETHER
  19:..\..\..\..\..\..\FreeRTOS\FreeRTOS\FreeRTOS\Source/event_groups.c ****  * IN AN ACTION OF CONTRACT, TORT OR OTHERWISE, ARISING FROM, OUT OF OR IN
  20:..\..\..\..\..\..\FreeRTOS\FreeRTOS\FreeRTOS\Source/event_groups.c ****  * CONNECTION WITH THE SOFTWARE OR THE USE OR OTHER DEALINGS IN THE SOFTWARE.
  21:..\..\..\..\..\..\FreeRTOS\FreeRTOS\FreeRTOS\Source/event_groups.c ****  *
  22:..\..\..\..\..\..\FreeRTOS\FreeRTOS\FreeRTOS\Source/event_groups.c ****  * https://www.FreeRTOS.org
  23:..\..\..\..\..\..\FreeRTOS\FreeRTOS\FreeRTOS\Source/event_groups.c ****  * https://github.com/FreeRTOS
  24:..\..\..\..\..\..\FreeRTOS\FreeRTOS\FreeRTOS\Source/event_groups.c ****  *
  25:..\..\..\..\..\..\FreeRTOS\FreeRTOS\FreeRTOS\Source/event_groups.c ****  */
  26:..\..\..\..\..\..\FreeRTOS\FreeRTOS\FreeRTOS\Source/event_groups.c **** 
  27:..\..\..\..\..\..\FreeRTOS\FreeRTOS\FreeRTOS\Source/event_groups.c **** /* Standard includes. */
  28:..\..\..\..\..\..\FreeRTOS\FreeRTOS\FreeRTOS\Source/event_groups.c **** #include <stdlib.h>
  29:..\..\..\..\..\..\FreeRTOS\FreeRTOS\FreeRTOS\Source/event_groups.c **** 
  30:..\..\..\..\..\..\FreeRTOS\FreeRTOS\FreeRTOS\Source/event_groups.c **** /* Defining MPU_WRAPPERS_INCLUDED_FROM_API_FILE prevents task.h from redefining
  31:..\..\..\..\..\..\FreeRTOS\FreeRTOS\FreeRTOS\Source/event_groups.c ****  * all the API functions to use the MPU wrappers.  That should only be done when
ARM GAS  C:\Users\u0036181\AppData\Local\Temp\cc3UM1Sh.s 			page 2


  32:..\..\..\..\..\..\FreeRTOS\FreeRTOS\FreeRTOS\Source/event_groups.c ****  * task.h is included from an application file. */
  33:..\..\..\..\..\..\FreeRTOS\FreeRTOS\FreeRTOS\Source/event_groups.c **** #define MPU_WRAPPERS_INCLUDED_FROM_API_FILE
  34:..\..\..\..\..\..\FreeRTOS\FreeRTOS\FreeRTOS\Source/event_groups.c **** 
  35:..\..\..\..\..\..\FreeRTOS\FreeRTOS\FreeRTOS\Source/event_groups.c **** /* FreeRTOS includes. */
  36:..\..\..\..\..\..\FreeRTOS\FreeRTOS\FreeRTOS\Source/event_groups.c **** #include "FreeRTOS.h"
  37:..\..\..\..\..\..\FreeRTOS\FreeRTOS\FreeRTOS\Source/event_groups.c **** #include "task.h"
  38:..\..\..\..\..\..\FreeRTOS\FreeRTOS\FreeRTOS\Source/event_groups.c **** #include "timers.h"
  39:..\..\..\..\..\..\FreeRTOS\FreeRTOS\FreeRTOS\Source/event_groups.c **** #include "event_groups.h"
  40:..\..\..\..\..\..\FreeRTOS\FreeRTOS\FreeRTOS\Source/event_groups.c **** 
  41:..\..\..\..\..\..\FreeRTOS\FreeRTOS\FreeRTOS\Source/event_groups.c **** /* Lint e961, e750 and e9021 are suppressed as a MISRA exception justified
  42:..\..\..\..\..\..\FreeRTOS\FreeRTOS\FreeRTOS\Source/event_groups.c ****  * because the MPU ports require MPU_WRAPPERS_INCLUDED_FROM_API_FILE to be defined
  43:..\..\..\..\..\..\FreeRTOS\FreeRTOS\FreeRTOS\Source/event_groups.c ****  * for the header files above, but not in this file, in order to generate the
  44:..\..\..\..\..\..\FreeRTOS\FreeRTOS\FreeRTOS\Source/event_groups.c ****  * correct privileged Vs unprivileged linkage and placement. */
  45:..\..\..\..\..\..\FreeRTOS\FreeRTOS\FreeRTOS\Source/event_groups.c **** #undef MPU_WRAPPERS_INCLUDED_FROM_API_FILE /*lint !e961 !e750 !e9021 See comment above. */
  46:..\..\..\..\..\..\FreeRTOS\FreeRTOS\FreeRTOS\Source/event_groups.c **** 
  47:..\..\..\..\..\..\FreeRTOS\FreeRTOS\FreeRTOS\Source/event_groups.c **** /* The following bit fields convey control information in a task's event list
  48:..\..\..\..\..\..\FreeRTOS\FreeRTOS\FreeRTOS\Source/event_groups.c ****  * item value.  It is important they don't clash with the
  49:..\..\..\..\..\..\FreeRTOS\FreeRTOS\FreeRTOS\Source/event_groups.c ****  * taskEVENT_LIST_ITEM_VALUE_IN_USE definition. */
  50:..\..\..\..\..\..\FreeRTOS\FreeRTOS\FreeRTOS\Source/event_groups.c **** #if configUSE_16_BIT_TICKS == 1
  51:..\..\..\..\..\..\FreeRTOS\FreeRTOS\FreeRTOS\Source/event_groups.c ****     #define eventCLEAR_EVENTS_ON_EXIT_BIT    0x0100U
  52:..\..\..\..\..\..\FreeRTOS\FreeRTOS\FreeRTOS\Source/event_groups.c ****     #define eventUNBLOCKED_DUE_TO_BIT_SET    0x0200U
  53:..\..\..\..\..\..\FreeRTOS\FreeRTOS\FreeRTOS\Source/event_groups.c ****     #define eventWAIT_FOR_ALL_BITS           0x0400U
  54:..\..\..\..\..\..\FreeRTOS\FreeRTOS\FreeRTOS\Source/event_groups.c ****     #define eventEVENT_BITS_CONTROL_BYTES    0xff00U
  55:..\..\..\..\..\..\FreeRTOS\FreeRTOS\FreeRTOS\Source/event_groups.c **** #else
  56:..\..\..\..\..\..\FreeRTOS\FreeRTOS\FreeRTOS\Source/event_groups.c ****     #define eventCLEAR_EVENTS_ON_EXIT_BIT    0x01000000UL
  57:..\..\..\..\..\..\FreeRTOS\FreeRTOS\FreeRTOS\Source/event_groups.c ****     #define eventUNBLOCKED_DUE_TO_BIT_SET    0x02000000UL
  58:..\..\..\..\..\..\FreeRTOS\FreeRTOS\FreeRTOS\Source/event_groups.c ****     #define eventWAIT_FOR_ALL_BITS           0x04000000UL
  59:..\..\..\..\..\..\FreeRTOS\FreeRTOS\FreeRTOS\Source/event_groups.c ****     #define eventEVENT_BITS_CONTROL_BYTES    0xff000000UL
  60:..\..\..\..\..\..\FreeRTOS\FreeRTOS\FreeRTOS\Source/event_groups.c **** #endif
  61:..\..\..\..\..\..\FreeRTOS\FreeRTOS\FreeRTOS\Source/event_groups.c **** 
  62:..\..\..\..\..\..\FreeRTOS\FreeRTOS\FreeRTOS\Source/event_groups.c **** typedef struct EventGroupDef_t
  63:..\..\..\..\..\..\FreeRTOS\FreeRTOS\FreeRTOS\Source/event_groups.c **** {
  64:..\..\..\..\..\..\FreeRTOS\FreeRTOS\FreeRTOS\Source/event_groups.c ****     EventBits_t uxEventBits;
  65:..\..\..\..\..\..\FreeRTOS\FreeRTOS\FreeRTOS\Source/event_groups.c ****     List_t xTasksWaitingForBits; /*< List of tasks waiting for a bit to be set. */
  66:..\..\..\..\..\..\FreeRTOS\FreeRTOS\FreeRTOS\Source/event_groups.c **** 
  67:..\..\..\..\..\..\FreeRTOS\FreeRTOS\FreeRTOS\Source/event_groups.c ****     #if ( configUSE_TRACE_FACILITY == 1 )
  68:..\..\..\..\..\..\FreeRTOS\FreeRTOS\FreeRTOS\Source/event_groups.c ****         UBaseType_t uxEventGroupNumber;
  69:..\..\..\..\..\..\FreeRTOS\FreeRTOS\FreeRTOS\Source/event_groups.c ****     #endif
  70:..\..\..\..\..\..\FreeRTOS\FreeRTOS\FreeRTOS\Source/event_groups.c **** 
  71:..\..\..\..\..\..\FreeRTOS\FreeRTOS\FreeRTOS\Source/event_groups.c ****     #if ( ( configSUPPORT_STATIC_ALLOCATION == 1 ) && ( configSUPPORT_DYNAMIC_ALLOCATION == 1 ) )
  72:..\..\..\..\..\..\FreeRTOS\FreeRTOS\FreeRTOS\Source/event_groups.c ****         uint8_t ucStaticallyAllocated; /*< Set to pdTRUE if the event group is statically allocated
  73:..\..\..\..\..\..\FreeRTOS\FreeRTOS\FreeRTOS\Source/event_groups.c ****     #endif
  74:..\..\..\..\..\..\FreeRTOS\FreeRTOS\FreeRTOS\Source/event_groups.c **** } EventGroup_t;
  75:..\..\..\..\..\..\FreeRTOS\FreeRTOS\FreeRTOS\Source/event_groups.c **** 
  76:..\..\..\..\..\..\FreeRTOS\FreeRTOS\FreeRTOS\Source/event_groups.c **** /*-----------------------------------------------------------*/
  77:..\..\..\..\..\..\FreeRTOS\FreeRTOS\FreeRTOS\Source/event_groups.c **** 
  78:..\..\..\..\..\..\FreeRTOS\FreeRTOS\FreeRTOS\Source/event_groups.c **** /*
  79:..\..\..\..\..\..\FreeRTOS\FreeRTOS\FreeRTOS\Source/event_groups.c ****  * Test the bits set in uxCurrentEventBits to see if the wait condition is met.
  80:..\..\..\..\..\..\FreeRTOS\FreeRTOS\FreeRTOS\Source/event_groups.c ****  * The wait condition is defined by xWaitForAllBits.  If xWaitForAllBits is
  81:..\..\..\..\..\..\FreeRTOS\FreeRTOS\FreeRTOS\Source/event_groups.c ****  * pdTRUE then the wait condition is met if all the bits set in uxBitsToWaitFor
  82:..\..\..\..\..\..\FreeRTOS\FreeRTOS\FreeRTOS\Source/event_groups.c ****  * are also set in uxCurrentEventBits.  If xWaitForAllBits is pdFALSE then the
  83:..\..\..\..\..\..\FreeRTOS\FreeRTOS\FreeRTOS\Source/event_groups.c ****  * wait condition is met if any of the bits set in uxBitsToWait for are also set
  84:..\..\..\..\..\..\FreeRTOS\FreeRTOS\FreeRTOS\Source/event_groups.c ****  * in uxCurrentEventBits.
  85:..\..\..\..\..\..\FreeRTOS\FreeRTOS\FreeRTOS\Source/event_groups.c ****  */
  86:..\..\..\..\..\..\FreeRTOS\FreeRTOS\FreeRTOS\Source/event_groups.c **** static BaseType_t prvTestWaitCondition( const EventBits_t uxCurrentEventBits,
  87:..\..\..\..\..\..\FreeRTOS\FreeRTOS\FreeRTOS\Source/event_groups.c ****                                         const EventBits_t uxBitsToWaitFor,
  88:..\..\..\..\..\..\FreeRTOS\FreeRTOS\FreeRTOS\Source/event_groups.c ****                                         const BaseType_t xWaitForAllBits ) PRIVILEGED_FUNCTION;
ARM GAS  C:\Users\u0036181\AppData\Local\Temp\cc3UM1Sh.s 			page 3


  89:..\..\..\..\..\..\FreeRTOS\FreeRTOS\FreeRTOS\Source/event_groups.c **** 
  90:..\..\..\..\..\..\FreeRTOS\FreeRTOS\FreeRTOS\Source/event_groups.c **** /*-----------------------------------------------------------*/
  91:..\..\..\..\..\..\FreeRTOS\FreeRTOS\FreeRTOS\Source/event_groups.c **** 
  92:..\..\..\..\..\..\FreeRTOS\FreeRTOS\FreeRTOS\Source/event_groups.c **** #if ( configSUPPORT_STATIC_ALLOCATION == 1 )
  93:..\..\..\..\..\..\FreeRTOS\FreeRTOS\FreeRTOS\Source/event_groups.c **** 
  94:..\..\..\..\..\..\FreeRTOS\FreeRTOS\FreeRTOS\Source/event_groups.c ****     EventGroupHandle_t xEventGroupCreateStatic( StaticEventGroup_t * pxEventGroupBuffer )
  95:..\..\..\..\..\..\FreeRTOS\FreeRTOS\FreeRTOS\Source/event_groups.c ****     {
  96:..\..\..\..\..\..\FreeRTOS\FreeRTOS\FreeRTOS\Source/event_groups.c ****         EventGroup_t * pxEventBits;
  97:..\..\..\..\..\..\FreeRTOS\FreeRTOS\FreeRTOS\Source/event_groups.c **** 
  98:..\..\..\..\..\..\FreeRTOS\FreeRTOS\FreeRTOS\Source/event_groups.c ****         /* A StaticEventGroup_t object must be provided. */
  99:..\..\..\..\..\..\FreeRTOS\FreeRTOS\FreeRTOS\Source/event_groups.c ****         configASSERT( pxEventGroupBuffer );
 100:..\..\..\..\..\..\FreeRTOS\FreeRTOS\FreeRTOS\Source/event_groups.c **** 
 101:..\..\..\..\..\..\FreeRTOS\FreeRTOS\FreeRTOS\Source/event_groups.c ****         #if ( configASSERT_DEFINED == 1 )
 102:..\..\..\..\..\..\FreeRTOS\FreeRTOS\FreeRTOS\Source/event_groups.c ****             {
 103:..\..\..\..\..\..\FreeRTOS\FreeRTOS\FreeRTOS\Source/event_groups.c ****                 /* Sanity check that the size of the structure used to declare a
 104:..\..\..\..\..\..\FreeRTOS\FreeRTOS\FreeRTOS\Source/event_groups.c ****                  * variable of type StaticEventGroup_t equals the size of the real
 105:..\..\..\..\..\..\FreeRTOS\FreeRTOS\FreeRTOS\Source/event_groups.c ****                  * event group structure. */
 106:..\..\..\..\..\..\FreeRTOS\FreeRTOS\FreeRTOS\Source/event_groups.c ****                 volatile size_t xSize = sizeof( StaticEventGroup_t );
 107:..\..\..\..\..\..\FreeRTOS\FreeRTOS\FreeRTOS\Source/event_groups.c ****                 configASSERT( xSize == sizeof( EventGroup_t ) );
 108:..\..\..\..\..\..\FreeRTOS\FreeRTOS\FreeRTOS\Source/event_groups.c ****             } /*lint !e529 xSize is referenced if configASSERT() is defined. */
 109:..\..\..\..\..\..\FreeRTOS\FreeRTOS\FreeRTOS\Source/event_groups.c ****         #endif /* configASSERT_DEFINED */
 110:..\..\..\..\..\..\FreeRTOS\FreeRTOS\FreeRTOS\Source/event_groups.c **** 
 111:..\..\..\..\..\..\FreeRTOS\FreeRTOS\FreeRTOS\Source/event_groups.c ****         /* The user has provided a statically allocated event group - use it. */
 112:..\..\..\..\..\..\FreeRTOS\FreeRTOS\FreeRTOS\Source/event_groups.c ****         pxEventBits = ( EventGroup_t * ) pxEventGroupBuffer; /*lint !e740 !e9087 EventGroup_t and S
 113:..\..\..\..\..\..\FreeRTOS\FreeRTOS\FreeRTOS\Source/event_groups.c **** 
 114:..\..\..\..\..\..\FreeRTOS\FreeRTOS\FreeRTOS\Source/event_groups.c ****         if( pxEventBits != NULL )
 115:..\..\..\..\..\..\FreeRTOS\FreeRTOS\FreeRTOS\Source/event_groups.c ****         {
 116:..\..\..\..\..\..\FreeRTOS\FreeRTOS\FreeRTOS\Source/event_groups.c ****             pxEventBits->uxEventBits = 0;
 117:..\..\..\..\..\..\FreeRTOS\FreeRTOS\FreeRTOS\Source/event_groups.c ****             vListInitialise( &( pxEventBits->xTasksWaitingForBits ) );
 118:..\..\..\..\..\..\FreeRTOS\FreeRTOS\FreeRTOS\Source/event_groups.c **** 
 119:..\..\..\..\..\..\FreeRTOS\FreeRTOS\FreeRTOS\Source/event_groups.c ****             #if ( configSUPPORT_DYNAMIC_ALLOCATION == 1 )
 120:..\..\..\..\..\..\FreeRTOS\FreeRTOS\FreeRTOS\Source/event_groups.c ****                 {
 121:..\..\..\..\..\..\FreeRTOS\FreeRTOS\FreeRTOS\Source/event_groups.c ****                     /* Both static and dynamic allocation can be used, so note that
 122:..\..\..\..\..\..\FreeRTOS\FreeRTOS\FreeRTOS\Source/event_groups.c ****                      * this event group was created statically in case the event group
 123:..\..\..\..\..\..\FreeRTOS\FreeRTOS\FreeRTOS\Source/event_groups.c ****                      * is later deleted. */
 124:..\..\..\..\..\..\FreeRTOS\FreeRTOS\FreeRTOS\Source/event_groups.c ****                     pxEventBits->ucStaticallyAllocated = pdTRUE;
 125:..\..\..\..\..\..\FreeRTOS\FreeRTOS\FreeRTOS\Source/event_groups.c ****                 }
 126:..\..\..\..\..\..\FreeRTOS\FreeRTOS\FreeRTOS\Source/event_groups.c ****             #endif /* configSUPPORT_DYNAMIC_ALLOCATION */
 127:..\..\..\..\..\..\FreeRTOS\FreeRTOS\FreeRTOS\Source/event_groups.c **** 
 128:..\..\..\..\..\..\FreeRTOS\FreeRTOS\FreeRTOS\Source/event_groups.c ****             traceEVENT_GROUP_CREATE( pxEventBits );
 129:..\..\..\..\..\..\FreeRTOS\FreeRTOS\FreeRTOS\Source/event_groups.c ****         }
 130:..\..\..\..\..\..\FreeRTOS\FreeRTOS\FreeRTOS\Source/event_groups.c ****         else
 131:..\..\..\..\..\..\FreeRTOS\FreeRTOS\FreeRTOS\Source/event_groups.c ****         {
 132:..\..\..\..\..\..\FreeRTOS\FreeRTOS\FreeRTOS\Source/event_groups.c ****             /* xEventGroupCreateStatic should only ever be called with
 133:..\..\..\..\..\..\FreeRTOS\FreeRTOS\FreeRTOS\Source/event_groups.c ****              * pxEventGroupBuffer pointing to a pre-allocated (compile time
 134:..\..\..\..\..\..\FreeRTOS\FreeRTOS\FreeRTOS\Source/event_groups.c ****              * allocated) StaticEventGroup_t variable. */
 135:..\..\..\..\..\..\FreeRTOS\FreeRTOS\FreeRTOS\Source/event_groups.c ****             traceEVENT_GROUP_CREATE_FAILED();
 136:..\..\..\..\..\..\FreeRTOS\FreeRTOS\FreeRTOS\Source/event_groups.c ****         }
 137:..\..\..\..\..\..\FreeRTOS\FreeRTOS\FreeRTOS\Source/event_groups.c **** 
 138:..\..\..\..\..\..\FreeRTOS\FreeRTOS\FreeRTOS\Source/event_groups.c ****         return pxEventBits;
 139:..\..\..\..\..\..\FreeRTOS\FreeRTOS\FreeRTOS\Source/event_groups.c ****     }
 140:..\..\..\..\..\..\FreeRTOS\FreeRTOS\FreeRTOS\Source/event_groups.c **** 
 141:..\..\..\..\..\..\FreeRTOS\FreeRTOS\FreeRTOS\Source/event_groups.c **** #endif /* configSUPPORT_STATIC_ALLOCATION */
 142:..\..\..\..\..\..\FreeRTOS\FreeRTOS\FreeRTOS\Source/event_groups.c **** /*-----------------------------------------------------------*/
 143:..\..\..\..\..\..\FreeRTOS\FreeRTOS\FreeRTOS\Source/event_groups.c **** 
 144:..\..\..\..\..\..\FreeRTOS\FreeRTOS\FreeRTOS\Source/event_groups.c **** #if ( configSUPPORT_DYNAMIC_ALLOCATION == 1 )
 145:..\..\..\..\..\..\FreeRTOS\FreeRTOS\FreeRTOS\Source/event_groups.c **** 
ARM GAS  C:\Users\u0036181\AppData\Local\Temp\cc3UM1Sh.s 			page 4


 146:..\..\..\..\..\..\FreeRTOS\FreeRTOS\FreeRTOS\Source/event_groups.c ****     EventGroupHandle_t xEventGroupCreate( void )
 147:..\..\..\..\..\..\FreeRTOS\FreeRTOS\FreeRTOS\Source/event_groups.c ****     {
 148:..\..\..\..\..\..\FreeRTOS\FreeRTOS\FreeRTOS\Source/event_groups.c ****         EventGroup_t * pxEventBits;
 149:..\..\..\..\..\..\FreeRTOS\FreeRTOS\FreeRTOS\Source/event_groups.c **** 
 150:..\..\..\..\..\..\FreeRTOS\FreeRTOS\FreeRTOS\Source/event_groups.c ****         /* Allocate the event group.  Justification for MISRA deviation as
 151:..\..\..\..\..\..\FreeRTOS\FreeRTOS\FreeRTOS\Source/event_groups.c ****          * follows:  pvPortMalloc() always ensures returned memory blocks are
 152:..\..\..\..\..\..\FreeRTOS\FreeRTOS\FreeRTOS\Source/event_groups.c ****          * aligned per the requirements of the MCU stack.  In this case
 153:..\..\..\..\..\..\FreeRTOS\FreeRTOS\FreeRTOS\Source/event_groups.c ****          * pvPortMalloc() must return a pointer that is guaranteed to meet the
 154:..\..\..\..\..\..\FreeRTOS\FreeRTOS\FreeRTOS\Source/event_groups.c ****          * alignment requirements of the EventGroup_t structure - which (if you
 155:..\..\..\..\..\..\FreeRTOS\FreeRTOS\FreeRTOS\Source/event_groups.c ****          * follow it through) is the alignment requirements of the TickType_t type
 156:..\..\..\..\..\..\FreeRTOS\FreeRTOS\FreeRTOS\Source/event_groups.c ****          * (EventBits_t being of TickType_t itself).  Therefore, whenever the
 157:..\..\..\..\..\..\FreeRTOS\FreeRTOS\FreeRTOS\Source/event_groups.c ****          * stack alignment requirements are greater than or equal to the
 158:..\..\..\..\..\..\FreeRTOS\FreeRTOS\FreeRTOS\Source/event_groups.c ****          * TickType_t alignment requirements the cast is safe.  In other cases,
 159:..\..\..\..\..\..\FreeRTOS\FreeRTOS\FreeRTOS\Source/event_groups.c ****          * where the natural word size of the architecture is less than
 160:..\..\..\..\..\..\FreeRTOS\FreeRTOS\FreeRTOS\Source/event_groups.c ****          * sizeof( TickType_t ), the TickType_t variables will be accessed in two
 161:..\..\..\..\..\..\FreeRTOS\FreeRTOS\FreeRTOS\Source/event_groups.c ****          * or more reads operations, and the alignment requirements is only that
 162:..\..\..\..\..\..\FreeRTOS\FreeRTOS\FreeRTOS\Source/event_groups.c ****          * of each individual read. */
 163:..\..\..\..\..\..\FreeRTOS\FreeRTOS\FreeRTOS\Source/event_groups.c ****         pxEventBits = ( EventGroup_t * ) pvPortMalloc( sizeof( EventGroup_t ) ); /*lint !e9087 !e90
 164:..\..\..\..\..\..\FreeRTOS\FreeRTOS\FreeRTOS\Source/event_groups.c **** 
 165:..\..\..\..\..\..\FreeRTOS\FreeRTOS\FreeRTOS\Source/event_groups.c ****         if( pxEventBits != NULL )
 166:..\..\..\..\..\..\FreeRTOS\FreeRTOS\FreeRTOS\Source/event_groups.c ****         {
 167:..\..\..\..\..\..\FreeRTOS\FreeRTOS\FreeRTOS\Source/event_groups.c ****             pxEventBits->uxEventBits = 0;
 168:..\..\..\..\..\..\FreeRTOS\FreeRTOS\FreeRTOS\Source/event_groups.c ****             vListInitialise( &( pxEventBits->xTasksWaitingForBits ) );
 169:..\..\..\..\..\..\FreeRTOS\FreeRTOS\FreeRTOS\Source/event_groups.c **** 
 170:..\..\..\..\..\..\FreeRTOS\FreeRTOS\FreeRTOS\Source/event_groups.c ****             #if ( configSUPPORT_STATIC_ALLOCATION == 1 )
 171:..\..\..\..\..\..\FreeRTOS\FreeRTOS\FreeRTOS\Source/event_groups.c ****                 {
 172:..\..\..\..\..\..\FreeRTOS\FreeRTOS\FreeRTOS\Source/event_groups.c ****                     /* Both static and dynamic allocation can be used, so note this
 173:..\..\..\..\..\..\FreeRTOS\FreeRTOS\FreeRTOS\Source/event_groups.c ****                      * event group was allocated statically in case the event group is
 174:..\..\..\..\..\..\FreeRTOS\FreeRTOS\FreeRTOS\Source/event_groups.c ****                      * later deleted. */
 175:..\..\..\..\..\..\FreeRTOS\FreeRTOS\FreeRTOS\Source/event_groups.c ****                     pxEventBits->ucStaticallyAllocated = pdFALSE;
 176:..\..\..\..\..\..\FreeRTOS\FreeRTOS\FreeRTOS\Source/event_groups.c ****                 }
 177:..\..\..\..\..\..\FreeRTOS\FreeRTOS\FreeRTOS\Source/event_groups.c ****             #endif /* configSUPPORT_STATIC_ALLOCATION */
 178:..\..\..\..\..\..\FreeRTOS\FreeRTOS\FreeRTOS\Source/event_groups.c **** 
 179:..\..\..\..\..\..\FreeRTOS\FreeRTOS\FreeRTOS\Source/event_groups.c ****             traceEVENT_GROUP_CREATE( pxEventBits );
 180:..\..\..\..\..\..\FreeRTOS\FreeRTOS\FreeRTOS\Source/event_groups.c ****         }
 181:..\..\..\..\..\..\FreeRTOS\FreeRTOS\FreeRTOS\Source/event_groups.c ****         else
 182:..\..\..\..\..\..\FreeRTOS\FreeRTOS\FreeRTOS\Source/event_groups.c ****         {
 183:..\..\..\..\..\..\FreeRTOS\FreeRTOS\FreeRTOS\Source/event_groups.c ****             traceEVENT_GROUP_CREATE_FAILED(); /*lint !e9063 Else branch only exists to allow tracin
 184:..\..\..\..\..\..\FreeRTOS\FreeRTOS\FreeRTOS\Source/event_groups.c ****         }
 185:..\..\..\..\..\..\FreeRTOS\FreeRTOS\FreeRTOS\Source/event_groups.c **** 
 186:..\..\..\..\..\..\FreeRTOS\FreeRTOS\FreeRTOS\Source/event_groups.c ****         return pxEventBits;
 187:..\..\..\..\..\..\FreeRTOS\FreeRTOS\FreeRTOS\Source/event_groups.c ****     }
 188:..\..\..\..\..\..\FreeRTOS\FreeRTOS\FreeRTOS\Source/event_groups.c **** 
 189:..\..\..\..\..\..\FreeRTOS\FreeRTOS\FreeRTOS\Source/event_groups.c **** #endif /* configSUPPORT_DYNAMIC_ALLOCATION */
 190:..\..\..\..\..\..\FreeRTOS\FreeRTOS\FreeRTOS\Source/event_groups.c **** /*-----------------------------------------------------------*/
 191:..\..\..\..\..\..\FreeRTOS\FreeRTOS\FreeRTOS\Source/event_groups.c **** 
 192:..\..\..\..\..\..\FreeRTOS\FreeRTOS\FreeRTOS\Source/event_groups.c **** EventBits_t xEventGroupSync( EventGroupHandle_t xEventGroup,
 193:..\..\..\..\..\..\FreeRTOS\FreeRTOS\FreeRTOS\Source/event_groups.c ****                              const EventBits_t uxBitsToSet,
 194:..\..\..\..\..\..\FreeRTOS\FreeRTOS\FreeRTOS\Source/event_groups.c ****                              const EventBits_t uxBitsToWaitFor,
 195:..\..\..\..\..\..\FreeRTOS\FreeRTOS\FreeRTOS\Source/event_groups.c ****                              TickType_t xTicksToWait )
 196:..\..\..\..\..\..\FreeRTOS\FreeRTOS\FreeRTOS\Source/event_groups.c **** {
 197:..\..\..\..\..\..\FreeRTOS\FreeRTOS\FreeRTOS\Source/event_groups.c ****     EventBits_t uxOriginalBitValue, uxReturn;
 198:..\..\..\..\..\..\FreeRTOS\FreeRTOS\FreeRTOS\Source/event_groups.c ****     EventGroup_t * pxEventBits = xEventGroup;
 199:..\..\..\..\..\..\FreeRTOS\FreeRTOS\FreeRTOS\Source/event_groups.c ****     BaseType_t xAlreadyYielded;
 200:..\..\..\..\..\..\FreeRTOS\FreeRTOS\FreeRTOS\Source/event_groups.c ****     BaseType_t xTimeoutOccurred = pdFALSE;
 201:..\..\..\..\..\..\FreeRTOS\FreeRTOS\FreeRTOS\Source/event_groups.c **** 
 202:..\..\..\..\..\..\FreeRTOS\FreeRTOS\FreeRTOS\Source/event_groups.c ****     configASSERT( ( uxBitsToWaitFor & eventEVENT_BITS_CONTROL_BYTES ) == 0 );
ARM GAS  C:\Users\u0036181\AppData\Local\Temp\cc3UM1Sh.s 			page 5


 203:..\..\..\..\..\..\FreeRTOS\FreeRTOS\FreeRTOS\Source/event_groups.c ****     configASSERT( uxBitsToWaitFor != 0 );
 204:..\..\..\..\..\..\FreeRTOS\FreeRTOS\FreeRTOS\Source/event_groups.c ****     #if ( ( INCLUDE_xTaskGetSchedulerState == 1 ) || ( configUSE_TIMERS == 1 ) )
 205:..\..\..\..\..\..\FreeRTOS\FreeRTOS\FreeRTOS\Source/event_groups.c ****         {
 206:..\..\..\..\..\..\FreeRTOS\FreeRTOS\FreeRTOS\Source/event_groups.c ****             configASSERT( !( ( xTaskGetSchedulerState() == taskSCHEDULER_SUSPENDED ) && ( xTicksToW
 207:..\..\..\..\..\..\FreeRTOS\FreeRTOS\FreeRTOS\Source/event_groups.c ****         }
 208:..\..\..\..\..\..\FreeRTOS\FreeRTOS\FreeRTOS\Source/event_groups.c ****     #endif
 209:..\..\..\..\..\..\FreeRTOS\FreeRTOS\FreeRTOS\Source/event_groups.c **** 
 210:..\..\..\..\..\..\FreeRTOS\FreeRTOS\FreeRTOS\Source/event_groups.c ****     vTaskSuspendAll();
 211:..\..\..\..\..\..\FreeRTOS\FreeRTOS\FreeRTOS\Source/event_groups.c ****     {
 212:..\..\..\..\..\..\FreeRTOS\FreeRTOS\FreeRTOS\Source/event_groups.c ****         uxOriginalBitValue = pxEventBits->uxEventBits;
 213:..\..\..\..\..\..\FreeRTOS\FreeRTOS\FreeRTOS\Source/event_groups.c **** 
 214:..\..\..\..\..\..\FreeRTOS\FreeRTOS\FreeRTOS\Source/event_groups.c ****         ( void ) xEventGroupSetBits( xEventGroup, uxBitsToSet );
 215:..\..\..\..\..\..\FreeRTOS\FreeRTOS\FreeRTOS\Source/event_groups.c **** 
 216:..\..\..\..\..\..\FreeRTOS\FreeRTOS\FreeRTOS\Source/event_groups.c ****         if( ( ( uxOriginalBitValue | uxBitsToSet ) & uxBitsToWaitFor ) == uxBitsToWaitFor )
 217:..\..\..\..\..\..\FreeRTOS\FreeRTOS\FreeRTOS\Source/event_groups.c ****         {
 218:..\..\..\..\..\..\FreeRTOS\FreeRTOS\FreeRTOS\Source/event_groups.c ****             /* All the rendezvous bits are now set - no need to block. */
 219:..\..\..\..\..\..\FreeRTOS\FreeRTOS\FreeRTOS\Source/event_groups.c ****             uxReturn = ( uxOriginalBitValue | uxBitsToSet );
 220:..\..\..\..\..\..\FreeRTOS\FreeRTOS\FreeRTOS\Source/event_groups.c **** 
 221:..\..\..\..\..\..\FreeRTOS\FreeRTOS\FreeRTOS\Source/event_groups.c ****             /* Rendezvous always clear the bits.  They will have been cleared
 222:..\..\..\..\..\..\FreeRTOS\FreeRTOS\FreeRTOS\Source/event_groups.c ****              * already unless this is the only task in the rendezvous. */
 223:..\..\..\..\..\..\FreeRTOS\FreeRTOS\FreeRTOS\Source/event_groups.c ****             pxEventBits->uxEventBits &= ~uxBitsToWaitFor;
 224:..\..\..\..\..\..\FreeRTOS\FreeRTOS\FreeRTOS\Source/event_groups.c **** 
 225:..\..\..\..\..\..\FreeRTOS\FreeRTOS\FreeRTOS\Source/event_groups.c ****             xTicksToWait = 0;
 226:..\..\..\..\..\..\FreeRTOS\FreeRTOS\FreeRTOS\Source/event_groups.c ****         }
 227:..\..\..\..\..\..\FreeRTOS\FreeRTOS\FreeRTOS\Source/event_groups.c ****         else
 228:..\..\..\..\..\..\FreeRTOS\FreeRTOS\FreeRTOS\Source/event_groups.c ****         {
 229:..\..\..\..\..\..\FreeRTOS\FreeRTOS\FreeRTOS\Source/event_groups.c ****             if( xTicksToWait != ( TickType_t ) 0 )
 230:..\..\..\..\..\..\FreeRTOS\FreeRTOS\FreeRTOS\Source/event_groups.c ****             {
 231:..\..\..\..\..\..\FreeRTOS\FreeRTOS\FreeRTOS\Source/event_groups.c ****                 traceEVENT_GROUP_SYNC_BLOCK( xEventGroup, uxBitsToSet, uxBitsToWaitFor );
 232:..\..\..\..\..\..\FreeRTOS\FreeRTOS\FreeRTOS\Source/event_groups.c **** 
 233:..\..\..\..\..\..\FreeRTOS\FreeRTOS\FreeRTOS\Source/event_groups.c ****                 /* Store the bits that the calling task is waiting for in the
 234:..\..\..\..\..\..\FreeRTOS\FreeRTOS\FreeRTOS\Source/event_groups.c ****                  * task's event list item so the kernel knows when a match is
 235:..\..\..\..\..\..\FreeRTOS\FreeRTOS\FreeRTOS\Source/event_groups.c ****                  * found.  Then enter the blocked state. */
 236:..\..\..\..\..\..\FreeRTOS\FreeRTOS\FreeRTOS\Source/event_groups.c ****                 vTaskPlaceOnUnorderedEventList( &( pxEventBits->xTasksWaitingForBits ), ( uxBitsToW
 237:..\..\..\..\..\..\FreeRTOS\FreeRTOS\FreeRTOS\Source/event_groups.c **** 
 238:..\..\..\..\..\..\FreeRTOS\FreeRTOS\FreeRTOS\Source/event_groups.c ****                 /* This assignment is obsolete as uxReturn will get set after
 239:..\..\..\..\..\..\FreeRTOS\FreeRTOS\FreeRTOS\Source/event_groups.c ****                  * the task unblocks, but some compilers mistakenly generate a
 240:..\..\..\..\..\..\FreeRTOS\FreeRTOS\FreeRTOS\Source/event_groups.c ****                  * warning about uxReturn being returned without being set if the
 241:..\..\..\..\..\..\FreeRTOS\FreeRTOS\FreeRTOS\Source/event_groups.c ****                  * assignment is omitted. */
 242:..\..\..\..\..\..\FreeRTOS\FreeRTOS\FreeRTOS\Source/event_groups.c ****                 uxReturn = 0;
 243:..\..\..\..\..\..\FreeRTOS\FreeRTOS\FreeRTOS\Source/event_groups.c ****             }
 244:..\..\..\..\..\..\FreeRTOS\FreeRTOS\FreeRTOS\Source/event_groups.c ****             else
 245:..\..\..\..\..\..\FreeRTOS\FreeRTOS\FreeRTOS\Source/event_groups.c ****             {
 246:..\..\..\..\..\..\FreeRTOS\FreeRTOS\FreeRTOS\Source/event_groups.c ****                 /* The rendezvous bits were not set, but no block time was
 247:..\..\..\..\..\..\FreeRTOS\FreeRTOS\FreeRTOS\Source/event_groups.c ****                  * specified - just return the current event bit value. */
 248:..\..\..\..\..\..\FreeRTOS\FreeRTOS\FreeRTOS\Source/event_groups.c ****                 uxReturn = pxEventBits->uxEventBits;
 249:..\..\..\..\..\..\FreeRTOS\FreeRTOS\FreeRTOS\Source/event_groups.c ****                 xTimeoutOccurred = pdTRUE;
 250:..\..\..\..\..\..\FreeRTOS\FreeRTOS\FreeRTOS\Source/event_groups.c ****             }
 251:..\..\..\..\..\..\FreeRTOS\FreeRTOS\FreeRTOS\Source/event_groups.c ****         }
 252:..\..\..\..\..\..\FreeRTOS\FreeRTOS\FreeRTOS\Source/event_groups.c ****     }
 253:..\..\..\..\..\..\FreeRTOS\FreeRTOS\FreeRTOS\Source/event_groups.c ****     xAlreadyYielded = xTaskResumeAll();
 254:..\..\..\..\..\..\FreeRTOS\FreeRTOS\FreeRTOS\Source/event_groups.c **** 
 255:..\..\..\..\..\..\FreeRTOS\FreeRTOS\FreeRTOS\Source/event_groups.c ****     if( xTicksToWait != ( TickType_t ) 0 )
 256:..\..\..\..\..\..\FreeRTOS\FreeRTOS\FreeRTOS\Source/event_groups.c ****     {
 257:..\..\..\..\..\..\FreeRTOS\FreeRTOS\FreeRTOS\Source/event_groups.c ****         if( xAlreadyYielded == pdFALSE )
 258:..\..\..\..\..\..\FreeRTOS\FreeRTOS\FreeRTOS\Source/event_groups.c ****         {
 259:..\..\..\..\..\..\FreeRTOS\FreeRTOS\FreeRTOS\Source/event_groups.c ****             portYIELD_WITHIN_API();
ARM GAS  C:\Users\u0036181\AppData\Local\Temp\cc3UM1Sh.s 			page 6


 260:..\..\..\..\..\..\FreeRTOS\FreeRTOS\FreeRTOS\Source/event_groups.c ****         }
 261:..\..\..\..\..\..\FreeRTOS\FreeRTOS\FreeRTOS\Source/event_groups.c ****         else
 262:..\..\..\..\..\..\FreeRTOS\FreeRTOS\FreeRTOS\Source/event_groups.c ****         {
 263:..\..\..\..\..\..\FreeRTOS\FreeRTOS\FreeRTOS\Source/event_groups.c ****             mtCOVERAGE_TEST_MARKER();
 264:..\..\..\..\..\..\FreeRTOS\FreeRTOS\FreeRTOS\Source/event_groups.c ****         }
 265:..\..\..\..\..\..\FreeRTOS\FreeRTOS\FreeRTOS\Source/event_groups.c **** 
 266:..\..\..\..\..\..\FreeRTOS\FreeRTOS\FreeRTOS\Source/event_groups.c ****         /* The task blocked to wait for its required bits to be set - at this
 267:..\..\..\..\..\..\FreeRTOS\FreeRTOS\FreeRTOS\Source/event_groups.c ****          * point either the required bits were set or the block time expired.  If
 268:..\..\..\..\..\..\FreeRTOS\FreeRTOS\FreeRTOS\Source/event_groups.c ****          * the required bits were set they will have been stored in the task's
 269:..\..\..\..\..\..\FreeRTOS\FreeRTOS\FreeRTOS\Source/event_groups.c ****          * event list item, and they should now be retrieved then cleared. */
 270:..\..\..\..\..\..\FreeRTOS\FreeRTOS\FreeRTOS\Source/event_groups.c ****         uxReturn = uxTaskResetEventItemValue();
 271:..\..\..\..\..\..\FreeRTOS\FreeRTOS\FreeRTOS\Source/event_groups.c **** 
 272:..\..\..\..\..\..\FreeRTOS\FreeRTOS\FreeRTOS\Source/event_groups.c ****         if( ( uxReturn & eventUNBLOCKED_DUE_TO_BIT_SET ) == ( EventBits_t ) 0 )
 273:..\..\..\..\..\..\FreeRTOS\FreeRTOS\FreeRTOS\Source/event_groups.c ****         {
 274:..\..\..\..\..\..\FreeRTOS\FreeRTOS\FreeRTOS\Source/event_groups.c ****             /* The task timed out, just return the current event bit value. */
 275:..\..\..\..\..\..\FreeRTOS\FreeRTOS\FreeRTOS\Source/event_groups.c ****             taskENTER_CRITICAL();
 276:..\..\..\..\..\..\FreeRTOS\FreeRTOS\FreeRTOS\Source/event_groups.c ****             {
 277:..\..\..\..\..\..\FreeRTOS\FreeRTOS\FreeRTOS\Source/event_groups.c ****                 uxReturn = pxEventBits->uxEventBits;
 278:..\..\..\..\..\..\FreeRTOS\FreeRTOS\FreeRTOS\Source/event_groups.c **** 
 279:..\..\..\..\..\..\FreeRTOS\FreeRTOS\FreeRTOS\Source/event_groups.c ****                 /* Although the task got here because it timed out before the
 280:..\..\..\..\..\..\FreeRTOS\FreeRTOS\FreeRTOS\Source/event_groups.c ****                  * bits it was waiting for were set, it is possible that since it
 281:..\..\..\..\..\..\FreeRTOS\FreeRTOS\FreeRTOS\Source/event_groups.c ****                  * unblocked another task has set the bits.  If this is the case
 282:..\..\..\..\..\..\FreeRTOS\FreeRTOS\FreeRTOS\Source/event_groups.c ****                  * then it needs to clear the bits before exiting. */
 283:..\..\..\..\..\..\FreeRTOS\FreeRTOS\FreeRTOS\Source/event_groups.c ****                 if( ( uxReturn & uxBitsToWaitFor ) == uxBitsToWaitFor )
 284:..\..\..\..\..\..\FreeRTOS\FreeRTOS\FreeRTOS\Source/event_groups.c ****                 {
 285:..\..\..\..\..\..\FreeRTOS\FreeRTOS\FreeRTOS\Source/event_groups.c ****                     pxEventBits->uxEventBits &= ~uxBitsToWaitFor;
 286:..\..\..\..\..\..\FreeRTOS\FreeRTOS\FreeRTOS\Source/event_groups.c ****                 }
 287:..\..\..\..\..\..\FreeRTOS\FreeRTOS\FreeRTOS\Source/event_groups.c ****                 else
 288:..\..\..\..\..\..\FreeRTOS\FreeRTOS\FreeRTOS\Source/event_groups.c ****                 {
 289:..\..\..\..\..\..\FreeRTOS\FreeRTOS\FreeRTOS\Source/event_groups.c ****                     mtCOVERAGE_TEST_MARKER();
 290:..\..\..\..\..\..\FreeRTOS\FreeRTOS\FreeRTOS\Source/event_groups.c ****                 }
 291:..\..\..\..\..\..\FreeRTOS\FreeRTOS\FreeRTOS\Source/event_groups.c ****             }
 292:..\..\..\..\..\..\FreeRTOS\FreeRTOS\FreeRTOS\Source/event_groups.c ****             taskEXIT_CRITICAL();
 293:..\..\..\..\..\..\FreeRTOS\FreeRTOS\FreeRTOS\Source/event_groups.c **** 
 294:..\..\..\..\..\..\FreeRTOS\FreeRTOS\FreeRTOS\Source/event_groups.c ****             xTimeoutOccurred = pdTRUE;
 295:..\..\..\..\..\..\FreeRTOS\FreeRTOS\FreeRTOS\Source/event_groups.c ****         }
 296:..\..\..\..\..\..\FreeRTOS\FreeRTOS\FreeRTOS\Source/event_groups.c ****         else
 297:..\..\..\..\..\..\FreeRTOS\FreeRTOS\FreeRTOS\Source/event_groups.c ****         {
 298:..\..\..\..\..\..\FreeRTOS\FreeRTOS\FreeRTOS\Source/event_groups.c ****             /* The task unblocked because the bits were set. */
 299:..\..\..\..\..\..\FreeRTOS\FreeRTOS\FreeRTOS\Source/event_groups.c ****         }
 300:..\..\..\..\..\..\FreeRTOS\FreeRTOS\FreeRTOS\Source/event_groups.c **** 
 301:..\..\..\..\..\..\FreeRTOS\FreeRTOS\FreeRTOS\Source/event_groups.c ****         /* Control bits might be set as the task had blocked should not be
 302:..\..\..\..\..\..\FreeRTOS\FreeRTOS\FreeRTOS\Source/event_groups.c ****          * returned. */
 303:..\..\..\..\..\..\FreeRTOS\FreeRTOS\FreeRTOS\Source/event_groups.c ****         uxReturn &= ~eventEVENT_BITS_CONTROL_BYTES;
 304:..\..\..\..\..\..\FreeRTOS\FreeRTOS\FreeRTOS\Source/event_groups.c ****     }
 305:..\..\..\..\..\..\FreeRTOS\FreeRTOS\FreeRTOS\Source/event_groups.c **** 
 306:..\..\..\..\..\..\FreeRTOS\FreeRTOS\FreeRTOS\Source/event_groups.c ****     traceEVENT_GROUP_SYNC_END( xEventGroup, uxBitsToSet, uxBitsToWaitFor, xTimeoutOccurred );
 307:..\..\..\..\..\..\FreeRTOS\FreeRTOS\FreeRTOS\Source/event_groups.c **** 
 308:..\..\..\..\..\..\FreeRTOS\FreeRTOS\FreeRTOS\Source/event_groups.c ****     /* Prevent compiler warnings when trace macros are not used. */
 309:..\..\..\..\..\..\FreeRTOS\FreeRTOS\FreeRTOS\Source/event_groups.c ****     ( void ) xTimeoutOccurred;
 310:..\..\..\..\..\..\FreeRTOS\FreeRTOS\FreeRTOS\Source/event_groups.c **** 
 311:..\..\..\..\..\..\FreeRTOS\FreeRTOS\FreeRTOS\Source/event_groups.c ****     return uxReturn;
 312:..\..\..\..\..\..\FreeRTOS\FreeRTOS\FreeRTOS\Source/event_groups.c **** }
 313:..\..\..\..\..\..\FreeRTOS\FreeRTOS\FreeRTOS\Source/event_groups.c **** /*-----------------------------------------------------------*/
 314:..\..\..\..\..\..\FreeRTOS\FreeRTOS\FreeRTOS\Source/event_groups.c **** 
 315:..\..\..\..\..\..\FreeRTOS\FreeRTOS\FreeRTOS\Source/event_groups.c **** EventBits_t xEventGroupWaitBits( EventGroupHandle_t xEventGroup,
 316:..\..\..\..\..\..\FreeRTOS\FreeRTOS\FreeRTOS\Source/event_groups.c ****                                  const EventBits_t uxBitsToWaitFor,
ARM GAS  C:\Users\u0036181\AppData\Local\Temp\cc3UM1Sh.s 			page 7


 317:..\..\..\..\..\..\FreeRTOS\FreeRTOS\FreeRTOS\Source/event_groups.c ****                                  const BaseType_t xClearOnExit,
 318:..\..\..\..\..\..\FreeRTOS\FreeRTOS\FreeRTOS\Source/event_groups.c ****                                  const BaseType_t xWaitForAllBits,
 319:..\..\..\..\..\..\FreeRTOS\FreeRTOS\FreeRTOS\Source/event_groups.c ****                                  TickType_t xTicksToWait )
 320:..\..\..\..\..\..\FreeRTOS\FreeRTOS\FreeRTOS\Source/event_groups.c **** {
 321:..\..\..\..\..\..\FreeRTOS\FreeRTOS\FreeRTOS\Source/event_groups.c ****     EventGroup_t * pxEventBits = xEventGroup;
 322:..\..\..\..\..\..\FreeRTOS\FreeRTOS\FreeRTOS\Source/event_groups.c ****     EventBits_t uxReturn, uxControlBits = 0;
 323:..\..\..\..\..\..\FreeRTOS\FreeRTOS\FreeRTOS\Source/event_groups.c ****     BaseType_t xWaitConditionMet, xAlreadyYielded;
 324:..\..\..\..\..\..\FreeRTOS\FreeRTOS\FreeRTOS\Source/event_groups.c ****     BaseType_t xTimeoutOccurred = pdFALSE;
 325:..\..\..\..\..\..\FreeRTOS\FreeRTOS\FreeRTOS\Source/event_groups.c **** 
 326:..\..\..\..\..\..\FreeRTOS\FreeRTOS\FreeRTOS\Source/event_groups.c ****     /* Check the user is not attempting to wait on the bits used by the kernel
 327:..\..\..\..\..\..\FreeRTOS\FreeRTOS\FreeRTOS\Source/event_groups.c ****      * itself, and that at least one bit is being requested. */
 328:..\..\..\..\..\..\FreeRTOS\FreeRTOS\FreeRTOS\Source/event_groups.c ****     configASSERT( xEventGroup );
 329:..\..\..\..\..\..\FreeRTOS\FreeRTOS\FreeRTOS\Source/event_groups.c ****     configASSERT( ( uxBitsToWaitFor & eventEVENT_BITS_CONTROL_BYTES ) == 0 );
 330:..\..\..\..\..\..\FreeRTOS\FreeRTOS\FreeRTOS\Source/event_groups.c ****     configASSERT( uxBitsToWaitFor != 0 );
 331:..\..\..\..\..\..\FreeRTOS\FreeRTOS\FreeRTOS\Source/event_groups.c ****     #if ( ( INCLUDE_xTaskGetSchedulerState == 1 ) || ( configUSE_TIMERS == 1 ) )
 332:..\..\..\..\..\..\FreeRTOS\FreeRTOS\FreeRTOS\Source/event_groups.c ****         {
 333:..\..\..\..\..\..\FreeRTOS\FreeRTOS\FreeRTOS\Source/event_groups.c ****             configASSERT( !( ( xTaskGetSchedulerState() == taskSCHEDULER_SUSPENDED ) && ( xTicksToW
 334:..\..\..\..\..\..\FreeRTOS\FreeRTOS\FreeRTOS\Source/event_groups.c ****         }
 335:..\..\..\..\..\..\FreeRTOS\FreeRTOS\FreeRTOS\Source/event_groups.c ****     #endif
 336:..\..\..\..\..\..\FreeRTOS\FreeRTOS\FreeRTOS\Source/event_groups.c **** 
 337:..\..\..\..\..\..\FreeRTOS\FreeRTOS\FreeRTOS\Source/event_groups.c ****     vTaskSuspendAll();
 338:..\..\..\..\..\..\FreeRTOS\FreeRTOS\FreeRTOS\Source/event_groups.c ****     {
 339:..\..\..\..\..\..\FreeRTOS\FreeRTOS\FreeRTOS\Source/event_groups.c ****         const EventBits_t uxCurrentEventBits = pxEventBits->uxEventBits;
 340:..\..\..\..\..\..\FreeRTOS\FreeRTOS\FreeRTOS\Source/event_groups.c **** 
 341:..\..\..\..\..\..\FreeRTOS\FreeRTOS\FreeRTOS\Source/event_groups.c ****         /* Check to see if the wait condition is already met or not. */
 342:..\..\..\..\..\..\FreeRTOS\FreeRTOS\FreeRTOS\Source/event_groups.c ****         xWaitConditionMet = prvTestWaitCondition( uxCurrentEventBits, uxBitsToWaitFor, xWaitForAllB
 343:..\..\..\..\..\..\FreeRTOS\FreeRTOS\FreeRTOS\Source/event_groups.c **** 
 344:..\..\..\..\..\..\FreeRTOS\FreeRTOS\FreeRTOS\Source/event_groups.c ****         if( xWaitConditionMet != pdFALSE )
 345:..\..\..\..\..\..\FreeRTOS\FreeRTOS\FreeRTOS\Source/event_groups.c ****         {
 346:..\..\..\..\..\..\FreeRTOS\FreeRTOS\FreeRTOS\Source/event_groups.c ****             /* The wait condition has already been met so there is no need to
 347:..\..\..\..\..\..\FreeRTOS\FreeRTOS\FreeRTOS\Source/event_groups.c ****              * block. */
 348:..\..\..\..\..\..\FreeRTOS\FreeRTOS\FreeRTOS\Source/event_groups.c ****             uxReturn = uxCurrentEventBits;
 349:..\..\..\..\..\..\FreeRTOS\FreeRTOS\FreeRTOS\Source/event_groups.c ****             xTicksToWait = ( TickType_t ) 0;
 350:..\..\..\..\..\..\FreeRTOS\FreeRTOS\FreeRTOS\Source/event_groups.c **** 
 351:..\..\..\..\..\..\FreeRTOS\FreeRTOS\FreeRTOS\Source/event_groups.c ****             /* Clear the wait bits if requested to do so. */
 352:..\..\..\..\..\..\FreeRTOS\FreeRTOS\FreeRTOS\Source/event_groups.c ****             if( xClearOnExit != pdFALSE )
 353:..\..\..\..\..\..\FreeRTOS\FreeRTOS\FreeRTOS\Source/event_groups.c ****             {
 354:..\..\..\..\..\..\FreeRTOS\FreeRTOS\FreeRTOS\Source/event_groups.c ****                 pxEventBits->uxEventBits &= ~uxBitsToWaitFor;
 355:..\..\..\..\..\..\FreeRTOS\FreeRTOS\FreeRTOS\Source/event_groups.c ****             }
 356:..\..\..\..\..\..\FreeRTOS\FreeRTOS\FreeRTOS\Source/event_groups.c ****             else
 357:..\..\..\..\..\..\FreeRTOS\FreeRTOS\FreeRTOS\Source/event_groups.c ****             {
 358:..\..\..\..\..\..\FreeRTOS\FreeRTOS\FreeRTOS\Source/event_groups.c ****                 mtCOVERAGE_TEST_MARKER();
 359:..\..\..\..\..\..\FreeRTOS\FreeRTOS\FreeRTOS\Source/event_groups.c ****             }
 360:..\..\..\..\..\..\FreeRTOS\FreeRTOS\FreeRTOS\Source/event_groups.c ****         }
 361:..\..\..\..\..\..\FreeRTOS\FreeRTOS\FreeRTOS\Source/event_groups.c ****         else if( xTicksToWait == ( TickType_t ) 0 )
 362:..\..\..\..\..\..\FreeRTOS\FreeRTOS\FreeRTOS\Source/event_groups.c ****         {
 363:..\..\..\..\..\..\FreeRTOS\FreeRTOS\FreeRTOS\Source/event_groups.c ****             /* The wait condition has not been met, but no block time was
 364:..\..\..\..\..\..\FreeRTOS\FreeRTOS\FreeRTOS\Source/event_groups.c ****              * specified, so just return the current value. */
 365:..\..\..\..\..\..\FreeRTOS\FreeRTOS\FreeRTOS\Source/event_groups.c ****             uxReturn = uxCurrentEventBits;
 366:..\..\..\..\..\..\FreeRTOS\FreeRTOS\FreeRTOS\Source/event_groups.c ****             xTimeoutOccurred = pdTRUE;
 367:..\..\..\..\..\..\FreeRTOS\FreeRTOS\FreeRTOS\Source/event_groups.c ****         }
 368:..\..\..\..\..\..\FreeRTOS\FreeRTOS\FreeRTOS\Source/event_groups.c ****         else
 369:..\..\..\..\..\..\FreeRTOS\FreeRTOS\FreeRTOS\Source/event_groups.c ****         {
 370:..\..\..\..\..\..\FreeRTOS\FreeRTOS\FreeRTOS\Source/event_groups.c ****             /* The task is going to block to wait for its required bits to be
 371:..\..\..\..\..\..\FreeRTOS\FreeRTOS\FreeRTOS\Source/event_groups.c ****              * set.  uxControlBits are used to remember the specified behaviour of
 372:..\..\..\..\..\..\FreeRTOS\FreeRTOS\FreeRTOS\Source/event_groups.c ****              * this call to xEventGroupWaitBits() - for use when the event bits
 373:..\..\..\..\..\..\FreeRTOS\FreeRTOS\FreeRTOS\Source/event_groups.c ****              * unblock the task. */
ARM GAS  C:\Users\u0036181\AppData\Local\Temp\cc3UM1Sh.s 			page 8


 374:..\..\..\..\..\..\FreeRTOS\FreeRTOS\FreeRTOS\Source/event_groups.c ****             if( xClearOnExit != pdFALSE )
 375:..\..\..\..\..\..\FreeRTOS\FreeRTOS\FreeRTOS\Source/event_groups.c ****             {
 376:..\..\..\..\..\..\FreeRTOS\FreeRTOS\FreeRTOS\Source/event_groups.c ****                 uxControlBits |= eventCLEAR_EVENTS_ON_EXIT_BIT;
 377:..\..\..\..\..\..\FreeRTOS\FreeRTOS\FreeRTOS\Source/event_groups.c ****             }
 378:..\..\..\..\..\..\FreeRTOS\FreeRTOS\FreeRTOS\Source/event_groups.c ****             else
 379:..\..\..\..\..\..\FreeRTOS\FreeRTOS\FreeRTOS\Source/event_groups.c ****             {
 380:..\..\..\..\..\..\FreeRTOS\FreeRTOS\FreeRTOS\Source/event_groups.c ****                 mtCOVERAGE_TEST_MARKER();
 381:..\..\..\..\..\..\FreeRTOS\FreeRTOS\FreeRTOS\Source/event_groups.c ****             }
 382:..\..\..\..\..\..\FreeRTOS\FreeRTOS\FreeRTOS\Source/event_groups.c **** 
 383:..\..\..\..\..\..\FreeRTOS\FreeRTOS\FreeRTOS\Source/event_groups.c ****             if( xWaitForAllBits != pdFALSE )
 384:..\..\..\..\..\..\FreeRTOS\FreeRTOS\FreeRTOS\Source/event_groups.c ****             {
 385:..\..\..\..\..\..\FreeRTOS\FreeRTOS\FreeRTOS\Source/event_groups.c ****                 uxControlBits |= eventWAIT_FOR_ALL_BITS;
 386:..\..\..\..\..\..\FreeRTOS\FreeRTOS\FreeRTOS\Source/event_groups.c ****             }
 387:..\..\..\..\..\..\FreeRTOS\FreeRTOS\FreeRTOS\Source/event_groups.c ****             else
 388:..\..\..\..\..\..\FreeRTOS\FreeRTOS\FreeRTOS\Source/event_groups.c ****             {
 389:..\..\..\..\..\..\FreeRTOS\FreeRTOS\FreeRTOS\Source/event_groups.c ****                 mtCOVERAGE_TEST_MARKER();
 390:..\..\..\..\..\..\FreeRTOS\FreeRTOS\FreeRTOS\Source/event_groups.c ****             }
 391:..\..\..\..\..\..\FreeRTOS\FreeRTOS\FreeRTOS\Source/event_groups.c **** 
 392:..\..\..\..\..\..\FreeRTOS\FreeRTOS\FreeRTOS\Source/event_groups.c ****             /* Store the bits that the calling task is waiting for in the
 393:..\..\..\..\..\..\FreeRTOS\FreeRTOS\FreeRTOS\Source/event_groups.c ****              * task's event list item so the kernel knows when a match is
 394:..\..\..\..\..\..\FreeRTOS\FreeRTOS\FreeRTOS\Source/event_groups.c ****              * found.  Then enter the blocked state. */
 395:..\..\..\..\..\..\FreeRTOS\FreeRTOS\FreeRTOS\Source/event_groups.c ****             vTaskPlaceOnUnorderedEventList( &( pxEventBits->xTasksWaitingForBits ), ( uxBitsToWaitF
 396:..\..\..\..\..\..\FreeRTOS\FreeRTOS\FreeRTOS\Source/event_groups.c **** 
 397:..\..\..\..\..\..\FreeRTOS\FreeRTOS\FreeRTOS\Source/event_groups.c ****             /* This is obsolete as it will get set after the task unblocks, but
 398:..\..\..\..\..\..\FreeRTOS\FreeRTOS\FreeRTOS\Source/event_groups.c ****              * some compilers mistakenly generate a warning about the variable
 399:..\..\..\..\..\..\FreeRTOS\FreeRTOS\FreeRTOS\Source/event_groups.c ****              * being returned without being set if it is not done. */
 400:..\..\..\..\..\..\FreeRTOS\FreeRTOS\FreeRTOS\Source/event_groups.c ****             uxReturn = 0;
 401:..\..\..\..\..\..\FreeRTOS\FreeRTOS\FreeRTOS\Source/event_groups.c **** 
 402:..\..\..\..\..\..\FreeRTOS\FreeRTOS\FreeRTOS\Source/event_groups.c ****             traceEVENT_GROUP_WAIT_BITS_BLOCK( xEventGroup, uxBitsToWaitFor );
 403:..\..\..\..\..\..\FreeRTOS\FreeRTOS\FreeRTOS\Source/event_groups.c ****         }
 404:..\..\..\..\..\..\FreeRTOS\FreeRTOS\FreeRTOS\Source/event_groups.c ****     }
 405:..\..\..\..\..\..\FreeRTOS\FreeRTOS\FreeRTOS\Source/event_groups.c ****     xAlreadyYielded = xTaskResumeAll();
 406:..\..\..\..\..\..\FreeRTOS\FreeRTOS\FreeRTOS\Source/event_groups.c **** 
 407:..\..\..\..\..\..\FreeRTOS\FreeRTOS\FreeRTOS\Source/event_groups.c ****     if( xTicksToWait != ( TickType_t ) 0 )
 408:..\..\..\..\..\..\FreeRTOS\FreeRTOS\FreeRTOS\Source/event_groups.c ****     {
 409:..\..\..\..\..\..\FreeRTOS\FreeRTOS\FreeRTOS\Source/event_groups.c ****         if( xAlreadyYielded == pdFALSE )
 410:..\..\..\..\..\..\FreeRTOS\FreeRTOS\FreeRTOS\Source/event_groups.c ****         {
 411:..\..\..\..\..\..\FreeRTOS\FreeRTOS\FreeRTOS\Source/event_groups.c ****             portYIELD_WITHIN_API();
 412:..\..\..\..\..\..\FreeRTOS\FreeRTOS\FreeRTOS\Source/event_groups.c ****         }
 413:..\..\..\..\..\..\FreeRTOS\FreeRTOS\FreeRTOS\Source/event_groups.c ****         else
 414:..\..\..\..\..\..\FreeRTOS\FreeRTOS\FreeRTOS\Source/event_groups.c ****         {
 415:..\..\..\..\..\..\FreeRTOS\FreeRTOS\FreeRTOS\Source/event_groups.c ****             mtCOVERAGE_TEST_MARKER();
 416:..\..\..\..\..\..\FreeRTOS\FreeRTOS\FreeRTOS\Source/event_groups.c ****         }
 417:..\..\..\..\..\..\FreeRTOS\FreeRTOS\FreeRTOS\Source/event_groups.c **** 
 418:..\..\..\..\..\..\FreeRTOS\FreeRTOS\FreeRTOS\Source/event_groups.c ****         /* The task blocked to wait for its required bits to be set - at this
 419:..\..\..\..\..\..\FreeRTOS\FreeRTOS\FreeRTOS\Source/event_groups.c ****          * point either the required bits were set or the block time expired.  If
 420:..\..\..\..\..\..\FreeRTOS\FreeRTOS\FreeRTOS\Source/event_groups.c ****          * the required bits were set they will have been stored in the task's
 421:..\..\..\..\..\..\FreeRTOS\FreeRTOS\FreeRTOS\Source/event_groups.c ****          * event list item, and they should now be retrieved then cleared. */
 422:..\..\..\..\..\..\FreeRTOS\FreeRTOS\FreeRTOS\Source/event_groups.c ****         uxReturn = uxTaskResetEventItemValue();
 423:..\..\..\..\..\..\FreeRTOS\FreeRTOS\FreeRTOS\Source/event_groups.c **** 
 424:..\..\..\..\..\..\FreeRTOS\FreeRTOS\FreeRTOS\Source/event_groups.c ****         if( ( uxReturn & eventUNBLOCKED_DUE_TO_BIT_SET ) == ( EventBits_t ) 0 )
 425:..\..\..\..\..\..\FreeRTOS\FreeRTOS\FreeRTOS\Source/event_groups.c ****         {
 426:..\..\..\..\..\..\FreeRTOS\FreeRTOS\FreeRTOS\Source/event_groups.c ****             taskENTER_CRITICAL();
 427:..\..\..\..\..\..\FreeRTOS\FreeRTOS\FreeRTOS\Source/event_groups.c ****             {
 428:..\..\..\..\..\..\FreeRTOS\FreeRTOS\FreeRTOS\Source/event_groups.c ****                 /* The task timed out, just return the current event bit value. */
 429:..\..\..\..\..\..\FreeRTOS\FreeRTOS\FreeRTOS\Source/event_groups.c ****                 uxReturn = pxEventBits->uxEventBits;
 430:..\..\..\..\..\..\FreeRTOS\FreeRTOS\FreeRTOS\Source/event_groups.c **** 
ARM GAS  C:\Users\u0036181\AppData\Local\Temp\cc3UM1Sh.s 			page 9


 431:..\..\..\..\..\..\FreeRTOS\FreeRTOS\FreeRTOS\Source/event_groups.c ****                 /* It is possible that the event bits were updated between this
 432:..\..\..\..\..\..\FreeRTOS\FreeRTOS\FreeRTOS\Source/event_groups.c ****                  * task leaving the Blocked state and running again. */
 433:..\..\..\..\..\..\FreeRTOS\FreeRTOS\FreeRTOS\Source/event_groups.c ****                 if( prvTestWaitCondition( uxReturn, uxBitsToWaitFor, xWaitForAllBits ) != pdFALSE )
 434:..\..\..\..\..\..\FreeRTOS\FreeRTOS\FreeRTOS\Source/event_groups.c ****                 {
 435:..\..\..\..\..\..\FreeRTOS\FreeRTOS\FreeRTOS\Source/event_groups.c ****                     if( xClearOnExit != pdFALSE )
 436:..\..\..\..\..\..\FreeRTOS\FreeRTOS\FreeRTOS\Source/event_groups.c ****                     {
 437:..\..\..\..\..\..\FreeRTOS\FreeRTOS\FreeRTOS\Source/event_groups.c ****                         pxEventBits->uxEventBits &= ~uxBitsToWaitFor;
 438:..\..\..\..\..\..\FreeRTOS\FreeRTOS\FreeRTOS\Source/event_groups.c ****                     }
 439:..\..\..\..\..\..\FreeRTOS\FreeRTOS\FreeRTOS\Source/event_groups.c ****                     else
 440:..\..\..\..\..\..\FreeRTOS\FreeRTOS\FreeRTOS\Source/event_groups.c ****                     {
 441:..\..\..\..\..\..\FreeRTOS\FreeRTOS\FreeRTOS\Source/event_groups.c ****                         mtCOVERAGE_TEST_MARKER();
 442:..\..\..\..\..\..\FreeRTOS\FreeRTOS\FreeRTOS\Source/event_groups.c ****                     }
 443:..\..\..\..\..\..\FreeRTOS\FreeRTOS\FreeRTOS\Source/event_groups.c ****                 }
 444:..\..\..\..\..\..\FreeRTOS\FreeRTOS\FreeRTOS\Source/event_groups.c ****                 else
 445:..\..\..\..\..\..\FreeRTOS\FreeRTOS\FreeRTOS\Source/event_groups.c ****                 {
 446:..\..\..\..\..\..\FreeRTOS\FreeRTOS\FreeRTOS\Source/event_groups.c ****                     mtCOVERAGE_TEST_MARKER();
 447:..\..\..\..\..\..\FreeRTOS\FreeRTOS\FreeRTOS\Source/event_groups.c ****                 }
 448:..\..\..\..\..\..\FreeRTOS\FreeRTOS\FreeRTOS\Source/event_groups.c **** 
 449:..\..\..\..\..\..\FreeRTOS\FreeRTOS\FreeRTOS\Source/event_groups.c ****                 xTimeoutOccurred = pdTRUE;
 450:..\..\..\..\..\..\FreeRTOS\FreeRTOS\FreeRTOS\Source/event_groups.c ****             }
 451:..\..\..\..\..\..\FreeRTOS\FreeRTOS\FreeRTOS\Source/event_groups.c ****             taskEXIT_CRITICAL();
 452:..\..\..\..\..\..\FreeRTOS\FreeRTOS\FreeRTOS\Source/event_groups.c ****         }
 453:..\..\..\..\..\..\FreeRTOS\FreeRTOS\FreeRTOS\Source/event_groups.c ****         else
 454:..\..\..\..\..\..\FreeRTOS\FreeRTOS\FreeRTOS\Source/event_groups.c ****         {
 455:..\..\..\..\..\..\FreeRTOS\FreeRTOS\FreeRTOS\Source/event_groups.c ****             /* The task unblocked because the bits were set. */
 456:..\..\..\..\..\..\FreeRTOS\FreeRTOS\FreeRTOS\Source/event_groups.c ****         }
 457:..\..\..\..\..\..\FreeRTOS\FreeRTOS\FreeRTOS\Source/event_groups.c **** 
 458:..\..\..\..\..\..\FreeRTOS\FreeRTOS\FreeRTOS\Source/event_groups.c ****         /* The task blocked so control bits may have been set. */
 459:..\..\..\..\..\..\FreeRTOS\FreeRTOS\FreeRTOS\Source/event_groups.c ****         uxReturn &= ~eventEVENT_BITS_CONTROL_BYTES;
 460:..\..\..\..\..\..\FreeRTOS\FreeRTOS\FreeRTOS\Source/event_groups.c ****     }
 461:..\..\..\..\..\..\FreeRTOS\FreeRTOS\FreeRTOS\Source/event_groups.c **** 
 462:..\..\..\..\..\..\FreeRTOS\FreeRTOS\FreeRTOS\Source/event_groups.c ****     traceEVENT_GROUP_WAIT_BITS_END( xEventGroup, uxBitsToWaitFor, xTimeoutOccurred );
 463:..\..\..\..\..\..\FreeRTOS\FreeRTOS\FreeRTOS\Source/event_groups.c **** 
 464:..\..\..\..\..\..\FreeRTOS\FreeRTOS\FreeRTOS\Source/event_groups.c ****     /* Prevent compiler warnings when trace macros are not used. */
 465:..\..\..\..\..\..\FreeRTOS\FreeRTOS\FreeRTOS\Source/event_groups.c ****     ( void ) xTimeoutOccurred;
 466:..\..\..\..\..\..\FreeRTOS\FreeRTOS\FreeRTOS\Source/event_groups.c **** 
 467:..\..\..\..\..\..\FreeRTOS\FreeRTOS\FreeRTOS\Source/event_groups.c ****     return uxReturn;
 468:..\..\..\..\..\..\FreeRTOS\FreeRTOS\FreeRTOS\Source/event_groups.c **** }
 469:..\..\..\..\..\..\FreeRTOS\FreeRTOS\FreeRTOS\Source/event_groups.c **** /*-----------------------------------------------------------*/
 470:..\..\..\..\..\..\FreeRTOS\FreeRTOS\FreeRTOS\Source/event_groups.c **** 
 471:..\..\..\..\..\..\FreeRTOS\FreeRTOS\FreeRTOS\Source/event_groups.c **** EventBits_t xEventGroupClearBits( EventGroupHandle_t xEventGroup,
 472:..\..\..\..\..\..\FreeRTOS\FreeRTOS\FreeRTOS\Source/event_groups.c ****                                   const EventBits_t uxBitsToClear )
 473:..\..\..\..\..\..\FreeRTOS\FreeRTOS\FreeRTOS\Source/event_groups.c **** {
 474:..\..\..\..\..\..\FreeRTOS\FreeRTOS\FreeRTOS\Source/event_groups.c ****     EventGroup_t * pxEventBits = xEventGroup;
 475:..\..\..\..\..\..\FreeRTOS\FreeRTOS\FreeRTOS\Source/event_groups.c ****     EventBits_t uxReturn;
 476:..\..\..\..\..\..\FreeRTOS\FreeRTOS\FreeRTOS\Source/event_groups.c **** 
 477:..\..\..\..\..\..\FreeRTOS\FreeRTOS\FreeRTOS\Source/event_groups.c ****     /* Check the user is not attempting to clear the bits used by the kernel
 478:..\..\..\..\..\..\FreeRTOS\FreeRTOS\FreeRTOS\Source/event_groups.c ****      * itself. */
 479:..\..\..\..\..\..\FreeRTOS\FreeRTOS\FreeRTOS\Source/event_groups.c ****     configASSERT( xEventGroup );
 480:..\..\..\..\..\..\FreeRTOS\FreeRTOS\FreeRTOS\Source/event_groups.c ****     configASSERT( ( uxBitsToClear & eventEVENT_BITS_CONTROL_BYTES ) == 0 );
 481:..\..\..\..\..\..\FreeRTOS\FreeRTOS\FreeRTOS\Source/event_groups.c **** 
 482:..\..\..\..\..\..\FreeRTOS\FreeRTOS\FreeRTOS\Source/event_groups.c ****     taskENTER_CRITICAL();
 483:..\..\..\..\..\..\FreeRTOS\FreeRTOS\FreeRTOS\Source/event_groups.c ****     {
 484:..\..\..\..\..\..\FreeRTOS\FreeRTOS\FreeRTOS\Source/event_groups.c ****         traceEVENT_GROUP_CLEAR_BITS( xEventGroup, uxBitsToClear );
 485:..\..\..\..\..\..\FreeRTOS\FreeRTOS\FreeRTOS\Source/event_groups.c **** 
 486:..\..\..\..\..\..\FreeRTOS\FreeRTOS\FreeRTOS\Source/event_groups.c ****         /* The value returned is the event group value prior to the bits being
 487:..\..\..\..\..\..\FreeRTOS\FreeRTOS\FreeRTOS\Source/event_groups.c ****          * cleared. */
ARM GAS  C:\Users\u0036181\AppData\Local\Temp\cc3UM1Sh.s 			page 10


 488:..\..\..\..\..\..\FreeRTOS\FreeRTOS\FreeRTOS\Source/event_groups.c ****         uxReturn = pxEventBits->uxEventBits;
 489:..\..\..\..\..\..\FreeRTOS\FreeRTOS\FreeRTOS\Source/event_groups.c **** 
 490:..\..\..\..\..\..\FreeRTOS\FreeRTOS\FreeRTOS\Source/event_groups.c ****         /* Clear the bits. */
 491:..\..\..\..\..\..\FreeRTOS\FreeRTOS\FreeRTOS\Source/event_groups.c ****         pxEventBits->uxEventBits &= ~uxBitsToClear;
 492:..\..\..\..\..\..\FreeRTOS\FreeRTOS\FreeRTOS\Source/event_groups.c ****     }
 493:..\..\..\..\..\..\FreeRTOS\FreeRTOS\FreeRTOS\Source/event_groups.c ****     taskEXIT_CRITICAL();
 494:..\..\..\..\..\..\FreeRTOS\FreeRTOS\FreeRTOS\Source/event_groups.c **** 
 495:..\..\..\..\..\..\FreeRTOS\FreeRTOS\FreeRTOS\Source/event_groups.c ****     return uxReturn;
 496:..\..\..\..\..\..\FreeRTOS\FreeRTOS\FreeRTOS\Source/event_groups.c **** }
 497:..\..\..\..\..\..\FreeRTOS\FreeRTOS\FreeRTOS\Source/event_groups.c **** /*-----------------------------------------------------------*/
 498:..\..\..\..\..\..\FreeRTOS\FreeRTOS\FreeRTOS\Source/event_groups.c **** 
 499:..\..\..\..\..\..\FreeRTOS\FreeRTOS\FreeRTOS\Source/event_groups.c **** #if ( ( configUSE_TRACE_FACILITY == 1 ) && ( INCLUDE_xTimerPendFunctionCall == 1 ) && ( configUSE_T
 500:..\..\..\..\..\..\FreeRTOS\FreeRTOS\FreeRTOS\Source/event_groups.c **** 
 501:..\..\..\..\..\..\FreeRTOS\FreeRTOS\FreeRTOS\Source/event_groups.c ****     BaseType_t xEventGroupClearBitsFromISR( EventGroupHandle_t xEventGroup,
 502:..\..\..\..\..\..\FreeRTOS\FreeRTOS\FreeRTOS\Source/event_groups.c ****                                             const EventBits_t uxBitsToClear )
 503:..\..\..\..\..\..\FreeRTOS\FreeRTOS\FreeRTOS\Source/event_groups.c ****     {
 504:..\..\..\..\..\..\FreeRTOS\FreeRTOS\FreeRTOS\Source/event_groups.c ****         BaseType_t xReturn;
 505:..\..\..\..\..\..\FreeRTOS\FreeRTOS\FreeRTOS\Source/event_groups.c **** 
 506:..\..\..\..\..\..\FreeRTOS\FreeRTOS\FreeRTOS\Source/event_groups.c ****         traceEVENT_GROUP_CLEAR_BITS_FROM_ISR( xEventGroup, uxBitsToClear );
 507:..\..\..\..\..\..\FreeRTOS\FreeRTOS\FreeRTOS\Source/event_groups.c ****         xReturn = xTimerPendFunctionCallFromISR( vEventGroupClearBitsCallback, ( void * ) xEventGro
 508:..\..\..\..\..\..\FreeRTOS\FreeRTOS\FreeRTOS\Source/event_groups.c **** 
 509:..\..\..\..\..\..\FreeRTOS\FreeRTOS\FreeRTOS\Source/event_groups.c ****         return xReturn;
 510:..\..\..\..\..\..\FreeRTOS\FreeRTOS\FreeRTOS\Source/event_groups.c ****     }
 511:..\..\..\..\..\..\FreeRTOS\FreeRTOS\FreeRTOS\Source/event_groups.c **** 
 512:..\..\..\..\..\..\FreeRTOS\FreeRTOS\FreeRTOS\Source/event_groups.c **** #endif /* if ( ( configUSE_TRACE_FACILITY == 1 ) && ( INCLUDE_xTimerPendFunctionCall == 1 ) && ( co
 513:..\..\..\..\..\..\FreeRTOS\FreeRTOS\FreeRTOS\Source/event_groups.c **** /*-----------------------------------------------------------*/
 514:..\..\..\..\..\..\FreeRTOS\FreeRTOS\FreeRTOS\Source/event_groups.c **** 
 515:..\..\..\..\..\..\FreeRTOS\FreeRTOS\FreeRTOS\Source/event_groups.c **** EventBits_t xEventGroupGetBitsFromISR( EventGroupHandle_t xEventGroup )
 516:..\..\..\..\..\..\FreeRTOS\FreeRTOS\FreeRTOS\Source/event_groups.c **** {
 517:..\..\..\..\..\..\FreeRTOS\FreeRTOS\FreeRTOS\Source/event_groups.c ****     UBaseType_t uxSavedInterruptStatus;
 518:..\..\..\..\..\..\FreeRTOS\FreeRTOS\FreeRTOS\Source/event_groups.c ****     EventGroup_t const * const pxEventBits = xEventGroup;
 519:..\..\..\..\..\..\FreeRTOS\FreeRTOS\FreeRTOS\Source/event_groups.c ****     EventBits_t uxReturn;
 520:..\..\..\..\..\..\FreeRTOS\FreeRTOS\FreeRTOS\Source/event_groups.c **** 
 521:..\..\..\..\..\..\FreeRTOS\FreeRTOS\FreeRTOS\Source/event_groups.c ****     uxSavedInterruptStatus = portSET_INTERRUPT_MASK_FROM_ISR();
 522:..\..\..\..\..\..\FreeRTOS\FreeRTOS\FreeRTOS\Source/event_groups.c ****     {
 523:..\..\..\..\..\..\FreeRTOS\FreeRTOS\FreeRTOS\Source/event_groups.c ****         uxReturn = pxEventBits->uxEventBits;
 524:..\..\..\..\..\..\FreeRTOS\FreeRTOS\FreeRTOS\Source/event_groups.c ****     }
 525:..\..\..\..\..\..\FreeRTOS\FreeRTOS\FreeRTOS\Source/event_groups.c ****     portCLEAR_INTERRUPT_MASK_FROM_ISR( uxSavedInterruptStatus );
 526:..\..\..\..\..\..\FreeRTOS\FreeRTOS\FreeRTOS\Source/event_groups.c **** 
 527:..\..\..\..\..\..\FreeRTOS\FreeRTOS\FreeRTOS\Source/event_groups.c ****     return uxReturn;
 528:..\..\..\..\..\..\FreeRTOS\FreeRTOS\FreeRTOS\Source/event_groups.c **** } /*lint !e818 EventGroupHandle_t is a typedef used in other functions to so can't be pointer to co
 529:..\..\..\..\..\..\FreeRTOS\FreeRTOS\FreeRTOS\Source/event_groups.c **** /*-----------------------------------------------------------*/
 530:..\..\..\..\..\..\FreeRTOS\FreeRTOS\FreeRTOS\Source/event_groups.c **** 
 531:..\..\..\..\..\..\FreeRTOS\FreeRTOS\FreeRTOS\Source/event_groups.c **** EventBits_t xEventGroupSetBits( EventGroupHandle_t xEventGroup,
 532:..\..\..\..\..\..\FreeRTOS\FreeRTOS\FreeRTOS\Source/event_groups.c ****                                 const EventBits_t uxBitsToSet )
 533:..\..\..\..\..\..\FreeRTOS\FreeRTOS\FreeRTOS\Source/event_groups.c **** {
 534:..\..\..\..\..\..\FreeRTOS\FreeRTOS\FreeRTOS\Source/event_groups.c ****     ListItem_t * pxListItem, * pxNext;
 535:..\..\..\..\..\..\FreeRTOS\FreeRTOS\FreeRTOS\Source/event_groups.c ****     ListItem_t const * pxListEnd;
 536:..\..\..\..\..\..\FreeRTOS\FreeRTOS\FreeRTOS\Source/event_groups.c ****     List_t const * pxList;
 537:..\..\..\..\..\..\FreeRTOS\FreeRTOS\FreeRTOS\Source/event_groups.c ****     EventBits_t uxBitsToClear = 0, uxBitsWaitedFor, uxControlBits;
 538:..\..\..\..\..\..\FreeRTOS\FreeRTOS\FreeRTOS\Source/event_groups.c ****     EventGroup_t * pxEventBits = xEventGroup;
 539:..\..\..\..\..\..\FreeRTOS\FreeRTOS\FreeRTOS\Source/event_groups.c ****     BaseType_t xMatchFound = pdFALSE;
 540:..\..\..\..\..\..\FreeRTOS\FreeRTOS\FreeRTOS\Source/event_groups.c **** 
 541:..\..\..\..\..\..\FreeRTOS\FreeRTOS\FreeRTOS\Source/event_groups.c ****     /* Check the user is not attempting to set the bits used by the kernel
 542:..\..\..\..\..\..\FreeRTOS\FreeRTOS\FreeRTOS\Source/event_groups.c ****      * itself. */
 543:..\..\..\..\..\..\FreeRTOS\FreeRTOS\FreeRTOS\Source/event_groups.c ****     configASSERT( xEventGroup );
 544:..\..\..\..\..\..\FreeRTOS\FreeRTOS\FreeRTOS\Source/event_groups.c ****     configASSERT( ( uxBitsToSet & eventEVENT_BITS_CONTROL_BYTES ) == 0 );
ARM GAS  C:\Users\u0036181\AppData\Local\Temp\cc3UM1Sh.s 			page 11


 545:..\..\..\..\..\..\FreeRTOS\FreeRTOS\FreeRTOS\Source/event_groups.c **** 
 546:..\..\..\..\..\..\FreeRTOS\FreeRTOS\FreeRTOS\Source/event_groups.c ****     pxList = &( pxEventBits->xTasksWaitingForBits );
 547:..\..\..\..\..\..\FreeRTOS\FreeRTOS\FreeRTOS\Source/event_groups.c ****     pxListEnd = listGET_END_MARKER( pxList ); /*lint !e826 !e740 !e9087 The mini list structure is 
 548:..\..\..\..\..\..\FreeRTOS\FreeRTOS\FreeRTOS\Source/event_groups.c ****     vTaskSuspendAll();
 549:..\..\..\..\..\..\FreeRTOS\FreeRTOS\FreeRTOS\Source/event_groups.c ****     {
 550:..\..\..\..\..\..\FreeRTOS\FreeRTOS\FreeRTOS\Source/event_groups.c ****         traceEVENT_GROUP_SET_BITS( xEventGroup, uxBitsToSet );
 551:..\..\..\..\..\..\FreeRTOS\FreeRTOS\FreeRTOS\Source/event_groups.c **** 
 552:..\..\..\..\..\..\FreeRTOS\FreeRTOS\FreeRTOS\Source/event_groups.c ****         pxListItem = listGET_HEAD_ENTRY( pxList );
 553:..\..\..\..\..\..\FreeRTOS\FreeRTOS\FreeRTOS\Source/event_groups.c **** 
 554:..\..\..\..\..\..\FreeRTOS\FreeRTOS\FreeRTOS\Source/event_groups.c ****         /* Set the bits. */
 555:..\..\..\..\..\..\FreeRTOS\FreeRTOS\FreeRTOS\Source/event_groups.c ****         pxEventBits->uxEventBits |= uxBitsToSet;
 556:..\..\..\..\..\..\FreeRTOS\FreeRTOS\FreeRTOS\Source/event_groups.c **** 
 557:..\..\..\..\..\..\FreeRTOS\FreeRTOS\FreeRTOS\Source/event_groups.c ****         /* See if the new bit value should unblock any tasks. */
 558:..\..\..\..\..\..\FreeRTOS\FreeRTOS\FreeRTOS\Source/event_groups.c ****         while( pxListItem != pxListEnd )
 559:..\..\..\..\..\..\FreeRTOS\FreeRTOS\FreeRTOS\Source/event_groups.c ****         {
 560:..\..\..\..\..\..\FreeRTOS\FreeRTOS\FreeRTOS\Source/event_groups.c ****             pxNext = listGET_NEXT( pxListItem );
 561:..\..\..\..\..\..\FreeRTOS\FreeRTOS\FreeRTOS\Source/event_groups.c ****             uxBitsWaitedFor = listGET_LIST_ITEM_VALUE( pxListItem );
 562:..\..\..\..\..\..\FreeRTOS\FreeRTOS\FreeRTOS\Source/event_groups.c ****             xMatchFound = pdFALSE;
 563:..\..\..\..\..\..\FreeRTOS\FreeRTOS\FreeRTOS\Source/event_groups.c **** 
 564:..\..\..\..\..\..\FreeRTOS\FreeRTOS\FreeRTOS\Source/event_groups.c ****             /* Split the bits waited for from the control bits. */
 565:..\..\..\..\..\..\FreeRTOS\FreeRTOS\FreeRTOS\Source/event_groups.c ****             uxControlBits = uxBitsWaitedFor & eventEVENT_BITS_CONTROL_BYTES;
 566:..\..\..\..\..\..\FreeRTOS\FreeRTOS\FreeRTOS\Source/event_groups.c ****             uxBitsWaitedFor &= ~eventEVENT_BITS_CONTROL_BYTES;
 567:..\..\..\..\..\..\FreeRTOS\FreeRTOS\FreeRTOS\Source/event_groups.c **** 
 568:..\..\..\..\..\..\FreeRTOS\FreeRTOS\FreeRTOS\Source/event_groups.c ****             if( ( uxControlBits & eventWAIT_FOR_ALL_BITS ) == ( EventBits_t ) 0 )
 569:..\..\..\..\..\..\FreeRTOS\FreeRTOS\FreeRTOS\Source/event_groups.c ****             {
 570:..\..\..\..\..\..\FreeRTOS\FreeRTOS\FreeRTOS\Source/event_groups.c ****                 /* Just looking for single bit being set. */
 571:..\..\..\..\..\..\FreeRTOS\FreeRTOS\FreeRTOS\Source/event_groups.c ****                 if( ( uxBitsWaitedFor & pxEventBits->uxEventBits ) != ( EventBits_t ) 0 )
 572:..\..\..\..\..\..\FreeRTOS\FreeRTOS\FreeRTOS\Source/event_groups.c ****                 {
 573:..\..\..\..\..\..\FreeRTOS\FreeRTOS\FreeRTOS\Source/event_groups.c ****                     xMatchFound = pdTRUE;
 574:..\..\..\..\..\..\FreeRTOS\FreeRTOS\FreeRTOS\Source/event_groups.c ****                 }
 575:..\..\..\..\..\..\FreeRTOS\FreeRTOS\FreeRTOS\Source/event_groups.c ****                 else
 576:..\..\..\..\..\..\FreeRTOS\FreeRTOS\FreeRTOS\Source/event_groups.c ****                 {
 577:..\..\..\..\..\..\FreeRTOS\FreeRTOS\FreeRTOS\Source/event_groups.c ****                     mtCOVERAGE_TEST_MARKER();
 578:..\..\..\..\..\..\FreeRTOS\FreeRTOS\FreeRTOS\Source/event_groups.c ****                 }
 579:..\..\..\..\..\..\FreeRTOS\FreeRTOS\FreeRTOS\Source/event_groups.c ****             }
 580:..\..\..\..\..\..\FreeRTOS\FreeRTOS\FreeRTOS\Source/event_groups.c ****             else if( ( uxBitsWaitedFor & pxEventBits->uxEventBits ) == uxBitsWaitedFor )
 581:..\..\..\..\..\..\FreeRTOS\FreeRTOS\FreeRTOS\Source/event_groups.c ****             {
 582:..\..\..\..\..\..\FreeRTOS\FreeRTOS\FreeRTOS\Source/event_groups.c ****                 /* All bits are set. */
 583:..\..\..\..\..\..\FreeRTOS\FreeRTOS\FreeRTOS\Source/event_groups.c ****                 xMatchFound = pdTRUE;
 584:..\..\..\..\..\..\FreeRTOS\FreeRTOS\FreeRTOS\Source/event_groups.c ****             }
 585:..\..\..\..\..\..\FreeRTOS\FreeRTOS\FreeRTOS\Source/event_groups.c ****             else
 586:..\..\..\..\..\..\FreeRTOS\FreeRTOS\FreeRTOS\Source/event_groups.c ****             {
 587:..\..\..\..\..\..\FreeRTOS\FreeRTOS\FreeRTOS\Source/event_groups.c ****                 /* Need all bits to be set, but not all the bits were set. */
 588:..\..\..\..\..\..\FreeRTOS\FreeRTOS\FreeRTOS\Source/event_groups.c ****             }
 589:..\..\..\..\..\..\FreeRTOS\FreeRTOS\FreeRTOS\Source/event_groups.c **** 
 590:..\..\..\..\..\..\FreeRTOS\FreeRTOS\FreeRTOS\Source/event_groups.c ****             if( xMatchFound != pdFALSE )
 591:..\..\..\..\..\..\FreeRTOS\FreeRTOS\FreeRTOS\Source/event_groups.c ****             {
 592:..\..\..\..\..\..\FreeRTOS\FreeRTOS\FreeRTOS\Source/event_groups.c ****                 /* The bits match.  Should the bits be cleared on exit? */
 593:..\..\..\..\..\..\FreeRTOS\FreeRTOS\FreeRTOS\Source/event_groups.c ****                 if( ( uxControlBits & eventCLEAR_EVENTS_ON_EXIT_BIT ) != ( EventBits_t ) 0 )
 594:..\..\..\..\..\..\FreeRTOS\FreeRTOS\FreeRTOS\Source/event_groups.c ****                 {
 595:..\..\..\..\..\..\FreeRTOS\FreeRTOS\FreeRTOS\Source/event_groups.c ****                     uxBitsToClear |= uxBitsWaitedFor;
 596:..\..\..\..\..\..\FreeRTOS\FreeRTOS\FreeRTOS\Source/event_groups.c ****                 }
 597:..\..\..\..\..\..\FreeRTOS\FreeRTOS\FreeRTOS\Source/event_groups.c ****                 else
 598:..\..\..\..\..\..\FreeRTOS\FreeRTOS\FreeRTOS\Source/event_groups.c ****                 {
 599:..\..\..\..\..\..\FreeRTOS\FreeRTOS\FreeRTOS\Source/event_groups.c ****                     mtCOVERAGE_TEST_MARKER();
 600:..\..\..\..\..\..\FreeRTOS\FreeRTOS\FreeRTOS\Source/event_groups.c ****                 }
 601:..\..\..\..\..\..\FreeRTOS\FreeRTOS\FreeRTOS\Source/event_groups.c **** 
ARM GAS  C:\Users\u0036181\AppData\Local\Temp\cc3UM1Sh.s 			page 12


 602:..\..\..\..\..\..\FreeRTOS\FreeRTOS\FreeRTOS\Source/event_groups.c ****                 /* Store the actual event flag value in the task's event list
 603:..\..\..\..\..\..\FreeRTOS\FreeRTOS\FreeRTOS\Source/event_groups.c ****                  * item before removing the task from the event list.  The
 604:..\..\..\..\..\..\FreeRTOS\FreeRTOS\FreeRTOS\Source/event_groups.c ****                  * eventUNBLOCKED_DUE_TO_BIT_SET bit is set so the task knows
 605:..\..\..\..\..\..\FreeRTOS\FreeRTOS\FreeRTOS\Source/event_groups.c ****                  * that is was unblocked due to its required bits matching, rather
 606:..\..\..\..\..\..\FreeRTOS\FreeRTOS\FreeRTOS\Source/event_groups.c ****                  * than because it timed out. */
 607:..\..\..\..\..\..\FreeRTOS\FreeRTOS\FreeRTOS\Source/event_groups.c ****                 vTaskRemoveFromUnorderedEventList( pxListItem, pxEventBits->uxEventBits | eventUNBL
 608:..\..\..\..\..\..\FreeRTOS\FreeRTOS\FreeRTOS\Source/event_groups.c ****             }
 609:..\..\..\..\..\..\FreeRTOS\FreeRTOS\FreeRTOS\Source/event_groups.c **** 
 610:..\..\..\..\..\..\FreeRTOS\FreeRTOS\FreeRTOS\Source/event_groups.c ****             /* Move onto the next list item.  Note pxListItem->pxNext is not
 611:..\..\..\..\..\..\FreeRTOS\FreeRTOS\FreeRTOS\Source/event_groups.c ****              * used here as the list item may have been removed from the event list
 612:..\..\..\..\..\..\FreeRTOS\FreeRTOS\FreeRTOS\Source/event_groups.c ****              * and inserted into the ready/pending reading list. */
 613:..\..\..\..\..\..\FreeRTOS\FreeRTOS\FreeRTOS\Source/event_groups.c ****             pxListItem = pxNext;
 614:..\..\..\..\..\..\FreeRTOS\FreeRTOS\FreeRTOS\Source/event_groups.c ****         }
 615:..\..\..\..\..\..\FreeRTOS\FreeRTOS\FreeRTOS\Source/event_groups.c **** 
 616:..\..\..\..\..\..\FreeRTOS\FreeRTOS\FreeRTOS\Source/event_groups.c ****         /* Clear any bits that matched when the eventCLEAR_EVENTS_ON_EXIT_BIT
 617:..\..\..\..\..\..\FreeRTOS\FreeRTOS\FreeRTOS\Source/event_groups.c ****          * bit was set in the control word. */
 618:..\..\..\..\..\..\FreeRTOS\FreeRTOS\FreeRTOS\Source/event_groups.c ****         pxEventBits->uxEventBits &= ~uxBitsToClear;
 619:..\..\..\..\..\..\FreeRTOS\FreeRTOS\FreeRTOS\Source/event_groups.c ****     }
 620:..\..\..\..\..\..\FreeRTOS\FreeRTOS\FreeRTOS\Source/event_groups.c ****     ( void ) xTaskResumeAll();
 621:..\..\..\..\..\..\FreeRTOS\FreeRTOS\FreeRTOS\Source/event_groups.c **** 
 622:..\..\..\..\..\..\FreeRTOS\FreeRTOS\FreeRTOS\Source/event_groups.c ****     return pxEventBits->uxEventBits;
 623:..\..\..\..\..\..\FreeRTOS\FreeRTOS\FreeRTOS\Source/event_groups.c **** }
 624:..\..\..\..\..\..\FreeRTOS\FreeRTOS\FreeRTOS\Source/event_groups.c **** /*-----------------------------------------------------------*/
 625:..\..\..\..\..\..\FreeRTOS\FreeRTOS\FreeRTOS\Source/event_groups.c **** 
 626:..\..\..\..\..\..\FreeRTOS\FreeRTOS\FreeRTOS\Source/event_groups.c **** void vEventGroupDelete( EventGroupHandle_t xEventGroup )
 627:..\..\..\..\..\..\FreeRTOS\FreeRTOS\FreeRTOS\Source/event_groups.c **** {
 628:..\..\..\..\..\..\FreeRTOS\FreeRTOS\FreeRTOS\Source/event_groups.c ****     EventGroup_t * pxEventBits = xEventGroup;
 629:..\..\..\..\..\..\FreeRTOS\FreeRTOS\FreeRTOS\Source/event_groups.c ****     const List_t * pxTasksWaitingForBits = &( pxEventBits->xTasksWaitingForBits );
 630:..\..\..\..\..\..\FreeRTOS\FreeRTOS\FreeRTOS\Source/event_groups.c **** 
 631:..\..\..\..\..\..\FreeRTOS\FreeRTOS\FreeRTOS\Source/event_groups.c ****     vTaskSuspendAll();
 632:..\..\..\..\..\..\FreeRTOS\FreeRTOS\FreeRTOS\Source/event_groups.c ****     {
 633:..\..\..\..\..\..\FreeRTOS\FreeRTOS\FreeRTOS\Source/event_groups.c ****         traceEVENT_GROUP_DELETE( xEventGroup );
 634:..\..\..\..\..\..\FreeRTOS\FreeRTOS\FreeRTOS\Source/event_groups.c **** 
 635:..\..\..\..\..\..\FreeRTOS\FreeRTOS\FreeRTOS\Source/event_groups.c ****         while( listCURRENT_LIST_LENGTH( pxTasksWaitingForBits ) > ( UBaseType_t ) 0 )
 636:..\..\..\..\..\..\FreeRTOS\FreeRTOS\FreeRTOS\Source/event_groups.c ****         {
 637:..\..\..\..\..\..\FreeRTOS\FreeRTOS\FreeRTOS\Source/event_groups.c ****             /* Unblock the task, returning 0 as the event list is being deleted
 638:..\..\..\..\..\..\FreeRTOS\FreeRTOS\FreeRTOS\Source/event_groups.c ****              * and cannot therefore have any bits set. */
 639:..\..\..\..\..\..\FreeRTOS\FreeRTOS\FreeRTOS\Source/event_groups.c ****             configASSERT( pxTasksWaitingForBits->xListEnd.pxNext != ( const ListItem_t * ) &( pxTas
 640:..\..\..\..\..\..\FreeRTOS\FreeRTOS\FreeRTOS\Source/event_groups.c ****             vTaskRemoveFromUnorderedEventList( pxTasksWaitingForBits->xListEnd.pxNext, eventUNBLOCK
 641:..\..\..\..\..\..\FreeRTOS\FreeRTOS\FreeRTOS\Source/event_groups.c ****         }
 642:..\..\..\..\..\..\FreeRTOS\FreeRTOS\FreeRTOS\Source/event_groups.c **** 
 643:..\..\..\..\..\..\FreeRTOS\FreeRTOS\FreeRTOS\Source/event_groups.c ****         #if ( ( configSUPPORT_DYNAMIC_ALLOCATION == 1 ) && ( configSUPPORT_STATIC_ALLOCATION == 0 )
 644:..\..\..\..\..\..\FreeRTOS\FreeRTOS\FreeRTOS\Source/event_groups.c ****             {
 645:..\..\..\..\..\..\FreeRTOS\FreeRTOS\FreeRTOS\Source/event_groups.c ****                 /* The event group can only have been allocated dynamically - free
 646:..\..\..\..\..\..\FreeRTOS\FreeRTOS\FreeRTOS\Source/event_groups.c ****                  * it again. */
 647:..\..\..\..\..\..\FreeRTOS\FreeRTOS\FreeRTOS\Source/event_groups.c ****                 vPortFree( pxEventBits );
 648:..\..\..\..\..\..\FreeRTOS\FreeRTOS\FreeRTOS\Source/event_groups.c ****             }
 649:..\..\..\..\..\..\FreeRTOS\FreeRTOS\FreeRTOS\Source/event_groups.c ****         #elif ( ( configSUPPORT_DYNAMIC_ALLOCATION == 1 ) && ( configSUPPORT_STATIC_ALLOCATION == 1
 650:..\..\..\..\..\..\FreeRTOS\FreeRTOS\FreeRTOS\Source/event_groups.c ****             {
 651:..\..\..\..\..\..\FreeRTOS\FreeRTOS\FreeRTOS\Source/event_groups.c ****                 /* The event group could have been allocated statically or
 652:..\..\..\..\..\..\FreeRTOS\FreeRTOS\FreeRTOS\Source/event_groups.c ****                  * dynamically, so check before attempting to free the memory. */
 653:..\..\..\..\..\..\FreeRTOS\FreeRTOS\FreeRTOS\Source/event_groups.c ****                 if( pxEventBits->ucStaticallyAllocated == ( uint8_t ) pdFALSE )
 654:..\..\..\..\..\..\FreeRTOS\FreeRTOS\FreeRTOS\Source/event_groups.c ****                 {
 655:..\..\..\..\..\..\FreeRTOS\FreeRTOS\FreeRTOS\Source/event_groups.c ****                     vPortFree( pxEventBits );
 656:..\..\..\..\..\..\FreeRTOS\FreeRTOS\FreeRTOS\Source/event_groups.c ****                 }
 657:..\..\..\..\..\..\FreeRTOS\FreeRTOS\FreeRTOS\Source/event_groups.c ****                 else
 658:..\..\..\..\..\..\FreeRTOS\FreeRTOS\FreeRTOS\Source/event_groups.c ****                 {
ARM GAS  C:\Users\u0036181\AppData\Local\Temp\cc3UM1Sh.s 			page 13


 659:..\..\..\..\..\..\FreeRTOS\FreeRTOS\FreeRTOS\Source/event_groups.c ****                     mtCOVERAGE_TEST_MARKER();
 660:..\..\..\..\..\..\FreeRTOS\FreeRTOS\FreeRTOS\Source/event_groups.c ****                 }
 661:..\..\..\..\..\..\FreeRTOS\FreeRTOS\FreeRTOS\Source/event_groups.c ****             }
 662:..\..\..\..\..\..\FreeRTOS\FreeRTOS\FreeRTOS\Source/event_groups.c ****         #endif /* configSUPPORT_DYNAMIC_ALLOCATION */
 663:..\..\..\..\..\..\FreeRTOS\FreeRTOS\FreeRTOS\Source/event_groups.c ****     }
 664:..\..\..\..\..\..\FreeRTOS\FreeRTOS\FreeRTOS\Source/event_groups.c ****     ( void ) xTaskResumeAll();
 665:..\..\..\..\..\..\FreeRTOS\FreeRTOS\FreeRTOS\Source/event_groups.c **** }
 666:..\..\..\..\..\..\FreeRTOS\FreeRTOS\FreeRTOS\Source/event_groups.c **** /*-----------------------------------------------------------*/
 667:..\..\..\..\..\..\FreeRTOS\FreeRTOS\FreeRTOS\Source/event_groups.c **** 
 668:..\..\..\..\..\..\FreeRTOS\FreeRTOS\FreeRTOS\Source/event_groups.c **** /* For internal use only - execute a 'set bits' command that was pended from
 669:..\..\..\..\..\..\FreeRTOS\FreeRTOS\FreeRTOS\Source/event_groups.c ****  * an interrupt. */
 670:..\..\..\..\..\..\FreeRTOS\FreeRTOS\FreeRTOS\Source/event_groups.c **** void vEventGroupSetBitsCallback( void * pvEventGroup,
 671:..\..\..\..\..\..\FreeRTOS\FreeRTOS\FreeRTOS\Source/event_groups.c ****                                  const uint32_t ulBitsToSet )
 672:..\..\..\..\..\..\FreeRTOS\FreeRTOS\FreeRTOS\Source/event_groups.c **** {
 673:..\..\..\..\..\..\FreeRTOS\FreeRTOS\FreeRTOS\Source/event_groups.c ****     ( void ) xEventGroupSetBits( pvEventGroup, ( EventBits_t ) ulBitsToSet ); /*lint !e9079 Can't a
 674:..\..\..\..\..\..\FreeRTOS\FreeRTOS\FreeRTOS\Source/event_groups.c **** }
 675:..\..\..\..\..\..\FreeRTOS\FreeRTOS\FreeRTOS\Source/event_groups.c **** /*-----------------------------------------------------------*/
 676:..\..\..\..\..\..\FreeRTOS\FreeRTOS\FreeRTOS\Source/event_groups.c **** 
 677:..\..\..\..\..\..\FreeRTOS\FreeRTOS\FreeRTOS\Source/event_groups.c **** /* For internal use only - execute a 'clear bits' command that was pended from
 678:..\..\..\..\..\..\FreeRTOS\FreeRTOS\FreeRTOS\Source/event_groups.c ****  * an interrupt. */
 679:..\..\..\..\..\..\FreeRTOS\FreeRTOS\FreeRTOS\Source/event_groups.c **** void vEventGroupClearBitsCallback( void * pvEventGroup,
 680:..\..\..\..\..\..\FreeRTOS\FreeRTOS\FreeRTOS\Source/event_groups.c ****                                    const uint32_t ulBitsToClear )
 681:..\..\..\..\..\..\FreeRTOS\FreeRTOS\FreeRTOS\Source/event_groups.c **** {
 682:..\..\..\..\..\..\FreeRTOS\FreeRTOS\FreeRTOS\Source/event_groups.c ****     ( void ) xEventGroupClearBits( pvEventGroup, ( EventBits_t ) ulBitsToClear ); /*lint !e9079 Can
 683:..\..\..\..\..\..\FreeRTOS\FreeRTOS\FreeRTOS\Source/event_groups.c **** }
 684:..\..\..\..\..\..\FreeRTOS\FreeRTOS\FreeRTOS\Source/event_groups.c **** /*-----------------------------------------------------------*/
 685:..\..\..\..\..\..\FreeRTOS\FreeRTOS\FreeRTOS\Source/event_groups.c **** 
 686:..\..\..\..\..\..\FreeRTOS\FreeRTOS\FreeRTOS\Source/event_groups.c **** static BaseType_t prvTestWaitCondition( const EventBits_t uxCurrentEventBits,
 687:..\..\..\..\..\..\FreeRTOS\FreeRTOS\FreeRTOS\Source/event_groups.c ****                                         const EventBits_t uxBitsToWaitFor,
 688:..\..\..\..\..\..\FreeRTOS\FreeRTOS\FreeRTOS\Source/event_groups.c ****                                         const BaseType_t xWaitForAllBits )
 689:..\..\..\..\..\..\FreeRTOS\FreeRTOS\FreeRTOS\Source/event_groups.c **** {
  27              		.loc 1 689 0
  28              		.cfi_startproc
  29              		@ args = 0, pretend = 0, frame = 0
  30              		@ frame_needed = 0, uses_anonymous_args = 0
  31              		@ link register save eliminated.
  32              	.LVL0:
 690:..\..\..\..\..\..\FreeRTOS\FreeRTOS\FreeRTOS\Source/event_groups.c ****     BaseType_t xWaitConditionMet = pdFALSE;
 691:..\..\..\..\..\..\FreeRTOS\FreeRTOS\FreeRTOS\Source/event_groups.c **** 
 692:..\..\..\..\..\..\FreeRTOS\FreeRTOS\FreeRTOS\Source/event_groups.c ****     if( xWaitForAllBits == pdFALSE )
  33              		.loc 1 692 0
  34 0000 1AB9     		cbnz	r2, .L2
 693:..\..\..\..\..\..\FreeRTOS\FreeRTOS\FreeRTOS\Source/event_groups.c ****     {
 694:..\..\..\..\..\..\FreeRTOS\FreeRTOS\FreeRTOS\Source/event_groups.c ****         /* Task only has to wait for one bit within uxBitsToWaitFor to be
 695:..\..\..\..\..\..\FreeRTOS\FreeRTOS\FreeRTOS\Source/event_groups.c ****          * set.  Is one already set? */
 696:..\..\..\..\..\..\FreeRTOS\FreeRTOS\FreeRTOS\Source/event_groups.c ****         if( ( uxCurrentEventBits & uxBitsToWaitFor ) != ( EventBits_t ) 0 )
  35              		.loc 1 696 0
  36 0002 0842     		tst	r0, r1
  37 0004 06D1     		bne	.L4
 690:..\..\..\..\..\..\FreeRTOS\FreeRTOS\FreeRTOS\Source/event_groups.c ****     BaseType_t xWaitConditionMet = pdFALSE;
  38              		.loc 1 690 0
  39 0006 0020     		movs	r0, #0
  40              	.LVL1:
  41 0008 7047     		bx	lr
  42              	.LVL2:
  43              	.L2:
 697:..\..\..\..\..\..\FreeRTOS\FreeRTOS\FreeRTOS\Source/event_groups.c ****         {
ARM GAS  C:\Users\u0036181\AppData\Local\Temp\cc3UM1Sh.s 			page 14


 698:..\..\..\..\..\..\FreeRTOS\FreeRTOS\FreeRTOS\Source/event_groups.c ****             xWaitConditionMet = pdTRUE;
 699:..\..\..\..\..\..\FreeRTOS\FreeRTOS\FreeRTOS\Source/event_groups.c ****         }
 700:..\..\..\..\..\..\FreeRTOS\FreeRTOS\FreeRTOS\Source/event_groups.c ****         else
 701:..\..\..\..\..\..\FreeRTOS\FreeRTOS\FreeRTOS\Source/event_groups.c ****         {
 702:..\..\..\..\..\..\FreeRTOS\FreeRTOS\FreeRTOS\Source/event_groups.c ****             mtCOVERAGE_TEST_MARKER();
 703:..\..\..\..\..\..\FreeRTOS\FreeRTOS\FreeRTOS\Source/event_groups.c ****         }
 704:..\..\..\..\..\..\FreeRTOS\FreeRTOS\FreeRTOS\Source/event_groups.c ****     }
 705:..\..\..\..\..\..\FreeRTOS\FreeRTOS\FreeRTOS\Source/event_groups.c ****     else
 706:..\..\..\..\..\..\FreeRTOS\FreeRTOS\FreeRTOS\Source/event_groups.c ****     {
 707:..\..\..\..\..\..\FreeRTOS\FreeRTOS\FreeRTOS\Source/event_groups.c ****         /* Task has to wait for all the bits in uxBitsToWaitFor to be set.
 708:..\..\..\..\..\..\FreeRTOS\FreeRTOS\FreeRTOS\Source/event_groups.c ****          * Are they set already? */
 709:..\..\..\..\..\..\FreeRTOS\FreeRTOS\FreeRTOS\Source/event_groups.c ****         if( ( uxCurrentEventBits & uxBitsToWaitFor ) == uxBitsToWaitFor )
  44              		.loc 1 709 0
  45 000a 31EA0003 		bics	r3, r1, r0
  46 000e 03D0     		beq	.L5
 690:..\..\..\..\..\..\FreeRTOS\FreeRTOS\FreeRTOS\Source/event_groups.c **** 
  47              		.loc 1 690 0
  48 0010 0020     		movs	r0, #0
  49              	.LVL3:
  50 0012 7047     		bx	lr
  51              	.LVL4:
  52              	.L4:
 698:..\..\..\..\..\..\FreeRTOS\FreeRTOS\FreeRTOS\Source/event_groups.c ****         }
  53              		.loc 1 698 0
  54 0014 0120     		movs	r0, #1
  55              	.LVL5:
  56 0016 7047     		bx	lr
  57              	.LVL6:
  58              	.L5:
 710:..\..\..\..\..\..\FreeRTOS\FreeRTOS\FreeRTOS\Source/event_groups.c ****         {
 711:..\..\..\..\..\..\FreeRTOS\FreeRTOS\FreeRTOS\Source/event_groups.c ****             xWaitConditionMet = pdTRUE;
  59              		.loc 1 711 0
  60 0018 0120     		movs	r0, #1
  61              	.LVL7:
 712:..\..\..\..\..\..\FreeRTOS\FreeRTOS\FreeRTOS\Source/event_groups.c ****         }
 713:..\..\..\..\..\..\FreeRTOS\FreeRTOS\FreeRTOS\Source/event_groups.c ****         else
 714:..\..\..\..\..\..\FreeRTOS\FreeRTOS\FreeRTOS\Source/event_groups.c ****         {
 715:..\..\..\..\..\..\FreeRTOS\FreeRTOS\FreeRTOS\Source/event_groups.c ****             mtCOVERAGE_TEST_MARKER();
 716:..\..\..\..\..\..\FreeRTOS\FreeRTOS\FreeRTOS\Source/event_groups.c ****         }
 717:..\..\..\..\..\..\FreeRTOS\FreeRTOS\FreeRTOS\Source/event_groups.c ****     }
 718:..\..\..\..\..\..\FreeRTOS\FreeRTOS\FreeRTOS\Source/event_groups.c **** 
 719:..\..\..\..\..\..\FreeRTOS\FreeRTOS\FreeRTOS\Source/event_groups.c ****     return xWaitConditionMet;
 720:..\..\..\..\..\..\FreeRTOS\FreeRTOS\FreeRTOS\Source/event_groups.c **** }
  62              		.loc 1 720 0
  63 001a 7047     		bx	lr
  64              		.cfi_endproc
  65              	.LFE13:
  66              		.size	prvTestWaitCondition, .-prvTestWaitCondition
  67              		.section	.text.xEventGroupCreate,"ax",%progbits
  68              		.align	2
  69              		.global	xEventGroupCreate
  70              		.thumb
  71              		.thumb_func
  72              		.type	xEventGroupCreate, %function
  73              	xEventGroupCreate:
  74              	.LFB4:
 147:..\..\..\..\..\..\FreeRTOS\FreeRTOS\FreeRTOS\Source/event_groups.c ****         EventGroup_t * pxEventBits;
ARM GAS  C:\Users\u0036181\AppData\Local\Temp\cc3UM1Sh.s 			page 15


  75              		.loc 1 147 0
  76              		.cfi_startproc
  77              		@ args = 0, pretend = 0, frame = 0
  78              		@ frame_needed = 0, uses_anonymous_args = 0
  79 0000 10B5     		push	{r4, lr}
  80              		.cfi_def_cfa_offset 8
  81              		.cfi_offset 4, -8
  82              		.cfi_offset 14, -4
 163:..\..\..\..\..\..\FreeRTOS\FreeRTOS\FreeRTOS\Source/event_groups.c **** 
  83              		.loc 1 163 0
  84 0002 1820     		movs	r0, #24
  85 0004 FFF7FEFF 		bl	pvPortMalloc
  86              	.LVL8:
 165:..\..\..\..\..\..\FreeRTOS\FreeRTOS\FreeRTOS\Source/event_groups.c ****         {
  87              		.loc 1 165 0
  88 0008 0446     		mov	r4, r0
  89 000a 20B1     		cbz	r0, .L7
 167:..\..\..\..\..\..\FreeRTOS\FreeRTOS\FreeRTOS\Source/event_groups.c ****             vListInitialise( &( pxEventBits->xTasksWaitingForBits ) );
  90              		.loc 1 167 0
  91 000c 0023     		movs	r3, #0
  92 000e 40F8043B 		str	r3, [r0], #4
  93              	.LVL9:
 168:..\..\..\..\..\..\FreeRTOS\FreeRTOS\FreeRTOS\Source/event_groups.c **** 
  94              		.loc 1 168 0
  95 0012 FFF7FEFF 		bl	vListInitialise
  96              	.LVL10:
  97              	.L7:
 187:..\..\..\..\..\..\FreeRTOS\FreeRTOS\FreeRTOS\Source/event_groups.c **** 
  98              		.loc 1 187 0
  99 0016 2046     		mov	r0, r4
 100 0018 10BD     		pop	{r4, pc}
 101              		.cfi_endproc
 102              	.LFE4:
 103              		.size	xEventGroupCreate, .-xEventGroupCreate
 104 001a 00BF     		.section	.text.xEventGroupWaitBits,"ax",%progbits
 105              		.align	2
 106              		.global	xEventGroupWaitBits
 107              		.thumb
 108              		.thumb_func
 109              		.type	xEventGroupWaitBits, %function
 110              	xEventGroupWaitBits:
 111              	.LFB6:
 320:..\..\..\..\..\..\FreeRTOS\FreeRTOS\FreeRTOS\Source/event_groups.c ****     EventGroup_t * pxEventBits = xEventGroup;
 112              		.loc 1 320 0
 113              		.cfi_startproc
 114              		@ args = 4, pretend = 0, frame = 0
 115              		@ frame_needed = 0, uses_anonymous_args = 0
 116              	.LVL11:
 117 0000 2DE9F843 		push	{r3, r4, r5, r6, r7, r8, r9, lr}
 118              		.cfi_def_cfa_offset 32
 119              		.cfi_offset 3, -32
 120              		.cfi_offset 4, -28
 121              		.cfi_offset 5, -24
 122              		.cfi_offset 6, -20
 123              		.cfi_offset 7, -16
 124              		.cfi_offset 8, -12
 125              		.cfi_offset 9, -8
ARM GAS  C:\Users\u0036181\AppData\Local\Temp\cc3UM1Sh.s 			page 16


 126              		.cfi_offset 14, -4
 127 0004 0746     		mov	r7, r0
 128 0006 0E46     		mov	r6, r1
 129 0008 9146     		mov	r9, r2
 130 000a 9846     		mov	r8, r3
 131 000c 089D     		ldr	r5, [sp, #32]
 132              	.LVL12:
 337:..\..\..\..\..\..\FreeRTOS\FreeRTOS\FreeRTOS\Source/event_groups.c ****     {
 133              		.loc 1 337 0
 134 000e FFF7FEFF 		bl	vTaskSuspendAll
 135              	.LVL13:
 136              	.LBB6:
 339:..\..\..\..\..\..\FreeRTOS\FreeRTOS\FreeRTOS\Source/event_groups.c **** 
 137              		.loc 1 339 0
 138 0012 3C68     		ldr	r4, [r7]
 139              	.LVL14:
 342:..\..\..\..\..\..\FreeRTOS\FreeRTOS\FreeRTOS\Source/event_groups.c **** 
 140              		.loc 1 342 0
 141 0014 4246     		mov	r2, r8
 142 0016 3146     		mov	r1, r6
 143 0018 2046     		mov	r0, r4
 144 001a FFF7FEFF 		bl	prvTestWaitCondition
 145              	.LVL15:
 344:..\..\..\..\..\..\FreeRTOS\FreeRTOS\FreeRTOS\Source/event_groups.c ****         {
 146              		.loc 1 344 0
 147 001e 38B1     		cbz	r0, .L10
 148              	.LVL16:
 352:..\..\..\..\..\..\FreeRTOS\FreeRTOS\FreeRTOS\Source/event_groups.c ****             {
 149              		.loc 1 352 0
 150 0020 B9F1000F 		cmp	r9, #0
 151 0024 18D0     		beq	.L18
 354:..\..\..\..\..\..\FreeRTOS\FreeRTOS\FreeRTOS\Source/event_groups.c ****             }
 152              		.loc 1 354 0
 153 0026 24EA0603 		bic	r3, r4, r6
 154 002a 3B60     		str	r3, [r7]
 349:..\..\..\..\..\..\FreeRTOS\FreeRTOS\FreeRTOS\Source/event_groups.c **** 
 155              		.loc 1 349 0
 156 002c 0025     		movs	r5, #0
 157 002e 14E0     		b	.L11
 158              	.LVL17:
 159              	.L10:
 361:..\..\..\..\..\..\FreeRTOS\FreeRTOS\FreeRTOS\Source/event_groups.c ****         {
 160              		.loc 1 361 0
 161 0030 9DB1     		cbz	r5, .L11
 374:..\..\..\..\..\..\FreeRTOS\FreeRTOS\FreeRTOS\Source/event_groups.c ****             {
 162              		.loc 1 374 0
 163 0032 B9F1000F 		cmp	r9, #0
 164 0036 01D1     		bne	.L19
 165              	.LBE6:
 322:..\..\..\..\..\..\FreeRTOS\FreeRTOS\FreeRTOS\Source/event_groups.c ****     BaseType_t xWaitConditionMet, xAlreadyYielded;
 166              		.loc 1 322 0
 167 0038 0021     		movs	r1, #0
 168 003a 01E0     		b	.L12
 169              	.L19:
 170              	.LBB7:
 376:..\..\..\..\..\..\FreeRTOS\FreeRTOS\FreeRTOS\Source/event_groups.c ****             }
 171              		.loc 1 376 0
ARM GAS  C:\Users\u0036181\AppData\Local\Temp\cc3UM1Sh.s 			page 17


 172 003c 4FF08071 		mov	r1, #16777216
 173              	.L12:
 174              	.LVL18:
 383:..\..\..\..\..\..\FreeRTOS\FreeRTOS\FreeRTOS\Source/event_groups.c ****             {
 175              		.loc 1 383 0
 176 0040 B8F1000F 		cmp	r8, #0
 177 0044 01D0     		beq	.L13
 385:..\..\..\..\..\..\FreeRTOS\FreeRTOS\FreeRTOS\Source/event_groups.c ****             }
 178              		.loc 1 385 0
 179 0046 41F08061 		orr	r1, r1, #67108864
 180              	.LVL19:
 181              	.L13:
 395:..\..\..\..\..\..\FreeRTOS\FreeRTOS\FreeRTOS\Source/event_groups.c **** 
 182              		.loc 1 395 0
 183 004a 2A46     		mov	r2, r5
 184 004c 3143     		orrs	r1, r1, r6
 185              	.LVL20:
 186 004e 381D     		adds	r0, r7, #4
 187              	.LVL21:
 188 0050 FFF7FEFF 		bl	vTaskPlaceOnUnorderedEventList
 189              	.LVL22:
 400:..\..\..\..\..\..\FreeRTOS\FreeRTOS\FreeRTOS\Source/event_groups.c **** 
 190              		.loc 1 400 0
 191 0054 0024     		movs	r4, #0
 192              	.LVL23:
 193 0056 00E0     		b	.L11
 194              	.LVL24:
 195              	.L18:
 349:..\..\..\..\..\..\FreeRTOS\FreeRTOS\FreeRTOS\Source/event_groups.c **** 
 196              		.loc 1 349 0
 197 0058 0025     		movs	r5, #0
 198              	.LVL25:
 199              	.L11:
 200              	.LBE7:
 405:..\..\..\..\..\..\FreeRTOS\FreeRTOS\FreeRTOS\Source/event_groups.c **** 
 201              		.loc 1 405 0
 202 005a FFF7FEFF 		bl	xTaskResumeAll
 203              	.LVL26:
 407:..\..\..\..\..\..\FreeRTOS\FreeRTOS\FreeRTOS\Source/event_groups.c ****     {
 204              		.loc 1 407 0
 205 005e 0DB3     		cbz	r5, .L14
 409:..\..\..\..\..\..\FreeRTOS\FreeRTOS\FreeRTOS\Source/event_groups.c ****         {
 206              		.loc 1 409 0
 207 0060 38B9     		cbnz	r0, .L15
 411:..\..\..\..\..\..\FreeRTOS\FreeRTOS\FreeRTOS\Source/event_groups.c ****         }
 208              		.loc 1 411 0
 209 0062 4FF08052 		mov	r2, #268435456
 210 0066 114B     		ldr	r3, .L21
 211 0068 1A60     		str	r2, [r3]
 212              		.syntax unified
 213              	@ 411 "..\..\..\..\..\..\FreeRTOS\FreeRTOS\FreeRTOS\Source\event_groups.c" 1
 214 006a BFF34F8F 		dsb
 215              	@ 0 "" 2
 216              	@ 411 "..\..\..\..\..\..\FreeRTOS\FreeRTOS\FreeRTOS\Source\event_groups.c" 1
 217 006e BFF36F8F 		isb
 218              	@ 0 "" 2
 219              		.thumb
ARM GAS  C:\Users\u0036181\AppData\Local\Temp\cc3UM1Sh.s 			page 18


 220              		.syntax unified
 221              	.L15:
 422:..\..\..\..\..\..\FreeRTOS\FreeRTOS\FreeRTOS\Source/event_groups.c **** 
 222              		.loc 1 422 0
 223 0072 FFF7FEFF 		bl	uxTaskResetEventItemValue
 224              	.LVL27:
 225 0076 0446     		mov	r4, r0
 226              	.LVL28:
 424:..\..\..\..\..\..\FreeRTOS\FreeRTOS\FreeRTOS\Source/event_groups.c ****         {
 227              		.loc 1 424 0
 228 0078 10F0007F 		tst	r0, #33554432
 229 007c 10D1     		bne	.L16
 426:..\..\..\..\..\..\FreeRTOS\FreeRTOS\FreeRTOS\Source/event_groups.c ****             {
 230              		.loc 1 426 0
 231 007e FFF7FEFF 		bl	vPortEnterCritical
 232              	.LVL29:
 429:..\..\..\..\..\..\FreeRTOS\FreeRTOS\FreeRTOS\Source/event_groups.c **** 
 233              		.loc 1 429 0
 234 0082 3C68     		ldr	r4, [r7]
 235              	.LVL30:
 433:..\..\..\..\..\..\FreeRTOS\FreeRTOS\FreeRTOS\Source/event_groups.c ****                 {
 236              		.loc 1 433 0
 237 0084 4246     		mov	r2, r8
 238 0086 3146     		mov	r1, r6
 239 0088 2046     		mov	r0, r4
 240 008a FFF7FEFF 		bl	prvTestWaitCondition
 241              	.LVL31:
 242 008e 28B1     		cbz	r0, .L17
 435:..\..\..\..\..\..\FreeRTOS\FreeRTOS\FreeRTOS\Source/event_groups.c ****                     {
 243              		.loc 1 435 0
 244 0090 B9F1000F 		cmp	r9, #0
 245 0094 02D0     		beq	.L17
 437:..\..\..\..\..\..\FreeRTOS\FreeRTOS\FreeRTOS\Source/event_groups.c ****                     }
 246              		.loc 1 437 0
 247 0096 24EA0606 		bic	r6, r4, r6
 248              	.LVL32:
 249 009a 3E60     		str	r6, [r7]
 250              	.L17:
 251              	.LVL33:
 451:..\..\..\..\..\..\FreeRTOS\FreeRTOS\FreeRTOS\Source/event_groups.c ****         }
 252              		.loc 1 451 0
 253 009c FFF7FEFF 		bl	vPortExitCritical
 254              	.LVL34:
 255              	.L16:
 459:..\..\..\..\..\..\FreeRTOS\FreeRTOS\FreeRTOS\Source/event_groups.c ****     }
 256              		.loc 1 459 0
 257 00a0 24F07F44 		bic	r4, r4, #-16777216
 258              	.LVL35:
 259              	.L14:
 468:..\..\..\..\..\..\FreeRTOS\FreeRTOS\FreeRTOS\Source/event_groups.c **** /*-----------------------------------------------------------*/
 260              		.loc 1 468 0
 261 00a4 2046     		mov	r0, r4
 262 00a6 BDE8F883 		pop	{r3, r4, r5, r6, r7, r8, r9, pc}
 263              	.LVL36:
 264              	.L22:
 265 00aa 00BF     		.align	2
 266              	.L21:
ARM GAS  C:\Users\u0036181\AppData\Local\Temp\cc3UM1Sh.s 			page 19


 267 00ac 04ED00E0 		.word	-536810236
 268              		.cfi_endproc
 269              	.LFE6:
 270              		.size	xEventGroupWaitBits, .-xEventGroupWaitBits
 271              		.section	.text.xEventGroupClearBits,"ax",%progbits
 272              		.align	2
 273              		.global	xEventGroupClearBits
 274              		.thumb
 275              		.thumb_func
 276              		.type	xEventGroupClearBits, %function
 277              	xEventGroupClearBits:
 278              	.LFB7:
 473:..\..\..\..\..\..\FreeRTOS\FreeRTOS\FreeRTOS\Source/event_groups.c ****     EventGroup_t * pxEventBits = xEventGroup;
 279              		.loc 1 473 0
 280              		.cfi_startproc
 281              		@ args = 0, pretend = 0, frame = 0
 282              		@ frame_needed = 0, uses_anonymous_args = 0
 283              	.LVL37:
 284 0000 70B5     		push	{r4, r5, r6, lr}
 285              		.cfi_def_cfa_offset 16
 286              		.cfi_offset 4, -16
 287              		.cfi_offset 5, -12
 288              		.cfi_offset 6, -8
 289              		.cfi_offset 14, -4
 290 0002 0646     		mov	r6, r0
 291 0004 0C46     		mov	r4, r1
 292              	.LVL38:
 482:..\..\..\..\..\..\FreeRTOS\FreeRTOS\FreeRTOS\Source/event_groups.c ****     {
 293              		.loc 1 482 0
 294 0006 FFF7FEFF 		bl	vPortEnterCritical
 295              	.LVL39:
 488:..\..\..\..\..\..\FreeRTOS\FreeRTOS\FreeRTOS\Source/event_groups.c **** 
 296              		.loc 1 488 0
 297 000a 3568     		ldr	r5, [r6]
 298              	.LVL40:
 491:..\..\..\..\..\..\FreeRTOS\FreeRTOS\FreeRTOS\Source/event_groups.c ****     }
 299              		.loc 1 491 0
 300 000c 25EA0404 		bic	r4, r5, r4
 301              	.LVL41:
 302 0010 3460     		str	r4, [r6]
 493:..\..\..\..\..\..\FreeRTOS\FreeRTOS\FreeRTOS\Source/event_groups.c **** 
 303              		.loc 1 493 0
 304 0012 FFF7FEFF 		bl	vPortExitCritical
 305              	.LVL42:
 496:..\..\..\..\..\..\FreeRTOS\FreeRTOS\FreeRTOS\Source/event_groups.c **** /*-----------------------------------------------------------*/
 306              		.loc 1 496 0
 307 0016 2846     		mov	r0, r5
 308 0018 70BD     		pop	{r4, r5, r6, pc}
 309              		.cfi_endproc
 310              	.LFE7:
 311              		.size	xEventGroupClearBits, .-xEventGroupClearBits
 312 001a 00BF     		.section	.text.xEventGroupGetBitsFromISR,"ax",%progbits
 313              		.align	2
 314              		.global	xEventGroupGetBitsFromISR
 315              		.thumb
 316              		.thumb_func
 317              		.type	xEventGroupGetBitsFromISR, %function
ARM GAS  C:\Users\u0036181\AppData\Local\Temp\cc3UM1Sh.s 			page 20


 318              	xEventGroupGetBitsFromISR:
 319              	.LFB8:
 516:..\..\..\..\..\..\FreeRTOS\FreeRTOS\FreeRTOS\Source/event_groups.c ****     UBaseType_t uxSavedInterruptStatus;
 320              		.loc 1 516 0
 321              		.cfi_startproc
 322              		@ args = 0, pretend = 0, frame = 0
 323              		@ frame_needed = 0, uses_anonymous_args = 0
 324              		@ link register save eliminated.
 325              	.LVL43:
 326              	.LBB8:
 327              	.LBB9:
 328              		.file 2 "C:\\FreeRTOS\\FreeRTOS\\FreeRTOS\\Source\\portable\\GCC\\ARM_CM3/portmacro.h"
   1:C:\FreeRTOS\FreeRTOS\FreeRTOS\Source\portable\GCC\ARM_CM3\portmacro.h **** /*
   2:C:\FreeRTOS\FreeRTOS\FreeRTOS\Source\portable\GCC\ARM_CM3\portmacro.h ****  * FreeRTOS Kernel V10.4.0
   3:C:\FreeRTOS\FreeRTOS\FreeRTOS\Source\portable\GCC\ARM_CM3\portmacro.h ****  * Copyright (C) 2020 Amazon.com, Inc. or its affiliates.  All Rights Reserved.
   4:C:\FreeRTOS\FreeRTOS\FreeRTOS\Source\portable\GCC\ARM_CM3\portmacro.h ****  *
   5:C:\FreeRTOS\FreeRTOS\FreeRTOS\Source\portable\GCC\ARM_CM3\portmacro.h ****  * Permission is hereby granted, free of charge, to any person obtaining a copy of
   6:C:\FreeRTOS\FreeRTOS\FreeRTOS\Source\portable\GCC\ARM_CM3\portmacro.h ****  * this software and associated documentation files (the "Software"), to deal in
   7:C:\FreeRTOS\FreeRTOS\FreeRTOS\Source\portable\GCC\ARM_CM3\portmacro.h ****  * the Software without restriction, including without limitation the rights to
   8:C:\FreeRTOS\FreeRTOS\FreeRTOS\Source\portable\GCC\ARM_CM3\portmacro.h ****  * use, copy, modify, merge, publish, distribute, sublicense, and/or sell copies of
   9:C:\FreeRTOS\FreeRTOS\FreeRTOS\Source\portable\GCC\ARM_CM3\portmacro.h ****  * the Software, and to permit persons to whom the Software is furnished to do so,
  10:C:\FreeRTOS\FreeRTOS\FreeRTOS\Source\portable\GCC\ARM_CM3\portmacro.h ****  * subject to the following conditions:
  11:C:\FreeRTOS\FreeRTOS\FreeRTOS\Source\portable\GCC\ARM_CM3\portmacro.h ****  *
  12:C:\FreeRTOS\FreeRTOS\FreeRTOS\Source\portable\GCC\ARM_CM3\portmacro.h ****  * The above copyright notice and this permission notice shall be included in all
  13:C:\FreeRTOS\FreeRTOS\FreeRTOS\Source\portable\GCC\ARM_CM3\portmacro.h ****  * copies or substantial portions of the Software.
  14:C:\FreeRTOS\FreeRTOS\FreeRTOS\Source\portable\GCC\ARM_CM3\portmacro.h ****  *
  15:C:\FreeRTOS\FreeRTOS\FreeRTOS\Source\portable\GCC\ARM_CM3\portmacro.h ****  * THE SOFTWARE IS PROVIDED "AS IS", WITHOUT WARRANTY OF ANY KIND, EXPRESS OR
  16:C:\FreeRTOS\FreeRTOS\FreeRTOS\Source\portable\GCC\ARM_CM3\portmacro.h ****  * IMPLIED, INCLUDING BUT NOT LIMITED TO THE WARRANTIES OF MERCHANTABILITY, FITNESS
  17:C:\FreeRTOS\FreeRTOS\FreeRTOS\Source\portable\GCC\ARM_CM3\portmacro.h ****  * FOR A PARTICULAR PURPOSE AND NONINFRINGEMENT. IN NO EVENT SHALL THE AUTHORS OR
  18:C:\FreeRTOS\FreeRTOS\FreeRTOS\Source\portable\GCC\ARM_CM3\portmacro.h ****  * COPYRIGHT HOLDERS BE LIABLE FOR ANY CLAIM, DAMAGES OR OTHER LIABILITY, WHETHER
  19:C:\FreeRTOS\FreeRTOS\FreeRTOS\Source\portable\GCC\ARM_CM3\portmacro.h ****  * IN AN ACTION OF CONTRACT, TORT OR OTHERWISE, ARISING FROM, OUT OF OR IN
  20:C:\FreeRTOS\FreeRTOS\FreeRTOS\Source\portable\GCC\ARM_CM3\portmacro.h ****  * CONNECTION WITH THE SOFTWARE OR THE USE OR OTHER DEALINGS IN THE SOFTWARE.
  21:C:\FreeRTOS\FreeRTOS\FreeRTOS\Source\portable\GCC\ARM_CM3\portmacro.h ****  *
  22:C:\FreeRTOS\FreeRTOS\FreeRTOS\Source\portable\GCC\ARM_CM3\portmacro.h ****  * https://www.FreeRTOS.org
  23:C:\FreeRTOS\FreeRTOS\FreeRTOS\Source\portable\GCC\ARM_CM3\portmacro.h ****  * https://github.com/FreeRTOS
  24:C:\FreeRTOS\FreeRTOS\FreeRTOS\Source\portable\GCC\ARM_CM3\portmacro.h ****  *
  25:C:\FreeRTOS\FreeRTOS\FreeRTOS\Source\portable\GCC\ARM_CM3\portmacro.h ****  * 1 tab == 4 spaces!
  26:C:\FreeRTOS\FreeRTOS\FreeRTOS\Source\portable\GCC\ARM_CM3\portmacro.h ****  */
  27:C:\FreeRTOS\FreeRTOS\FreeRTOS\Source\portable\GCC\ARM_CM3\portmacro.h **** 
  28:C:\FreeRTOS\FreeRTOS\FreeRTOS\Source\portable\GCC\ARM_CM3\portmacro.h **** 
  29:C:\FreeRTOS\FreeRTOS\FreeRTOS\Source\portable\GCC\ARM_CM3\portmacro.h **** #ifndef PORTMACRO_H
  30:C:\FreeRTOS\FreeRTOS\FreeRTOS\Source\portable\GCC\ARM_CM3\portmacro.h ****     #define PORTMACRO_H
  31:C:\FreeRTOS\FreeRTOS\FreeRTOS\Source\portable\GCC\ARM_CM3\portmacro.h **** 
  32:C:\FreeRTOS\FreeRTOS\FreeRTOS\Source\portable\GCC\ARM_CM3\portmacro.h ****     #ifdef __cplusplus
  33:C:\FreeRTOS\FreeRTOS\FreeRTOS\Source\portable\GCC\ARM_CM3\portmacro.h ****         extern "C" {
  34:C:\FreeRTOS\FreeRTOS\FreeRTOS\Source\portable\GCC\ARM_CM3\portmacro.h ****     #endif
  35:C:\FreeRTOS\FreeRTOS\FreeRTOS\Source\portable\GCC\ARM_CM3\portmacro.h **** 
  36:C:\FreeRTOS\FreeRTOS\FreeRTOS\Source\portable\GCC\ARM_CM3\portmacro.h **** /*-----------------------------------------------------------
  37:C:\FreeRTOS\FreeRTOS\FreeRTOS\Source\portable\GCC\ARM_CM3\portmacro.h ****  * Port specific definitions.
  38:C:\FreeRTOS\FreeRTOS\FreeRTOS\Source\portable\GCC\ARM_CM3\portmacro.h ****  *
  39:C:\FreeRTOS\FreeRTOS\FreeRTOS\Source\portable\GCC\ARM_CM3\portmacro.h ****  * The settings in this file configure FreeRTOS correctly for the
  40:C:\FreeRTOS\FreeRTOS\FreeRTOS\Source\portable\GCC\ARM_CM3\portmacro.h ****  * given hardware and compiler.
  41:C:\FreeRTOS\FreeRTOS\FreeRTOS\Source\portable\GCC\ARM_CM3\portmacro.h ****  *
  42:C:\FreeRTOS\FreeRTOS\FreeRTOS\Source\portable\GCC\ARM_CM3\portmacro.h ****  * These settings should not be altered.
  43:C:\FreeRTOS\FreeRTOS\FreeRTOS\Source\portable\GCC\ARM_CM3\portmacro.h ****  *-----------------------------------------------------------
  44:C:\FreeRTOS\FreeRTOS\FreeRTOS\Source\portable\GCC\ARM_CM3\portmacro.h ****  */
  45:C:\FreeRTOS\FreeRTOS\FreeRTOS\Source\portable\GCC\ARM_CM3\portmacro.h **** 
ARM GAS  C:\Users\u0036181\AppData\Local\Temp\cc3UM1Sh.s 			page 21


  46:C:\FreeRTOS\FreeRTOS\FreeRTOS\Source\portable\GCC\ARM_CM3\portmacro.h **** /* Type definitions. */
  47:C:\FreeRTOS\FreeRTOS\FreeRTOS\Source\portable\GCC\ARM_CM3\portmacro.h ****     #define portCHAR          char
  48:C:\FreeRTOS\FreeRTOS\FreeRTOS\Source\portable\GCC\ARM_CM3\portmacro.h ****     #define portFLOAT         float
  49:C:\FreeRTOS\FreeRTOS\FreeRTOS\Source\portable\GCC\ARM_CM3\portmacro.h ****     #define portDOUBLE        double
  50:C:\FreeRTOS\FreeRTOS\FreeRTOS\Source\portable\GCC\ARM_CM3\portmacro.h ****     #define portLONG          long
  51:C:\FreeRTOS\FreeRTOS\FreeRTOS\Source\portable\GCC\ARM_CM3\portmacro.h ****     #define portSHORT         short
  52:C:\FreeRTOS\FreeRTOS\FreeRTOS\Source\portable\GCC\ARM_CM3\portmacro.h ****     #define portSTACK_TYPE    uint32_t
  53:C:\FreeRTOS\FreeRTOS\FreeRTOS\Source\portable\GCC\ARM_CM3\portmacro.h ****     #define portBASE_TYPE     long
  54:C:\FreeRTOS\FreeRTOS\FreeRTOS\Source\portable\GCC\ARM_CM3\portmacro.h **** 
  55:C:\FreeRTOS\FreeRTOS\FreeRTOS\Source\portable\GCC\ARM_CM3\portmacro.h ****     typedef portSTACK_TYPE   StackType_t;
  56:C:\FreeRTOS\FreeRTOS\FreeRTOS\Source\portable\GCC\ARM_CM3\portmacro.h ****     typedef long             BaseType_t;
  57:C:\FreeRTOS\FreeRTOS\FreeRTOS\Source\portable\GCC\ARM_CM3\portmacro.h ****     typedef unsigned long    UBaseType_t;
  58:C:\FreeRTOS\FreeRTOS\FreeRTOS\Source\portable\GCC\ARM_CM3\portmacro.h **** 
  59:C:\FreeRTOS\FreeRTOS\FreeRTOS\Source\portable\GCC\ARM_CM3\portmacro.h ****     #if ( configUSE_16_BIT_TICKS == 1 )
  60:C:\FreeRTOS\FreeRTOS\FreeRTOS\Source\portable\GCC\ARM_CM3\portmacro.h ****         typedef uint16_t     TickType_t;
  61:C:\FreeRTOS\FreeRTOS\FreeRTOS\Source\portable\GCC\ARM_CM3\portmacro.h ****         #define portMAX_DELAY              ( TickType_t ) 0xffff
  62:C:\FreeRTOS\FreeRTOS\FreeRTOS\Source\portable\GCC\ARM_CM3\portmacro.h ****     #else
  63:C:\FreeRTOS\FreeRTOS\FreeRTOS\Source\portable\GCC\ARM_CM3\portmacro.h ****         typedef uint32_t     TickType_t;
  64:C:\FreeRTOS\FreeRTOS\FreeRTOS\Source\portable\GCC\ARM_CM3\portmacro.h ****         #define portMAX_DELAY              ( TickType_t ) 0xffffffffUL
  65:C:\FreeRTOS\FreeRTOS\FreeRTOS\Source\portable\GCC\ARM_CM3\portmacro.h **** 
  66:C:\FreeRTOS\FreeRTOS\FreeRTOS\Source\portable\GCC\ARM_CM3\portmacro.h **** /* 32-bit tick type on a 32-bit architecture, so reads of the tick count do
  67:C:\FreeRTOS\FreeRTOS\FreeRTOS\Source\portable\GCC\ARM_CM3\portmacro.h ****  * not need to be guarded with a critical section. */
  68:C:\FreeRTOS\FreeRTOS\FreeRTOS\Source\portable\GCC\ARM_CM3\portmacro.h ****         #define portTICK_TYPE_IS_ATOMIC    1
  69:C:\FreeRTOS\FreeRTOS\FreeRTOS\Source\portable\GCC\ARM_CM3\portmacro.h ****     #endif
  70:C:\FreeRTOS\FreeRTOS\FreeRTOS\Source\portable\GCC\ARM_CM3\portmacro.h **** /*-----------------------------------------------------------*/
  71:C:\FreeRTOS\FreeRTOS\FreeRTOS\Source\portable\GCC\ARM_CM3\portmacro.h **** 
  72:C:\FreeRTOS\FreeRTOS\FreeRTOS\Source\portable\GCC\ARM_CM3\portmacro.h **** /* Architecture specifics. */
  73:C:\FreeRTOS\FreeRTOS\FreeRTOS\Source\portable\GCC\ARM_CM3\portmacro.h ****     #define portSTACK_GROWTH      ( -1 )
  74:C:\FreeRTOS\FreeRTOS\FreeRTOS\Source\portable\GCC\ARM_CM3\portmacro.h ****     #define portTICK_PERIOD_MS    ( ( TickType_t ) 1000 / configTICK_RATE_HZ )
  75:C:\FreeRTOS\FreeRTOS\FreeRTOS\Source\portable\GCC\ARM_CM3\portmacro.h ****     #define portBYTE_ALIGNMENT    8
  76:C:\FreeRTOS\FreeRTOS\FreeRTOS\Source\portable\GCC\ARM_CM3\portmacro.h ****     #define portDONT_DISCARD      __attribute__( ( used ) )
  77:C:\FreeRTOS\FreeRTOS\FreeRTOS\Source\portable\GCC\ARM_CM3\portmacro.h **** /*-----------------------------------------------------------*/
  78:C:\FreeRTOS\FreeRTOS\FreeRTOS\Source\portable\GCC\ARM_CM3\portmacro.h **** 
  79:C:\FreeRTOS\FreeRTOS\FreeRTOS\Source\portable\GCC\ARM_CM3\portmacro.h **** /* Scheduler utilities. */
  80:C:\FreeRTOS\FreeRTOS\FreeRTOS\Source\portable\GCC\ARM_CM3\portmacro.h ****     #define portYIELD()                                 \
  81:C:\FreeRTOS\FreeRTOS\FreeRTOS\Source\portable\GCC\ARM_CM3\portmacro.h ****     {                                                   \
  82:C:\FreeRTOS\FreeRTOS\FreeRTOS\Source\portable\GCC\ARM_CM3\portmacro.h ****         /* Set a PendSV to request a context switch. */ \
  83:C:\FreeRTOS\FreeRTOS\FreeRTOS\Source\portable\GCC\ARM_CM3\portmacro.h ****         portNVIC_INT_CTRL_REG = portNVIC_PENDSVSET_BIT; \
  84:C:\FreeRTOS\FreeRTOS\FreeRTOS\Source\portable\GCC\ARM_CM3\portmacro.h ****                                                         \
  85:C:\FreeRTOS\FreeRTOS\FreeRTOS\Source\portable\GCC\ARM_CM3\portmacro.h ****         /* Barriers are normally not required but do ensure the code is completely \
  86:C:\FreeRTOS\FreeRTOS\FreeRTOS\Source\portable\GCC\ARM_CM3\portmacro.h ****          * within the specified behaviour for the architecture. */ \
  87:C:\FreeRTOS\FreeRTOS\FreeRTOS\Source\portable\GCC\ARM_CM3\portmacro.h ****         __asm volatile ( "dsb" ::: "memory" );                     \
  88:C:\FreeRTOS\FreeRTOS\FreeRTOS\Source\portable\GCC\ARM_CM3\portmacro.h ****         __asm volatile ( "isb" );                                  \
  89:C:\FreeRTOS\FreeRTOS\FreeRTOS\Source\portable\GCC\ARM_CM3\portmacro.h ****     }
  90:C:\FreeRTOS\FreeRTOS\FreeRTOS\Source\portable\GCC\ARM_CM3\portmacro.h **** 
  91:C:\FreeRTOS\FreeRTOS\FreeRTOS\Source\portable\GCC\ARM_CM3\portmacro.h ****     #define portNVIC_INT_CTRL_REG     ( *( ( volatile uint32_t * ) 0xe000ed04 ) )
  92:C:\FreeRTOS\FreeRTOS\FreeRTOS\Source\portable\GCC\ARM_CM3\portmacro.h ****     #define portNVIC_PENDSVSET_BIT    ( 1UL << 28UL )
  93:C:\FreeRTOS\FreeRTOS\FreeRTOS\Source\portable\GCC\ARM_CM3\portmacro.h ****     #define portEND_SWITCHING_ISR( xSwitchRequired )    if( xSwitchRequired != pdFALSE ) portYIELD(
  94:C:\FreeRTOS\FreeRTOS\FreeRTOS\Source\portable\GCC\ARM_CM3\portmacro.h ****     #define portYIELD_FROM_ISR( x )                     portEND_SWITCHING_ISR( x )
  95:C:\FreeRTOS\FreeRTOS\FreeRTOS\Source\portable\GCC\ARM_CM3\portmacro.h **** /*-----------------------------------------------------------*/
  96:C:\FreeRTOS\FreeRTOS\FreeRTOS\Source\portable\GCC\ARM_CM3\portmacro.h **** 
  97:C:\FreeRTOS\FreeRTOS\FreeRTOS\Source\portable\GCC\ARM_CM3\portmacro.h **** /* Critical section management. */
  98:C:\FreeRTOS\FreeRTOS\FreeRTOS\Source\portable\GCC\ARM_CM3\portmacro.h ****     extern void vPortEnterCritical( void );
  99:C:\FreeRTOS\FreeRTOS\FreeRTOS\Source\portable\GCC\ARM_CM3\portmacro.h ****     extern void vPortExitCritical( void );
 100:C:\FreeRTOS\FreeRTOS\FreeRTOS\Source\portable\GCC\ARM_CM3\portmacro.h ****     #define portSET_INTERRUPT_MASK_FROM_ISR()         ulPortRaiseBASEPRI()
 101:C:\FreeRTOS\FreeRTOS\FreeRTOS\Source\portable\GCC\ARM_CM3\portmacro.h ****     #define portCLEAR_INTERRUPT_MASK_FROM_ISR( x )    vPortSetBASEPRI( x )
 102:C:\FreeRTOS\FreeRTOS\FreeRTOS\Source\portable\GCC\ARM_CM3\portmacro.h ****     #define portDISABLE_INTERRUPTS()                  vPortRaiseBASEPRI()
ARM GAS  C:\Users\u0036181\AppData\Local\Temp\cc3UM1Sh.s 			page 22


 103:C:\FreeRTOS\FreeRTOS\FreeRTOS\Source\portable\GCC\ARM_CM3\portmacro.h ****     #define portENABLE_INTERRUPTS()                   vPortSetBASEPRI( 0 )
 104:C:\FreeRTOS\FreeRTOS\FreeRTOS\Source\portable\GCC\ARM_CM3\portmacro.h ****     #define portENTER_CRITICAL()                      vPortEnterCritical()
 105:C:\FreeRTOS\FreeRTOS\FreeRTOS\Source\portable\GCC\ARM_CM3\portmacro.h ****     #define portEXIT_CRITICAL()                       vPortExitCritical()
 106:C:\FreeRTOS\FreeRTOS\FreeRTOS\Source\portable\GCC\ARM_CM3\portmacro.h **** 
 107:C:\FreeRTOS\FreeRTOS\FreeRTOS\Source\portable\GCC\ARM_CM3\portmacro.h **** /*-----------------------------------------------------------*/
 108:C:\FreeRTOS\FreeRTOS\FreeRTOS\Source\portable\GCC\ARM_CM3\portmacro.h **** 
 109:C:\FreeRTOS\FreeRTOS\FreeRTOS\Source\portable\GCC\ARM_CM3\portmacro.h **** /* Task function macros as described on the FreeRTOS.org WEB site.  These are
 110:C:\FreeRTOS\FreeRTOS\FreeRTOS\Source\portable\GCC\ARM_CM3\portmacro.h ****  * not necessary for to use this port.  They are defined so the common demo files
 111:C:\FreeRTOS\FreeRTOS\FreeRTOS\Source\portable\GCC\ARM_CM3\portmacro.h ****  * (which build with all the ports) will build. */
 112:C:\FreeRTOS\FreeRTOS\FreeRTOS\Source\portable\GCC\ARM_CM3\portmacro.h ****     #define portTASK_FUNCTION_PROTO( vFunction, pvParameters )    void vFunction( void * pvParamete
 113:C:\FreeRTOS\FreeRTOS\FreeRTOS\Source\portable\GCC\ARM_CM3\portmacro.h ****     #define portTASK_FUNCTION( vFunction, pvParameters )          void vFunction( void * pvParamete
 114:C:\FreeRTOS\FreeRTOS\FreeRTOS\Source\portable\GCC\ARM_CM3\portmacro.h **** /*-----------------------------------------------------------*/
 115:C:\FreeRTOS\FreeRTOS\FreeRTOS\Source\portable\GCC\ARM_CM3\portmacro.h **** 
 116:C:\FreeRTOS\FreeRTOS\FreeRTOS\Source\portable\GCC\ARM_CM3\portmacro.h **** /* Tickless idle/low power functionality. */
 117:C:\FreeRTOS\FreeRTOS\FreeRTOS\Source\portable\GCC\ARM_CM3\portmacro.h ****     #ifndef portSUPPRESS_TICKS_AND_SLEEP
 118:C:\FreeRTOS\FreeRTOS\FreeRTOS\Source\portable\GCC\ARM_CM3\portmacro.h ****         extern void vPortSuppressTicksAndSleep( TickType_t xExpectedIdleTime );
 119:C:\FreeRTOS\FreeRTOS\FreeRTOS\Source\portable\GCC\ARM_CM3\portmacro.h ****         #define portSUPPRESS_TICKS_AND_SLEEP( xExpectedIdleTime )    vPortSuppressTicksAndSleep( xE
 120:C:\FreeRTOS\FreeRTOS\FreeRTOS\Source\portable\GCC\ARM_CM3\portmacro.h ****     #endif
 121:C:\FreeRTOS\FreeRTOS\FreeRTOS\Source\portable\GCC\ARM_CM3\portmacro.h **** /*-----------------------------------------------------------*/
 122:C:\FreeRTOS\FreeRTOS\FreeRTOS\Source\portable\GCC\ARM_CM3\portmacro.h **** 
 123:C:\FreeRTOS\FreeRTOS\FreeRTOS\Source\portable\GCC\ARM_CM3\portmacro.h **** /* Architecture specific optimisations. */
 124:C:\FreeRTOS\FreeRTOS\FreeRTOS\Source\portable\GCC\ARM_CM3\portmacro.h ****     #ifndef configUSE_PORT_OPTIMISED_TASK_SELECTION
 125:C:\FreeRTOS\FreeRTOS\FreeRTOS\Source\portable\GCC\ARM_CM3\portmacro.h ****         #define configUSE_PORT_OPTIMISED_TASK_SELECTION    1
 126:C:\FreeRTOS\FreeRTOS\FreeRTOS\Source\portable\GCC\ARM_CM3\portmacro.h ****     #endif
 127:C:\FreeRTOS\FreeRTOS\FreeRTOS\Source\portable\GCC\ARM_CM3\portmacro.h **** 
 128:C:\FreeRTOS\FreeRTOS\FreeRTOS\Source\portable\GCC\ARM_CM3\portmacro.h ****     #if configUSE_PORT_OPTIMISED_TASK_SELECTION == 1
 129:C:\FreeRTOS\FreeRTOS\FreeRTOS\Source\portable\GCC\ARM_CM3\portmacro.h **** 
 130:C:\FreeRTOS\FreeRTOS\FreeRTOS\Source\portable\GCC\ARM_CM3\portmacro.h **** /* Generic helper function. */
 131:C:\FreeRTOS\FreeRTOS\FreeRTOS\Source\portable\GCC\ARM_CM3\portmacro.h ****         __attribute__( ( always_inline ) ) static inline uint8_t ucPortCountLeadingZeros( uint32_t 
 132:C:\FreeRTOS\FreeRTOS\FreeRTOS\Source\portable\GCC\ARM_CM3\portmacro.h ****         {
 133:C:\FreeRTOS\FreeRTOS\FreeRTOS\Source\portable\GCC\ARM_CM3\portmacro.h ****             uint8_t ucReturn;
 134:C:\FreeRTOS\FreeRTOS\FreeRTOS\Source\portable\GCC\ARM_CM3\portmacro.h **** 
 135:C:\FreeRTOS\FreeRTOS\FreeRTOS\Source\portable\GCC\ARM_CM3\portmacro.h ****             __asm volatile ( "clz %0, %1" : "=r" ( ucReturn ) : "r" ( ulBitmap ) : "memory" );
 136:C:\FreeRTOS\FreeRTOS\FreeRTOS\Source\portable\GCC\ARM_CM3\portmacro.h **** 
 137:C:\FreeRTOS\FreeRTOS\FreeRTOS\Source\portable\GCC\ARM_CM3\portmacro.h ****             return ucReturn;
 138:C:\FreeRTOS\FreeRTOS\FreeRTOS\Source\portable\GCC\ARM_CM3\portmacro.h ****         }
 139:C:\FreeRTOS\FreeRTOS\FreeRTOS\Source\portable\GCC\ARM_CM3\portmacro.h **** 
 140:C:\FreeRTOS\FreeRTOS\FreeRTOS\Source\portable\GCC\ARM_CM3\portmacro.h **** /* Check the configuration. */
 141:C:\FreeRTOS\FreeRTOS\FreeRTOS\Source\portable\GCC\ARM_CM3\portmacro.h ****         #if ( configMAX_PRIORITIES > 32 )
 142:C:\FreeRTOS\FreeRTOS\FreeRTOS\Source\portable\GCC\ARM_CM3\portmacro.h ****             #error configUSE_PORT_OPTIMISED_TASK_SELECTION can only be set to 1 when configMAX_PRIO
 143:C:\FreeRTOS\FreeRTOS\FreeRTOS\Source\portable\GCC\ARM_CM3\portmacro.h ****         #endif
 144:C:\FreeRTOS\FreeRTOS\FreeRTOS\Source\portable\GCC\ARM_CM3\portmacro.h **** 
 145:C:\FreeRTOS\FreeRTOS\FreeRTOS\Source\portable\GCC\ARM_CM3\portmacro.h **** /* Store/clear the ready priorities in a bit map. */
 146:C:\FreeRTOS\FreeRTOS\FreeRTOS\Source\portable\GCC\ARM_CM3\portmacro.h ****         #define portRECORD_READY_PRIORITY( uxPriority, uxReadyPriorities )    ( uxReadyPriorities )
 147:C:\FreeRTOS\FreeRTOS\FreeRTOS\Source\portable\GCC\ARM_CM3\portmacro.h ****         #define portRESET_READY_PRIORITY( uxPriority, uxReadyPriorities )     ( uxReadyPriorities )
 148:C:\FreeRTOS\FreeRTOS\FreeRTOS\Source\portable\GCC\ARM_CM3\portmacro.h **** 
 149:C:\FreeRTOS\FreeRTOS\FreeRTOS\Source\portable\GCC\ARM_CM3\portmacro.h **** /*-----------------------------------------------------------*/
 150:C:\FreeRTOS\FreeRTOS\FreeRTOS\Source\portable\GCC\ARM_CM3\portmacro.h **** 
 151:C:\FreeRTOS\FreeRTOS\FreeRTOS\Source\portable\GCC\ARM_CM3\portmacro.h ****         #define portGET_HIGHEST_PRIORITY( uxTopPriority, uxReadyPriorities )    uxTopPriority = ( 3
 152:C:\FreeRTOS\FreeRTOS\FreeRTOS\Source\portable\GCC\ARM_CM3\portmacro.h **** 
 153:C:\FreeRTOS\FreeRTOS\FreeRTOS\Source\portable\GCC\ARM_CM3\portmacro.h ****     #endif /* configUSE_PORT_OPTIMISED_TASK_SELECTION */
 154:C:\FreeRTOS\FreeRTOS\FreeRTOS\Source\portable\GCC\ARM_CM3\portmacro.h **** 
 155:C:\FreeRTOS\FreeRTOS\FreeRTOS\Source\portable\GCC\ARM_CM3\portmacro.h **** /*-----------------------------------------------------------*/
 156:C:\FreeRTOS\FreeRTOS\FreeRTOS\Source\portable\GCC\ARM_CM3\portmacro.h **** 
 157:C:\FreeRTOS\FreeRTOS\FreeRTOS\Source\portable\GCC\ARM_CM3\portmacro.h ****     #ifdef configASSERT
 158:C:\FreeRTOS\FreeRTOS\FreeRTOS\Source\portable\GCC\ARM_CM3\portmacro.h ****         void vPortValidateInterruptPriority( void );
 159:C:\FreeRTOS\FreeRTOS\FreeRTOS\Source\portable\GCC\ARM_CM3\portmacro.h ****         #define portASSERT_IF_INTERRUPT_PRIORITY_INVALID()    vPortValidateInterruptPriority()
ARM GAS  C:\Users\u0036181\AppData\Local\Temp\cc3UM1Sh.s 			page 23


 160:C:\FreeRTOS\FreeRTOS\FreeRTOS\Source\portable\GCC\ARM_CM3\portmacro.h ****     #endif
 161:C:\FreeRTOS\FreeRTOS\FreeRTOS\Source\portable\GCC\ARM_CM3\portmacro.h **** 
 162:C:\FreeRTOS\FreeRTOS\FreeRTOS\Source\portable\GCC\ARM_CM3\portmacro.h **** /* portNOP() is not required by this port. */
 163:C:\FreeRTOS\FreeRTOS\FreeRTOS\Source\portable\GCC\ARM_CM3\portmacro.h ****     #define portNOP()
 164:C:\FreeRTOS\FreeRTOS\FreeRTOS\Source\portable\GCC\ARM_CM3\portmacro.h **** 
 165:C:\FreeRTOS\FreeRTOS\FreeRTOS\Source\portable\GCC\ARM_CM3\portmacro.h ****     #define portINLINE              __inline
 166:C:\FreeRTOS\FreeRTOS\FreeRTOS\Source\portable\GCC\ARM_CM3\portmacro.h **** 
 167:C:\FreeRTOS\FreeRTOS\FreeRTOS\Source\portable\GCC\ARM_CM3\portmacro.h ****     #ifndef portFORCE_INLINE
 168:C:\FreeRTOS\FreeRTOS\FreeRTOS\Source\portable\GCC\ARM_CM3\portmacro.h ****         #define portFORCE_INLINE    inline __attribute__( ( always_inline ) )
 169:C:\FreeRTOS\FreeRTOS\FreeRTOS\Source\portable\GCC\ARM_CM3\portmacro.h ****     #endif
 170:C:\FreeRTOS\FreeRTOS\FreeRTOS\Source\portable\GCC\ARM_CM3\portmacro.h **** 
 171:C:\FreeRTOS\FreeRTOS\FreeRTOS\Source\portable\GCC\ARM_CM3\portmacro.h **** /*-----------------------------------------------------------*/
 172:C:\FreeRTOS\FreeRTOS\FreeRTOS\Source\portable\GCC\ARM_CM3\portmacro.h **** 
 173:C:\FreeRTOS\FreeRTOS\FreeRTOS\Source\portable\GCC\ARM_CM3\portmacro.h ****     portFORCE_INLINE static BaseType_t xPortIsInsideInterrupt( void )
 174:C:\FreeRTOS\FreeRTOS\FreeRTOS\Source\portable\GCC\ARM_CM3\portmacro.h ****     {
 175:C:\FreeRTOS\FreeRTOS\FreeRTOS\Source\portable\GCC\ARM_CM3\portmacro.h ****         uint32_t ulCurrentInterrupt;
 176:C:\FreeRTOS\FreeRTOS\FreeRTOS\Source\portable\GCC\ARM_CM3\portmacro.h ****         BaseType_t xReturn;
 177:C:\FreeRTOS\FreeRTOS\FreeRTOS\Source\portable\GCC\ARM_CM3\portmacro.h **** 
 178:C:\FreeRTOS\FreeRTOS\FreeRTOS\Source\portable\GCC\ARM_CM3\portmacro.h ****         /* Obtain the number of the currently executing interrupt. */
 179:C:\FreeRTOS\FreeRTOS\FreeRTOS\Source\portable\GCC\ARM_CM3\portmacro.h ****         __asm volatile ( "mrs %0, ipsr" : "=r" ( ulCurrentInterrupt )::"memory" );
 180:C:\FreeRTOS\FreeRTOS\FreeRTOS\Source\portable\GCC\ARM_CM3\portmacro.h **** 
 181:C:\FreeRTOS\FreeRTOS\FreeRTOS\Source\portable\GCC\ARM_CM3\portmacro.h ****         if( ulCurrentInterrupt == 0 )
 182:C:\FreeRTOS\FreeRTOS\FreeRTOS\Source\portable\GCC\ARM_CM3\portmacro.h ****         {
 183:C:\FreeRTOS\FreeRTOS\FreeRTOS\Source\portable\GCC\ARM_CM3\portmacro.h ****             xReturn = pdFALSE;
 184:C:\FreeRTOS\FreeRTOS\FreeRTOS\Source\portable\GCC\ARM_CM3\portmacro.h ****         }
 185:C:\FreeRTOS\FreeRTOS\FreeRTOS\Source\portable\GCC\ARM_CM3\portmacro.h ****         else
 186:C:\FreeRTOS\FreeRTOS\FreeRTOS\Source\portable\GCC\ARM_CM3\portmacro.h ****         {
 187:C:\FreeRTOS\FreeRTOS\FreeRTOS\Source\portable\GCC\ARM_CM3\portmacro.h ****             xReturn = pdTRUE;
 188:C:\FreeRTOS\FreeRTOS\FreeRTOS\Source\portable\GCC\ARM_CM3\portmacro.h ****         }
 189:C:\FreeRTOS\FreeRTOS\FreeRTOS\Source\portable\GCC\ARM_CM3\portmacro.h **** 
 190:C:\FreeRTOS\FreeRTOS\FreeRTOS\Source\portable\GCC\ARM_CM3\portmacro.h ****         return xReturn;
 191:C:\FreeRTOS\FreeRTOS\FreeRTOS\Source\portable\GCC\ARM_CM3\portmacro.h ****     }
 192:C:\FreeRTOS\FreeRTOS\FreeRTOS\Source\portable\GCC\ARM_CM3\portmacro.h **** 
 193:C:\FreeRTOS\FreeRTOS\FreeRTOS\Source\portable\GCC\ARM_CM3\portmacro.h **** /*-----------------------------------------------------------*/
 194:C:\FreeRTOS\FreeRTOS\FreeRTOS\Source\portable\GCC\ARM_CM3\portmacro.h **** 
 195:C:\FreeRTOS\FreeRTOS\FreeRTOS\Source\portable\GCC\ARM_CM3\portmacro.h ****     portFORCE_INLINE static void vPortRaiseBASEPRI( void )
 196:C:\FreeRTOS\FreeRTOS\FreeRTOS\Source\portable\GCC\ARM_CM3\portmacro.h ****     {
 197:C:\FreeRTOS\FreeRTOS\FreeRTOS\Source\portable\GCC\ARM_CM3\portmacro.h ****         uint32_t ulNewBASEPRI;
 198:C:\FreeRTOS\FreeRTOS\FreeRTOS\Source\portable\GCC\ARM_CM3\portmacro.h **** 
 199:C:\FreeRTOS\FreeRTOS\FreeRTOS\Source\portable\GCC\ARM_CM3\portmacro.h ****         __asm volatile
 200:C:\FreeRTOS\FreeRTOS\FreeRTOS\Source\portable\GCC\ARM_CM3\portmacro.h ****         (
 201:C:\FreeRTOS\FreeRTOS\FreeRTOS\Source\portable\GCC\ARM_CM3\portmacro.h ****             "	mov %0, %1												\n"\
 202:C:\FreeRTOS\FreeRTOS\FreeRTOS\Source\portable\GCC\ARM_CM3\portmacro.h ****             "	msr basepri, %0											\n"\
 203:C:\FreeRTOS\FreeRTOS\FreeRTOS\Source\portable\GCC\ARM_CM3\portmacro.h ****             "	isb														\n"\
 204:C:\FreeRTOS\FreeRTOS\FreeRTOS\Source\portable\GCC\ARM_CM3\portmacro.h ****             "	dsb														\n"\
 205:C:\FreeRTOS\FreeRTOS\FreeRTOS\Source\portable\GCC\ARM_CM3\portmacro.h ****             : "=r" ( ulNewBASEPRI ) : "i" ( configMAX_SYSCALL_INTERRUPT_PRIORITY ) : "memory"
 206:C:\FreeRTOS\FreeRTOS\FreeRTOS\Source\portable\GCC\ARM_CM3\portmacro.h ****         );
 207:C:\FreeRTOS\FreeRTOS\FreeRTOS\Source\portable\GCC\ARM_CM3\portmacro.h ****     }
 208:C:\FreeRTOS\FreeRTOS\FreeRTOS\Source\portable\GCC\ARM_CM3\portmacro.h **** 
 209:C:\FreeRTOS\FreeRTOS\FreeRTOS\Source\portable\GCC\ARM_CM3\portmacro.h **** /*-----------------------------------------------------------*/
 210:C:\FreeRTOS\FreeRTOS\FreeRTOS\Source\portable\GCC\ARM_CM3\portmacro.h **** 
 211:C:\FreeRTOS\FreeRTOS\FreeRTOS\Source\portable\GCC\ARM_CM3\portmacro.h ****     portFORCE_INLINE static uint32_t ulPortRaiseBASEPRI( void )
 212:C:\FreeRTOS\FreeRTOS\FreeRTOS\Source\portable\GCC\ARM_CM3\portmacro.h ****     {
 213:C:\FreeRTOS\FreeRTOS\FreeRTOS\Source\portable\GCC\ARM_CM3\portmacro.h ****         uint32_t ulOriginalBASEPRI, ulNewBASEPRI;
 214:C:\FreeRTOS\FreeRTOS\FreeRTOS\Source\portable\GCC\ARM_CM3\portmacro.h **** 
 215:C:\FreeRTOS\FreeRTOS\FreeRTOS\Source\portable\GCC\ARM_CM3\portmacro.h ****         __asm volatile
 329              		.loc 2 215 0
ARM GAS  C:\Users\u0036181\AppData\Local\Temp\cc3UM1Sh.s 			page 24


 330              		.syntax unified
 331              	@ 215 "C:\FreeRTOS\FreeRTOS\FreeRTOS\Source\portable\GCC\ARM_CM3/portmacro.h" 1
 332 0000 EFF31183 			mrs r3, basepri											
 333 0004 4FF00402 		mov r2, #4												
 334 0008 82F31188 		msr basepri, r2											
 335 000c BFF36F8F 		isb														
 336 0010 BFF34F8F 		dsb														
 337              	
 338              	@ 0 "" 2
 339              		.thumb
 340              		.syntax unified
 341              	.LBE9:
 342              	.LBE8:
 523:..\..\..\..\..\..\FreeRTOS\FreeRTOS\FreeRTOS\Source/event_groups.c ****     }
 343              		.loc 1 523 0
 344 0014 0068     		ldr	r0, [r0]
 345              	.LVL44:
 346              	.LBB10:
 347              	.LBB11:
 216:C:\FreeRTOS\FreeRTOS\FreeRTOS\Source\portable\GCC\ARM_CM3\portmacro.h ****         (
 217:C:\FreeRTOS\FreeRTOS\FreeRTOS\Source\portable\GCC\ARM_CM3\portmacro.h ****             "	mrs %0, basepri											\n"\
 218:C:\FreeRTOS\FreeRTOS\FreeRTOS\Source\portable\GCC\ARM_CM3\portmacro.h ****             "	mov %1, %2												\n"\
 219:C:\FreeRTOS\FreeRTOS\FreeRTOS\Source\portable\GCC\ARM_CM3\portmacro.h ****             "	msr basepri, %1											\n"\
 220:C:\FreeRTOS\FreeRTOS\FreeRTOS\Source\portable\GCC\ARM_CM3\portmacro.h ****             "	isb														\n"\
 221:C:\FreeRTOS\FreeRTOS\FreeRTOS\Source\portable\GCC\ARM_CM3\portmacro.h ****             "	dsb														\n"\
 222:C:\FreeRTOS\FreeRTOS\FreeRTOS\Source\portable\GCC\ARM_CM3\portmacro.h ****             : "=r" ( ulOriginalBASEPRI ), "=r" ( ulNewBASEPRI ) : "i" ( configMAX_SYSCALL_INTERRUPT
 223:C:\FreeRTOS\FreeRTOS\FreeRTOS\Source\portable\GCC\ARM_CM3\portmacro.h ****         );
 224:C:\FreeRTOS\FreeRTOS\FreeRTOS\Source\portable\GCC\ARM_CM3\portmacro.h **** 
 225:C:\FreeRTOS\FreeRTOS\FreeRTOS\Source\portable\GCC\ARM_CM3\portmacro.h ****         /* This return will not be reached but is necessary to prevent compiler
 226:C:\FreeRTOS\FreeRTOS\FreeRTOS\Source\portable\GCC\ARM_CM3\portmacro.h ****          * warnings. */
 227:C:\FreeRTOS\FreeRTOS\FreeRTOS\Source\portable\GCC\ARM_CM3\portmacro.h ****         return ulOriginalBASEPRI;
 228:C:\FreeRTOS\FreeRTOS\FreeRTOS\Source\portable\GCC\ARM_CM3\portmacro.h ****     }
 229:C:\FreeRTOS\FreeRTOS\FreeRTOS\Source\portable\GCC\ARM_CM3\portmacro.h **** /*-----------------------------------------------------------*/
 230:C:\FreeRTOS\FreeRTOS\FreeRTOS\Source\portable\GCC\ARM_CM3\portmacro.h **** 
 231:C:\FreeRTOS\FreeRTOS\FreeRTOS\Source\portable\GCC\ARM_CM3\portmacro.h ****     portFORCE_INLINE static void vPortSetBASEPRI( uint32_t ulNewMaskValue )
 232:C:\FreeRTOS\FreeRTOS\FreeRTOS\Source\portable\GCC\ARM_CM3\portmacro.h ****     {
 233:C:\FreeRTOS\FreeRTOS\FreeRTOS\Source\portable\GCC\ARM_CM3\portmacro.h ****         __asm volatile
 348              		.loc 2 233 0
 349              		.syntax unified
 350              	@ 233 "C:\FreeRTOS\FreeRTOS\FreeRTOS\Source\portable\GCC\ARM_CM3/portmacro.h" 1
 351 0016 83F31188 			msr basepri, r3	
 352              	@ 0 "" 2
 353              		.thumb
 354              		.syntax unified
 355              	.LBE11:
 356              	.LBE10:
 528:..\..\..\..\..\..\FreeRTOS\FreeRTOS\FreeRTOS\Source/event_groups.c **** /*-----------------------------------------------------------*/
 357              		.loc 1 528 0
 358 001a 7047     		bx	lr
 359              		.cfi_endproc
 360              	.LFE8:
 361              		.size	xEventGroupGetBitsFromISR, .-xEventGroupGetBitsFromISR
 362              		.section	.text.xEventGroupSetBits,"ax",%progbits
 363              		.align	2
 364              		.global	xEventGroupSetBits
 365              		.thumb
 366              		.thumb_func
ARM GAS  C:\Users\u0036181\AppData\Local\Temp\cc3UM1Sh.s 			page 25


 367              		.type	xEventGroupSetBits, %function
 368              	xEventGroupSetBits:
 369              	.LFB9:
 533:..\..\..\..\..\..\FreeRTOS\FreeRTOS\FreeRTOS\Source/event_groups.c ****     ListItem_t * pxListItem, * pxNext;
 370              		.loc 1 533 0
 371              		.cfi_startproc
 372              		@ args = 0, pretend = 0, frame = 0
 373              		@ frame_needed = 0, uses_anonymous_args = 0
 374              	.LVL45:
 375 0000 F8B5     		push	{r3, r4, r5, r6, r7, lr}
 376              		.cfi_def_cfa_offset 24
 377              		.cfi_offset 3, -24
 378              		.cfi_offset 4, -20
 379              		.cfi_offset 5, -16
 380              		.cfi_offset 6, -12
 381              		.cfi_offset 7, -8
 382              		.cfi_offset 14, -4
 383 0002 0446     		mov	r4, r0
 384 0004 0D46     		mov	r5, r1
 385              	.LVL46:
 547:..\..\..\..\..\..\FreeRTOS\FreeRTOS\FreeRTOS\Source/event_groups.c ****     vTaskSuspendAll();
 386              		.loc 1 547 0
 387 0006 00F10C06 		add	r6, r0, #12
 388              	.LVL47:
 548:..\..\..\..\..\..\FreeRTOS\FreeRTOS\FreeRTOS\Source/event_groups.c ****     {
 389              		.loc 1 548 0
 390 000a FFF7FEFF 		bl	vTaskSuspendAll
 391              	.LVL48:
 552:..\..\..\..\..\..\FreeRTOS\FreeRTOS\FreeRTOS\Source/event_groups.c **** 
 392              		.loc 1 552 0
 393 000e 2069     		ldr	r0, [r4, #16]
 394              	.LVL49:
 555:..\..\..\..\..\..\FreeRTOS\FreeRTOS\FreeRTOS\Source/event_groups.c **** 
 395              		.loc 1 555 0
 396 0010 2368     		ldr	r3, [r4]
 397 0012 1D43     		orrs	r5, r5, r3
 398              	.LVL50:
 399 0014 2560     		str	r5, [r4]
 537:..\..\..\..\..\..\FreeRTOS\FreeRTOS\FreeRTOS\Source/event_groups.c ****     EventGroup_t * pxEventBits = xEventGroup;
 400              		.loc 1 537 0
 401 0016 0027     		movs	r7, #0
 558:..\..\..\..\..\..\FreeRTOS\FreeRTOS\FreeRTOS\Source/event_groups.c ****         {
 402              		.loc 1 558 0
 403 0018 1FE0     		b	.L27
 404              	.LVL51:
 405              	.L32:
 560:..\..\..\..\..\..\FreeRTOS\FreeRTOS\FreeRTOS\Source/event_groups.c ****             uxBitsWaitedFor = listGET_LIST_ITEM_VALUE( pxListItem );
 406              		.loc 1 560 0
 407 001a 4568     		ldr	r5, [r0, #4]
 408              	.LVL52:
 561:..\..\..\..\..\..\FreeRTOS\FreeRTOS\FreeRTOS\Source/event_groups.c ****             xMatchFound = pdFALSE;
 409              		.loc 1 561 0
 410 001c 0368     		ldr	r3, [r0]
 411              	.LVL53:
 566:..\..\..\..\..\..\FreeRTOS\FreeRTOS\FreeRTOS\Source/event_groups.c **** 
 412              		.loc 1 566 0
 413 001e 23F07F42 		bic	r2, r3, #-16777216
ARM GAS  C:\Users\u0036181\AppData\Local\Temp\cc3UM1Sh.s 			page 26


 414              	.LVL54:
 568:..\..\..\..\..\..\FreeRTOS\FreeRTOS\FreeRTOS\Source/event_groups.c ****             {
 415              		.loc 1 568 0
 416 0022 13F0806F 		tst	r3, #67108864
 417 0026 04D1     		bne	.L28
 571:..\..\..\..\..\..\FreeRTOS\FreeRTOS\FreeRTOS\Source/event_groups.c ****                 {
 418              		.loc 1 571 0
 419 0028 2168     		ldr	r1, [r4]
 420 002a 0A42     		tst	r2, r1
 421 002c 07D1     		bne	.L33
 562:..\..\..\..\..\..\FreeRTOS\FreeRTOS\FreeRTOS\Source/event_groups.c **** 
 422              		.loc 1 562 0
 423 002e 0021     		movs	r1, #0
 424 0030 08E0     		b	.L29
 425              	.L28:
 580:..\..\..\..\..\..\FreeRTOS\FreeRTOS\FreeRTOS\Source/event_groups.c ****             {
 426              		.loc 1 580 0
 427 0032 2168     		ldr	r1, [r4]
 428 0034 32EA0101 		bics	r1, r2, r1
 429 0038 03D0     		beq	.L34
 562:..\..\..\..\..\..\FreeRTOS\FreeRTOS\FreeRTOS\Source/event_groups.c **** 
 430              		.loc 1 562 0
 431 003a 0021     		movs	r1, #0
 432 003c 02E0     		b	.L29
 433              	.L33:
 573:..\..\..\..\..\..\FreeRTOS\FreeRTOS\FreeRTOS\Source/event_groups.c ****                 }
 434              		.loc 1 573 0
 435 003e 0121     		movs	r1, #1
 436 0040 00E0     		b	.L29
 437              	.L34:
 583:..\..\..\..\..\..\FreeRTOS\FreeRTOS\FreeRTOS\Source/event_groups.c ****             }
 438              		.loc 1 583 0
 439 0042 0121     		movs	r1, #1
 440              	.L29:
 441              	.LVL55:
 590:..\..\..\..\..\..\FreeRTOS\FreeRTOS\FreeRTOS\Source/event_groups.c ****             {
 442              		.loc 1 590 0
 443 0044 41B1     		cbz	r1, .L30
 593:..\..\..\..\..\..\FreeRTOS\FreeRTOS\FreeRTOS\Source/event_groups.c ****                 {
 444              		.loc 1 593 0
 445 0046 13F0807F 		tst	r3, #16777216
 446 004a 00D0     		beq	.L31
 595:..\..\..\..\..\..\FreeRTOS\FreeRTOS\FreeRTOS\Source/event_groups.c ****                 }
 447              		.loc 1 595 0
 448 004c 1743     		orrs	r7, r7, r2
 449              	.LVL56:
 450              	.L31:
 607:..\..\..\..\..\..\FreeRTOS\FreeRTOS\FreeRTOS\Source/event_groups.c ****             }
 451              		.loc 1 607 0
 452 004e 2168     		ldr	r1, [r4]
 453              	.LVL57:
 454 0050 41F00071 		orr	r1, r1, #33554432
 455 0054 FFF7FEFF 		bl	vTaskRemoveFromUnorderedEventList
 456              	.LVL58:
 457              	.L30:
 562:..\..\..\..\..\..\FreeRTOS\FreeRTOS\FreeRTOS\Source/event_groups.c **** 
 458              		.loc 1 562 0
ARM GAS  C:\Users\u0036181\AppData\Local\Temp\cc3UM1Sh.s 			page 27


 459 0058 2846     		mov	r0, r5
 460              	.LVL59:
 461              	.L27:
 558:..\..\..\..\..\..\FreeRTOS\FreeRTOS\FreeRTOS\Source/event_groups.c ****         {
 462              		.loc 1 558 0
 463 005a B042     		cmp	r0, r6
 464 005c DDD1     		bne	.L32
 618:..\..\..\..\..\..\FreeRTOS\FreeRTOS\FreeRTOS\Source/event_groups.c ****     }
 465              		.loc 1 618 0
 466 005e 2368     		ldr	r3, [r4]
 467 0060 23EA0707 		bic	r7, r3, r7
 468              	.LVL60:
 469 0064 2760     		str	r7, [r4]
 620:..\..\..\..\..\..\FreeRTOS\FreeRTOS\FreeRTOS\Source/event_groups.c **** 
 470              		.loc 1 620 0
 471 0066 FFF7FEFF 		bl	xTaskResumeAll
 472              	.LVL61:
 623:..\..\..\..\..\..\FreeRTOS\FreeRTOS\FreeRTOS\Source/event_groups.c **** /*-----------------------------------------------------------*/
 473              		.loc 1 623 0
 474 006a 2068     		ldr	r0, [r4]
 475 006c F8BD     		pop	{r3, r4, r5, r6, r7, pc}
 476              		.cfi_endproc
 477              	.LFE9:
 478              		.size	xEventGroupSetBits, .-xEventGroupSetBits
 479 006e 00BF     		.section	.text.xEventGroupSync,"ax",%progbits
 480              		.align	2
 481              		.global	xEventGroupSync
 482              		.thumb
 483              		.thumb_func
 484              		.type	xEventGroupSync, %function
 485              	xEventGroupSync:
 486              	.LFB5:
 196:..\..\..\..\..\..\FreeRTOS\FreeRTOS\FreeRTOS\Source/event_groups.c ****     EventBits_t uxOriginalBitValue, uxReturn;
 487              		.loc 1 196 0
 488              		.cfi_startproc
 489              		@ args = 0, pretend = 0, frame = 0
 490              		@ frame_needed = 0, uses_anonymous_args = 0
 491              	.LVL62:
 492 0000 2DE9F041 		push	{r4, r5, r6, r7, r8, lr}
 493              		.cfi_def_cfa_offset 24
 494              		.cfi_offset 4, -24
 495              		.cfi_offset 5, -20
 496              		.cfi_offset 6, -16
 497              		.cfi_offset 7, -12
 498              		.cfi_offset 8, -8
 499              		.cfi_offset 14, -4
 500 0004 0546     		mov	r5, r0
 501 0006 0C46     		mov	r4, r1
 502 0008 1746     		mov	r7, r2
 503 000a 1E46     		mov	r6, r3
 504              	.LVL63:
 210:..\..\..\..\..\..\FreeRTOS\FreeRTOS\FreeRTOS\Source/event_groups.c ****     {
 505              		.loc 1 210 0
 506 000c FFF7FEFF 		bl	vTaskSuspendAll
 507              	.LVL64:
 212:..\..\..\..\..\..\FreeRTOS\FreeRTOS\FreeRTOS\Source/event_groups.c **** 
 508              		.loc 1 212 0
ARM GAS  C:\Users\u0036181\AppData\Local\Temp\cc3UM1Sh.s 			page 28


 509 0010 D5F80080 		ldr	r8, [r5]
 510              	.LVL65:
 214:..\..\..\..\..\..\FreeRTOS\FreeRTOS\FreeRTOS\Source/event_groups.c **** 
 511              		.loc 1 214 0
 512 0014 2146     		mov	r1, r4
 513 0016 2846     		mov	r0, r5
 514 0018 FFF7FEFF 		bl	xEventGroupSetBits
 515              	.LVL66:
 216:..\..\..\..\..\..\FreeRTOS\FreeRTOS\FreeRTOS\Source/event_groups.c ****         {
 516              		.loc 1 216 0
 517 001c 48EA0404 		orr	r4, r8, r4
 518              	.LVL67:
 519 0020 37EA0403 		bics	r3, r7, r4
 520 0024 05D1     		bne	.L37
 521              	.LVL68:
 223:..\..\..\..\..\..\FreeRTOS\FreeRTOS\FreeRTOS\Source/event_groups.c **** 
 522              		.loc 1 223 0
 523 0026 2B68     		ldr	r3, [r5]
 524 0028 23EA0703 		bic	r3, r3, r7
 525 002c 2B60     		str	r3, [r5]
 526              	.LVL69:
 225:..\..\..\..\..\..\FreeRTOS\FreeRTOS\FreeRTOS\Source/event_groups.c ****         }
 527              		.loc 1 225 0
 528 002e 0026     		movs	r6, #0
 529 0030 09E0     		b	.L38
 530              	.LVL70:
 531              	.L37:
 229:..\..\..\..\..\..\FreeRTOS\FreeRTOS\FreeRTOS\Source/event_groups.c ****             {
 532              		.loc 1 229 0
 533 0032 3EB1     		cbz	r6, .L39
 236:..\..\..\..\..\..\FreeRTOS\FreeRTOS\FreeRTOS\Source/event_groups.c **** 
 534              		.loc 1 236 0
 535 0034 3246     		mov	r2, r6
 536 0036 47F0A061 		orr	r1, r7, #83886080
 537 003a 281D     		adds	r0, r5, #4
 538 003c FFF7FEFF 		bl	vTaskPlaceOnUnorderedEventList
 539              	.LVL71:
 242:..\..\..\..\..\..\FreeRTOS\FreeRTOS\FreeRTOS\Source/event_groups.c ****             }
 540              		.loc 1 242 0
 541 0040 0024     		movs	r4, #0
 542 0042 00E0     		b	.L38
 543              	.LVL72:
 544              	.L39:
 248:..\..\..\..\..\..\FreeRTOS\FreeRTOS\FreeRTOS\Source/event_groups.c ****                 xTimeoutOccurred = pdTRUE;
 545              		.loc 1 248 0
 546 0044 2C68     		ldr	r4, [r5]
 547              	.LVL73:
 548              	.L38:
 253:..\..\..\..\..\..\FreeRTOS\FreeRTOS\FreeRTOS\Source/event_groups.c **** 
 549              		.loc 1 253 0
 550 0046 FFF7FEFF 		bl	xTaskResumeAll
 551              	.LVL74:
 255:..\..\..\..\..\..\FreeRTOS\FreeRTOS\FreeRTOS\Source/event_groups.c ****     {
 552              		.loc 1 255 0
 553 004a DEB1     		cbz	r6, .L40
 257:..\..\..\..\..\..\FreeRTOS\FreeRTOS\FreeRTOS\Source/event_groups.c ****         {
 554              		.loc 1 257 0
ARM GAS  C:\Users\u0036181\AppData\Local\Temp\cc3UM1Sh.s 			page 29


 555 004c 38B9     		cbnz	r0, .L41
 259:..\..\..\..\..\..\FreeRTOS\FreeRTOS\FreeRTOS\Source/event_groups.c ****         }
 556              		.loc 1 259 0
 557 004e 4FF08052 		mov	r2, #268435456
 558 0052 0E4B     		ldr	r3, .L45
 559 0054 1A60     		str	r2, [r3]
 560              		.syntax unified
 561              	@ 259 "..\..\..\..\..\..\FreeRTOS\FreeRTOS\FreeRTOS\Source\event_groups.c" 1
 562 0056 BFF34F8F 		dsb
 563              	@ 0 "" 2
 564              	@ 259 "..\..\..\..\..\..\FreeRTOS\FreeRTOS\FreeRTOS\Source\event_groups.c" 1
 565 005a BFF36F8F 		isb
 566              	@ 0 "" 2
 567              		.thumb
 568              		.syntax unified
 569              	.L41:
 270:..\..\..\..\..\..\FreeRTOS\FreeRTOS\FreeRTOS\Source/event_groups.c **** 
 570              		.loc 1 270 0
 571 005e FFF7FEFF 		bl	uxTaskResetEventItemValue
 572              	.LVL75:
 573 0062 0446     		mov	r4, r0
 574              	.LVL76:
 272:..\..\..\..\..\..\FreeRTOS\FreeRTOS\FreeRTOS\Source/event_groups.c ****         {
 575              		.loc 1 272 0
 576 0064 10F0007F 		tst	r0, #33554432
 577 0068 0AD1     		bne	.L42
 275:..\..\..\..\..\..\FreeRTOS\FreeRTOS\FreeRTOS\Source/event_groups.c ****             {
 578              		.loc 1 275 0
 579 006a FFF7FEFF 		bl	vPortEnterCritical
 580              	.LVL77:
 277:..\..\..\..\..\..\FreeRTOS\FreeRTOS\FreeRTOS\Source/event_groups.c **** 
 581              		.loc 1 277 0
 582 006e 2C68     		ldr	r4, [r5]
 583              	.LVL78:
 283:..\..\..\..\..\..\FreeRTOS\FreeRTOS\FreeRTOS\Source/event_groups.c ****                 {
 584              		.loc 1 283 0
 585 0070 37EA0403 		bics	r3, r7, r4
 586 0074 02D1     		bne	.L43
 285:..\..\..\..\..\..\FreeRTOS\FreeRTOS\FreeRTOS\Source/event_groups.c ****                 }
 587              		.loc 1 285 0
 588 0076 24EA0707 		bic	r7, r4, r7
 589              	.LVL79:
 590 007a 2F60     		str	r7, [r5]
 591              	.L43:
 292:..\..\..\..\..\..\FreeRTOS\FreeRTOS\FreeRTOS\Source/event_groups.c **** 
 592              		.loc 1 292 0
 593 007c FFF7FEFF 		bl	vPortExitCritical
 594              	.LVL80:
 595              	.L42:
 303:..\..\..\..\..\..\FreeRTOS\FreeRTOS\FreeRTOS\Source/event_groups.c ****     }
 596              		.loc 1 303 0
 597 0080 24F07F44 		bic	r4, r4, #-16777216
 598              	.LVL81:
 599              	.L40:
 312:..\..\..\..\..\..\FreeRTOS\FreeRTOS\FreeRTOS\Source/event_groups.c **** /*-----------------------------------------------------------*/
 600              		.loc 1 312 0
 601 0084 2046     		mov	r0, r4
ARM GAS  C:\Users\u0036181\AppData\Local\Temp\cc3UM1Sh.s 			page 30


 602 0086 BDE8F081 		pop	{r4, r5, r6, r7, r8, pc}
 603              	.LVL82:
 604              	.L46:
 605 008a 00BF     		.align	2
 606              	.L45:
 607 008c 04ED00E0 		.word	-536810236
 608              		.cfi_endproc
 609              	.LFE5:
 610              		.size	xEventGroupSync, .-xEventGroupSync
 611              		.section	.text.vEventGroupDelete,"ax",%progbits
 612              		.align	2
 613              		.global	vEventGroupDelete
 614              		.thumb
 615              		.thumb_func
 616              		.type	vEventGroupDelete, %function
 617              	vEventGroupDelete:
 618              	.LFB10:
 627:..\..\..\..\..\..\FreeRTOS\FreeRTOS\FreeRTOS\Source/event_groups.c ****     EventGroup_t * pxEventBits = xEventGroup;
 619              		.loc 1 627 0
 620              		.cfi_startproc
 621              		@ args = 0, pretend = 0, frame = 0
 622              		@ frame_needed = 0, uses_anonymous_args = 0
 623              	.LVL83:
 624 0000 10B5     		push	{r4, lr}
 625              		.cfi_def_cfa_offset 8
 626              		.cfi_offset 4, -8
 627              		.cfi_offset 14, -4
 628 0002 0446     		mov	r4, r0
 629              	.LVL84:
 631:..\..\..\..\..\..\FreeRTOS\FreeRTOS\FreeRTOS\Source/event_groups.c ****     {
 630              		.loc 1 631 0
 631 0004 FFF7FEFF 		bl	vTaskSuspendAll
 632              	.LVL85:
 635:..\..\..\..\..\..\FreeRTOS\FreeRTOS\FreeRTOS\Source/event_groups.c ****         {
 633              		.loc 1 635 0
 634 0008 04E0     		b	.L48
 635              	.L49:
 640:..\..\..\..\..\..\FreeRTOS\FreeRTOS\FreeRTOS\Source/event_groups.c ****         }
 636              		.loc 1 640 0
 637 000a 4FF00071 		mov	r1, #33554432
 638 000e 2069     		ldr	r0, [r4, #16]
 639 0010 FFF7FEFF 		bl	vTaskRemoveFromUnorderedEventList
 640              	.LVL86:
 641              	.L48:
 635:..\..\..\..\..\..\FreeRTOS\FreeRTOS\FreeRTOS\Source/event_groups.c ****         {
 642              		.loc 1 635 0
 643 0014 6368     		ldr	r3, [r4, #4]
 644 0016 002B     		cmp	r3, #0
 645 0018 F7D1     		bne	.L49
 647:..\..\..\..\..\..\FreeRTOS\FreeRTOS\FreeRTOS\Source/event_groups.c ****             }
 646              		.loc 1 647 0
 647 001a 2046     		mov	r0, r4
 648 001c FFF7FEFF 		bl	vPortFree
 649              	.LVL87:
 664:..\..\..\..\..\..\FreeRTOS\FreeRTOS\FreeRTOS\Source/event_groups.c **** }
 650              		.loc 1 664 0
 651 0020 FFF7FEFF 		bl	xTaskResumeAll
ARM GAS  C:\Users\u0036181\AppData\Local\Temp\cc3UM1Sh.s 			page 31


 652              	.LVL88:
 653 0024 10BD     		pop	{r4, pc}
 654              		.cfi_endproc
 655              	.LFE10:
 656              		.size	vEventGroupDelete, .-vEventGroupDelete
 657 0026 00BF     		.section	.text.vEventGroupSetBitsCallback,"ax",%progbits
 658              		.align	2
 659              		.global	vEventGroupSetBitsCallback
 660              		.thumb
 661              		.thumb_func
 662              		.type	vEventGroupSetBitsCallback, %function
 663              	vEventGroupSetBitsCallback:
 664              	.LFB11:
 672:..\..\..\..\..\..\FreeRTOS\FreeRTOS\FreeRTOS\Source/event_groups.c ****     ( void ) xEventGroupSetBits( pvEventGroup, ( EventBits_t ) ulBitsToSet ); /*lint !e9079 Can't a
 665              		.loc 1 672 0
 666              		.cfi_startproc
 667              		@ args = 0, pretend = 0, frame = 0
 668              		@ frame_needed = 0, uses_anonymous_args = 0
 669              	.LVL89:
 670 0000 08B5     		push	{r3, lr}
 671              		.cfi_def_cfa_offset 8
 672              		.cfi_offset 3, -8
 673              		.cfi_offset 14, -4
 673:..\..\..\..\..\..\FreeRTOS\FreeRTOS\FreeRTOS\Source/event_groups.c **** }
 674              		.loc 1 673 0
 675 0002 FFF7FEFF 		bl	xEventGroupSetBits
 676              	.LVL90:
 677 0006 08BD     		pop	{r3, pc}
 678              		.cfi_endproc
 679              	.LFE11:
 680              		.size	vEventGroupSetBitsCallback, .-vEventGroupSetBitsCallback
 681              		.section	.text.vEventGroupClearBitsCallback,"ax",%progbits
 682              		.align	2
 683              		.global	vEventGroupClearBitsCallback
 684              		.thumb
 685              		.thumb_func
 686              		.type	vEventGroupClearBitsCallback, %function
 687              	vEventGroupClearBitsCallback:
 688              	.LFB12:
 681:..\..\..\..\..\..\FreeRTOS\FreeRTOS\FreeRTOS\Source/event_groups.c ****     ( void ) xEventGroupClearBits( pvEventGroup, ( EventBits_t ) ulBitsToClear ); /*lint !e9079 Can
 689              		.loc 1 681 0
 690              		.cfi_startproc
 691              		@ args = 0, pretend = 0, frame = 0
 692              		@ frame_needed = 0, uses_anonymous_args = 0
 693              	.LVL91:
 694 0000 08B5     		push	{r3, lr}
 695              		.cfi_def_cfa_offset 8
 696              		.cfi_offset 3, -8
 697              		.cfi_offset 14, -4
 682:..\..\..\..\..\..\FreeRTOS\FreeRTOS\FreeRTOS\Source/event_groups.c **** }
 698              		.loc 1 682 0
 699 0002 FFF7FEFF 		bl	xEventGroupClearBits
 700              	.LVL92:
 701 0006 08BD     		pop	{r3, pc}
 702              		.cfi_endproc
 703              	.LFE12:
 704              		.size	vEventGroupClearBitsCallback, .-vEventGroupClearBitsCallback
ARM GAS  C:\Users\u0036181\AppData\Local\Temp\cc3UM1Sh.s 			page 32


 705              		.text
 706              	.Letext0:
 707              		.file 3 "c:\\program files (x86)\\cypress\\psoc creator\\4.4\\psoc creator\\import\\gnu\\arm\\5.4.
 708              		.file 4 "c:\\program files (x86)\\cypress\\psoc creator\\4.4\\psoc creator\\import\\gnu\\arm\\5.4.
 709              		.file 5 "C:\\FreeRTOS\\FreeRTOS\\FreeRTOS\\Source\\include/list.h"
 710              		.file 6 "C:\\FreeRTOS\\FreeRTOS\\FreeRTOS\\Source\\include/event_groups.h"
 711              		.file 7 "C:\\FreeRTOS\\FreeRTOS\\FreeRTOS\\Source\\include/portable.h"
 712              		.file 8 "C:\\FreeRTOS\\FreeRTOS\\FreeRTOS\\Source\\include/task.h"