ARM GAS  C:\Users\u0036181\AppData\Local\Temp\cctS5qZj.s 			page 1


   1              		.syntax unified
   2              		.cpu cortex-m3
   3              		.fpu softvfp
   4              		.eabi_attribute 20, 1
   5              		.eabi_attribute 21, 1
   6              		.eabi_attribute 23, 3
   7              		.eabi_attribute 24, 1
   8              		.eabi_attribute 25, 1
   9              		.eabi_attribute 26, 1
  10              		.eabi_attribute 30, 1
  11              		.eabi_attribute 34, 1
  12              		.eabi_attribute 18, 4
  13              		.thumb
  14              		.syntax unified
  15              		.file	"heap_1.c"
  16              		.text
  17              	.Ltext0:
  18              		.cfi_sections	.debug_frame
  19              		.section	.text.pvPortMalloc,"ax",%progbits
  20              		.align	2
  21              		.global	pvPortMalloc
  22              		.thumb
  23              		.thumb_func
  24              		.type	pvPortMalloc, %function
  25              	pvPortMalloc:
  26              	.LFB4:
  27              		.file 1 "..\\..\\..\\..\\..\\..\\FreeRTOS\\FreeRTOS\\FreeRTOS\\Source\\portable\\MemMang\\heap_1.c
   1:..\..\..\..\..\..\FreeRTOS\FreeRTOS\FreeRTOS\Source\portable\MemMang/heap_1.c **** /*
   2:..\..\..\..\..\..\FreeRTOS\FreeRTOS\FreeRTOS\Source\portable\MemMang/heap_1.c ****  * FreeRTOS Kernel V10.4.0
   3:..\..\..\..\..\..\FreeRTOS\FreeRTOS\FreeRTOS\Source\portable\MemMang/heap_1.c ****  * Copyright (C) 2020 Amazon.com, Inc. or its affiliates.  All Rights Reserved.
   4:..\..\..\..\..\..\FreeRTOS\FreeRTOS\FreeRTOS\Source\portable\MemMang/heap_1.c ****  *
   5:..\..\..\..\..\..\FreeRTOS\FreeRTOS\FreeRTOS\Source\portable\MemMang/heap_1.c ****  * Permission is hereby granted, free of charge, to any person obtaining a copy of
   6:..\..\..\..\..\..\FreeRTOS\FreeRTOS\FreeRTOS\Source\portable\MemMang/heap_1.c ****  * this software and associated documentation files (the "Software"), to deal in
   7:..\..\..\..\..\..\FreeRTOS\FreeRTOS\FreeRTOS\Source\portable\MemMang/heap_1.c ****  * the Software without restriction, including without limitation the rights to
   8:..\..\..\..\..\..\FreeRTOS\FreeRTOS\FreeRTOS\Source\portable\MemMang/heap_1.c ****  * use, copy, modify, merge, publish, distribute, sublicense, and/or sell copies of
   9:..\..\..\..\..\..\FreeRTOS\FreeRTOS\FreeRTOS\Source\portable\MemMang/heap_1.c ****  * the Software, and to permit persons to whom the Software is furnished to do so,
  10:..\..\..\..\..\..\FreeRTOS\FreeRTOS\FreeRTOS\Source\portable\MemMang/heap_1.c ****  * subject to the following conditions:
  11:..\..\..\..\..\..\FreeRTOS\FreeRTOS\FreeRTOS\Source\portable\MemMang/heap_1.c ****  *
  12:..\..\..\..\..\..\FreeRTOS\FreeRTOS\FreeRTOS\Source\portable\MemMang/heap_1.c ****  * The above copyright notice and this permission notice shall be included in all
  13:..\..\..\..\..\..\FreeRTOS\FreeRTOS\FreeRTOS\Source\portable\MemMang/heap_1.c ****  * copies or substantial portions of the Software.
  14:..\..\..\..\..\..\FreeRTOS\FreeRTOS\FreeRTOS\Source\portable\MemMang/heap_1.c ****  *
  15:..\..\..\..\..\..\FreeRTOS\FreeRTOS\FreeRTOS\Source\portable\MemMang/heap_1.c ****  * THE SOFTWARE IS PROVIDED "AS IS", WITHOUT WARRANTY OF ANY KIND, EXPRESS OR
  16:..\..\..\..\..\..\FreeRTOS\FreeRTOS\FreeRTOS\Source\portable\MemMang/heap_1.c ****  * IMPLIED, INCLUDING BUT NOT LIMITED TO THE WARRANTIES OF MERCHANTABILITY, FITNESS
  17:..\..\..\..\..\..\FreeRTOS\FreeRTOS\FreeRTOS\Source\portable\MemMang/heap_1.c ****  * FOR A PARTICULAR PURPOSE AND NONINFRINGEMENT. IN NO EVENT SHALL THE AUTHORS OR
  18:..\..\..\..\..\..\FreeRTOS\FreeRTOS\FreeRTOS\Source\portable\MemMang/heap_1.c ****  * COPYRIGHT HOLDERS BE LIABLE FOR ANY CLAIM, DAMAGES OR OTHER LIABILITY, WHETHER
  19:..\..\..\..\..\..\FreeRTOS\FreeRTOS\FreeRTOS\Source\portable\MemMang/heap_1.c ****  * IN AN ACTION OF CONTRACT, TORT OR OTHERWISE, ARISING FROM, OUT OF OR IN
  20:..\..\..\..\..\..\FreeRTOS\FreeRTOS\FreeRTOS\Source\portable\MemMang/heap_1.c ****  * CONNECTION WITH THE SOFTWARE OR THE USE OR OTHER DEALINGS IN THE SOFTWARE.
  21:..\..\..\..\..\..\FreeRTOS\FreeRTOS\FreeRTOS\Source\portable\MemMang/heap_1.c ****  *
  22:..\..\..\..\..\..\FreeRTOS\FreeRTOS\FreeRTOS\Source\portable\MemMang/heap_1.c ****  * https://www.FreeRTOS.org
  23:..\..\..\..\..\..\FreeRTOS\FreeRTOS\FreeRTOS\Source\portable\MemMang/heap_1.c ****  * https://github.com/FreeRTOS
  24:..\..\..\..\..\..\FreeRTOS\FreeRTOS\FreeRTOS\Source\portable\MemMang/heap_1.c ****  *
  25:..\..\..\..\..\..\FreeRTOS\FreeRTOS\FreeRTOS\Source\portable\MemMang/heap_1.c ****  * 1 tab == 4 spaces!
  26:..\..\..\..\..\..\FreeRTOS\FreeRTOS\FreeRTOS\Source\portable\MemMang/heap_1.c ****  */
  27:..\..\..\..\..\..\FreeRTOS\FreeRTOS\FreeRTOS\Source\portable\MemMang/heap_1.c **** 
  28:..\..\..\..\..\..\FreeRTOS\FreeRTOS\FreeRTOS\Source\portable\MemMang/heap_1.c **** 
  29:..\..\..\..\..\..\FreeRTOS\FreeRTOS\FreeRTOS\Source\portable\MemMang/heap_1.c **** /*
  30:..\..\..\..\..\..\FreeRTOS\FreeRTOS\FreeRTOS\Source\portable\MemMang/heap_1.c ****  * The simplest possible implementation of pvPortMalloc().  Note that this
ARM GAS  C:\Users\u0036181\AppData\Local\Temp\cctS5qZj.s 			page 2


  31:..\..\..\..\..\..\FreeRTOS\FreeRTOS\FreeRTOS\Source\portable\MemMang/heap_1.c ****  * implementation does NOT allow allocated memory to be freed again.
  32:..\..\..\..\..\..\FreeRTOS\FreeRTOS\FreeRTOS\Source\portable\MemMang/heap_1.c ****  *
  33:..\..\..\..\..\..\FreeRTOS\FreeRTOS\FreeRTOS\Source\portable\MemMang/heap_1.c ****  * See heap_2.c, heap_3.c and heap_4.c for alternative implementations, and the
  34:..\..\..\..\..\..\FreeRTOS\FreeRTOS\FreeRTOS\Source\portable\MemMang/heap_1.c ****  * memory management pages of https://www.FreeRTOS.org for more information.
  35:..\..\..\..\..\..\FreeRTOS\FreeRTOS\FreeRTOS\Source\portable\MemMang/heap_1.c ****  */
  36:..\..\..\..\..\..\FreeRTOS\FreeRTOS\FreeRTOS\Source\portable\MemMang/heap_1.c **** #include <stdlib.h>
  37:..\..\..\..\..\..\FreeRTOS\FreeRTOS\FreeRTOS\Source\portable\MemMang/heap_1.c **** 
  38:..\..\..\..\..\..\FreeRTOS\FreeRTOS\FreeRTOS\Source\portable\MemMang/heap_1.c **** /* Defining MPU_WRAPPERS_INCLUDED_FROM_API_FILE prevents task.h from redefining
  39:..\..\..\..\..\..\FreeRTOS\FreeRTOS\FreeRTOS\Source\portable\MemMang/heap_1.c ****  * all the API functions to use the MPU wrappers.  That should only be done when
  40:..\..\..\..\..\..\FreeRTOS\FreeRTOS\FreeRTOS\Source\portable\MemMang/heap_1.c ****  * task.h is included from an application file. */
  41:..\..\..\..\..\..\FreeRTOS\FreeRTOS\FreeRTOS\Source\portable\MemMang/heap_1.c **** #define MPU_WRAPPERS_INCLUDED_FROM_API_FILE
  42:..\..\..\..\..\..\FreeRTOS\FreeRTOS\FreeRTOS\Source\portable\MemMang/heap_1.c **** 
  43:..\..\..\..\..\..\FreeRTOS\FreeRTOS\FreeRTOS\Source\portable\MemMang/heap_1.c **** #include "FreeRTOS.h"
  44:..\..\..\..\..\..\FreeRTOS\FreeRTOS\FreeRTOS\Source\portable\MemMang/heap_1.c **** #include "task.h"
  45:..\..\..\..\..\..\FreeRTOS\FreeRTOS\FreeRTOS\Source\portable\MemMang/heap_1.c **** 
  46:..\..\..\..\..\..\FreeRTOS\FreeRTOS\FreeRTOS\Source\portable\MemMang/heap_1.c **** #undef MPU_WRAPPERS_INCLUDED_FROM_API_FILE
  47:..\..\..\..\..\..\FreeRTOS\FreeRTOS\FreeRTOS\Source\portable\MemMang/heap_1.c **** 
  48:..\..\..\..\..\..\FreeRTOS\FreeRTOS\FreeRTOS\Source\portable\MemMang/heap_1.c **** #if ( configSUPPORT_DYNAMIC_ALLOCATION == 0 )
  49:..\..\..\..\..\..\FreeRTOS\FreeRTOS\FreeRTOS\Source\portable\MemMang/heap_1.c ****     #error This file must not be used if configSUPPORT_DYNAMIC_ALLOCATION is 0
  50:..\..\..\..\..\..\FreeRTOS\FreeRTOS\FreeRTOS\Source\portable\MemMang/heap_1.c **** #endif
  51:..\..\..\..\..\..\FreeRTOS\FreeRTOS\FreeRTOS\Source\portable\MemMang/heap_1.c **** 
  52:..\..\..\..\..\..\FreeRTOS\FreeRTOS\FreeRTOS\Source\portable\MemMang/heap_1.c **** /* A few bytes might be lost to byte aligning the heap start address. */
  53:..\..\..\..\..\..\FreeRTOS\FreeRTOS\FreeRTOS\Source\portable\MemMang/heap_1.c **** #define configADJUSTED_HEAP_SIZE    ( configTOTAL_HEAP_SIZE - portBYTE_ALIGNMENT )
  54:..\..\..\..\..\..\FreeRTOS\FreeRTOS\FreeRTOS\Source\portable\MemMang/heap_1.c **** 
  55:..\..\..\..\..\..\FreeRTOS\FreeRTOS\FreeRTOS\Source\portable\MemMang/heap_1.c **** /* Allocate the memory for the heap. */
  56:..\..\..\..\..\..\FreeRTOS\FreeRTOS\FreeRTOS\Source\portable\MemMang/heap_1.c **** #if ( configAPPLICATION_ALLOCATED_HEAP == 1 )
  57:..\..\..\..\..\..\FreeRTOS\FreeRTOS\FreeRTOS\Source\portable\MemMang/heap_1.c **** 
  58:..\..\..\..\..\..\FreeRTOS\FreeRTOS\FreeRTOS\Source\portable\MemMang/heap_1.c **** /* The application writer has already defined the array used for the RTOS
  59:..\..\..\..\..\..\FreeRTOS\FreeRTOS\FreeRTOS\Source\portable\MemMang/heap_1.c **** * heap - probably so it can be placed in a special segment or address. */
  60:..\..\..\..\..\..\FreeRTOS\FreeRTOS\FreeRTOS\Source\portable\MemMang/heap_1.c ****     extern uint8_t ucHeap[ configTOTAL_HEAP_SIZE ];
  61:..\..\..\..\..\..\FreeRTOS\FreeRTOS\FreeRTOS\Source\portable\MemMang/heap_1.c **** #else
  62:..\..\..\..\..\..\FreeRTOS\FreeRTOS\FreeRTOS\Source\portable\MemMang/heap_1.c ****     static uint8_t ucHeap[ configTOTAL_HEAP_SIZE ];
  63:..\..\..\..\..\..\FreeRTOS\FreeRTOS\FreeRTOS\Source\portable\MemMang/heap_1.c **** #endif /* configAPPLICATION_ALLOCATED_HEAP */
  64:..\..\..\..\..\..\FreeRTOS\FreeRTOS\FreeRTOS\Source\portable\MemMang/heap_1.c **** 
  65:..\..\..\..\..\..\FreeRTOS\FreeRTOS\FreeRTOS\Source\portable\MemMang/heap_1.c **** /* Index into the ucHeap array. */
  66:..\..\..\..\..\..\FreeRTOS\FreeRTOS\FreeRTOS\Source\portable\MemMang/heap_1.c **** static size_t xNextFreeByte = ( size_t ) 0;
  67:..\..\..\..\..\..\FreeRTOS\FreeRTOS\FreeRTOS\Source\portable\MemMang/heap_1.c **** 
  68:..\..\..\..\..\..\FreeRTOS\FreeRTOS\FreeRTOS\Source\portable\MemMang/heap_1.c **** /*-----------------------------------------------------------*/
  69:..\..\..\..\..\..\FreeRTOS\FreeRTOS\FreeRTOS\Source\portable\MemMang/heap_1.c **** 
  70:..\..\..\..\..\..\FreeRTOS\FreeRTOS\FreeRTOS\Source\portable\MemMang/heap_1.c **** void * pvPortMalloc( size_t xWantedSize )
  71:..\..\..\..\..\..\FreeRTOS\FreeRTOS\FreeRTOS\Source\portable\MemMang/heap_1.c **** {
  28              		.loc 1 71 0
  29              		.cfi_startproc
  30              		@ args = 0, pretend = 0, frame = 0
  31              		@ frame_needed = 0, uses_anonymous_args = 0
  32              	.LVL0:
  33 0000 38B5     		push	{r3, r4, r5, lr}
  34              		.cfi_def_cfa_offset 16
  35              		.cfi_offset 3, -16
  36              		.cfi_offset 4, -12
  37              		.cfi_offset 5, -8
  38              		.cfi_offset 14, -4
  39 0002 0446     		mov	r4, r0
  40              	.LVL1:
  72:..\..\..\..\..\..\FreeRTOS\FreeRTOS\FreeRTOS\Source\portable\MemMang/heap_1.c ****     void * pvReturn = NULL;
  73:..\..\..\..\..\..\FreeRTOS\FreeRTOS\FreeRTOS\Source\portable\MemMang/heap_1.c ****     static uint8_t * pucAlignedHeap = NULL;
  74:..\..\..\..\..\..\FreeRTOS\FreeRTOS\FreeRTOS\Source\portable\MemMang/heap_1.c **** 
ARM GAS  C:\Users\u0036181\AppData\Local\Temp\cctS5qZj.s 			page 3


  75:..\..\..\..\..\..\FreeRTOS\FreeRTOS\FreeRTOS\Source\portable\MemMang/heap_1.c ****     /* Ensure that blocks are always aligned to the required number of bytes. */
  76:..\..\..\..\..\..\FreeRTOS\FreeRTOS\FreeRTOS\Source\portable\MemMang/heap_1.c ****     #if ( portBYTE_ALIGNMENT != 1 )
  77:..\..\..\..\..\..\FreeRTOS\FreeRTOS\FreeRTOS\Source\portable\MemMang/heap_1.c ****         {
  78:..\..\..\..\..\..\FreeRTOS\FreeRTOS\FreeRTOS\Source\portable\MemMang/heap_1.c ****             if( xWantedSize & portBYTE_ALIGNMENT_MASK )
  41              		.loc 1 78 0
  42 0004 10F0070F 		tst	r0, #7
  43 0008 02D0     		beq	.L2
  79:..\..\..\..\..\..\FreeRTOS\FreeRTOS\FreeRTOS\Source\portable\MemMang/heap_1.c ****             {
  80:..\..\..\..\..\..\FreeRTOS\FreeRTOS\FreeRTOS\Source\portable\MemMang/heap_1.c ****                 /* Byte alignment required. */
  81:..\..\..\..\..\..\FreeRTOS\FreeRTOS\FreeRTOS\Source\portable\MemMang/heap_1.c ****                 xWantedSize += ( portBYTE_ALIGNMENT - ( xWantedSize & portBYTE_ALIGNMENT_MASK ) );
  44              		.loc 1 81 0
  45 000a 20F00704 		bic	r4, r0, #7
  46 000e 0834     		adds	r4, r4, #8
  47              	.LVL2:
  48              	.L2:
  82:..\..\..\..\..\..\FreeRTOS\FreeRTOS\FreeRTOS\Source\portable\MemMang/heap_1.c ****             }
  83:..\..\..\..\..\..\FreeRTOS\FreeRTOS\FreeRTOS\Source\portable\MemMang/heap_1.c ****         }
  84:..\..\..\..\..\..\FreeRTOS\FreeRTOS\FreeRTOS\Source\portable\MemMang/heap_1.c ****     #endif
  85:..\..\..\..\..\..\FreeRTOS\FreeRTOS\FreeRTOS\Source\portable\MemMang/heap_1.c **** 
  86:..\..\..\..\..\..\FreeRTOS\FreeRTOS\FreeRTOS\Source\portable\MemMang/heap_1.c ****     vTaskSuspendAll();
  49              		.loc 1 86 0
  50 0010 FFF7FEFF 		bl	vTaskSuspendAll
  51              	.LVL3:
  87:..\..\..\..\..\..\FreeRTOS\FreeRTOS\FreeRTOS\Source\portable\MemMang/heap_1.c ****     {
  88:..\..\..\..\..\..\FreeRTOS\FreeRTOS\FreeRTOS\Source\portable\MemMang/heap_1.c ****         if( pucAlignedHeap == NULL )
  52              		.loc 1 88 0
  53 0014 104B     		ldr	r3, .L8
  54 0016 1B68     		ldr	r3, [r3]
  55 0018 2BB9     		cbnz	r3, .L3
  89:..\..\..\..\..\..\FreeRTOS\FreeRTOS\FreeRTOS\Source\portable\MemMang/heap_1.c ****         {
  90:..\..\..\..\..\..\FreeRTOS\FreeRTOS\FreeRTOS\Source\portable\MemMang/heap_1.c ****             /* Ensure the heap starts on a correctly aligned boundary. */
  91:..\..\..\..\..\..\FreeRTOS\FreeRTOS\FreeRTOS\Source\portable\MemMang/heap_1.c ****             pucAlignedHeap = ( uint8_t * ) ( ( ( portPOINTER_SIZE_TYPE ) & ucHeap[ portBYTE_ALIGNME
  56              		.loc 1 91 0
  57 001a 0F4A     		ldr	r2, .L8
  58 001c 02F10C03 		add	r3, r2, #12
  59 0020 23F00703 		bic	r3, r3, #7
  60 0024 1360     		str	r3, [r2]
  61              	.L3:
  92:..\..\..\..\..\..\FreeRTOS\FreeRTOS\FreeRTOS\Source\portable\MemMang/heap_1.c ****         }
  93:..\..\..\..\..\..\FreeRTOS\FreeRTOS\FreeRTOS\Source\portable\MemMang/heap_1.c **** 
  94:..\..\..\..\..\..\FreeRTOS\FreeRTOS\FreeRTOS\Source\portable\MemMang/heap_1.c ****         /* Check there is enough room left for the allocation. */
  95:..\..\..\..\..\..\FreeRTOS\FreeRTOS\FreeRTOS\Source\portable\MemMang/heap_1.c ****         if( ( ( xNextFreeByte + xWantedSize ) < configADJUSTED_HEAP_SIZE ) &&
  62              		.loc 1 95 0
  63 0026 0D4B     		ldr	r3, .L8+4
  64 0028 D3F81436 		ldr	r3, [r3, #1556]
  65 002c 1C44     		add	r4, r4, r3
  66              	.LVL4:
  67 002e 42F2F772 		movw	r2, #10231
  68 0032 9442     		cmp	r4, r2
  69 0034 08D8     		bhi	.L5
  70              		.loc 1 95 0 is_stmt 0 discriminator 1
  71 0036 A342     		cmp	r3, r4
  72 0038 08D2     		bcs	.L6
  96:..\..\..\..\..\..\FreeRTOS\FreeRTOS\FreeRTOS\Source\portable\MemMang/heap_1.c ****             ( ( xNextFreeByte + xWantedSize ) > xNextFreeByte ) ) /* Check for overflow. */
  97:..\..\..\..\..\..\FreeRTOS\FreeRTOS\FreeRTOS\Source\portable\MemMang/heap_1.c ****         {
  98:..\..\..\..\..\..\FreeRTOS\FreeRTOS\FreeRTOS\Source\portable\MemMang/heap_1.c ****             /* Return the next free byte then increment the index past this
  99:..\..\..\..\..\..\FreeRTOS\FreeRTOS\FreeRTOS\Source\portable\MemMang/heap_1.c ****              * block. */
ARM GAS  C:\Users\u0036181\AppData\Local\Temp\cctS5qZj.s 			page 4


 100:..\..\..\..\..\..\FreeRTOS\FreeRTOS\FreeRTOS\Source\portable\MemMang/heap_1.c ****             pvReturn = pucAlignedHeap + xNextFreeByte;
  73              		.loc 1 100 0 is_stmt 1
  74 003a 074A     		ldr	r2, .L8
  75 003c 1568     		ldr	r5, [r2]
  76 003e 1D44     		add	r5, r5, r3
  77              	.LVL5:
 101:..\..\..\..\..\..\FreeRTOS\FreeRTOS\FreeRTOS\Source\portable\MemMang/heap_1.c ****             xNextFreeByte += xWantedSize;
  78              		.loc 1 101 0
  79 0040 064B     		ldr	r3, .L8+4
  80 0042 C3F81446 		str	r4, [r3, #1556]
  81 0046 02E0     		b	.L4
  82              	.LVL6:
  83              	.L5:
  72:..\..\..\..\..\..\FreeRTOS\FreeRTOS\FreeRTOS\Source\portable\MemMang/heap_1.c ****     static uint8_t * pucAlignedHeap = NULL;
  84              		.loc 1 72 0
  85 0048 0025     		movs	r5, #0
  86 004a 00E0     		b	.L4
  87              	.L6:
  88 004c 0025     		movs	r5, #0
  89              	.LVL7:
  90              	.L4:
 102:..\..\..\..\..\..\FreeRTOS\FreeRTOS\FreeRTOS\Source\portable\MemMang/heap_1.c ****         }
 103:..\..\..\..\..\..\FreeRTOS\FreeRTOS\FreeRTOS\Source\portable\MemMang/heap_1.c **** 
 104:..\..\..\..\..\..\FreeRTOS\FreeRTOS\FreeRTOS\Source\portable\MemMang/heap_1.c ****         traceMALLOC( pvReturn, xWantedSize );
 105:..\..\..\..\..\..\FreeRTOS\FreeRTOS\FreeRTOS\Source\portable\MemMang/heap_1.c ****     }
 106:..\..\..\..\..\..\FreeRTOS\FreeRTOS\FreeRTOS\Source\portable\MemMang/heap_1.c ****     ( void ) xTaskResumeAll();
  91              		.loc 1 106 0
  92 004e FFF7FEFF 		bl	xTaskResumeAll
  93              	.LVL8:
 107:..\..\..\..\..\..\FreeRTOS\FreeRTOS\FreeRTOS\Source\portable\MemMang/heap_1.c **** 
 108:..\..\..\..\..\..\FreeRTOS\FreeRTOS\FreeRTOS\Source\portable\MemMang/heap_1.c ****     #if ( configUSE_MALLOC_FAILED_HOOK == 1 )
 109:..\..\..\..\..\..\FreeRTOS\FreeRTOS\FreeRTOS\Source\portable\MemMang/heap_1.c ****         {
 110:..\..\..\..\..\..\FreeRTOS\FreeRTOS\FreeRTOS\Source\portable\MemMang/heap_1.c ****             if( pvReturn == NULL )
 111:..\..\..\..\..\..\FreeRTOS\FreeRTOS\FreeRTOS\Source\portable\MemMang/heap_1.c ****             {
 112:..\..\..\..\..\..\FreeRTOS\FreeRTOS\FreeRTOS\Source\portable\MemMang/heap_1.c ****                 extern void vApplicationMallocFailedHook( void );
 113:..\..\..\..\..\..\FreeRTOS\FreeRTOS\FreeRTOS\Source\portable\MemMang/heap_1.c ****                 vApplicationMallocFailedHook();
 114:..\..\..\..\..\..\FreeRTOS\FreeRTOS\FreeRTOS\Source\portable\MemMang/heap_1.c ****             }
 115:..\..\..\..\..\..\FreeRTOS\FreeRTOS\FreeRTOS\Source\portable\MemMang/heap_1.c ****         }
 116:..\..\..\..\..\..\FreeRTOS\FreeRTOS\FreeRTOS\Source\portable\MemMang/heap_1.c ****     #endif
 117:..\..\..\..\..\..\FreeRTOS\FreeRTOS\FreeRTOS\Source\portable\MemMang/heap_1.c **** 
 118:..\..\..\..\..\..\FreeRTOS\FreeRTOS\FreeRTOS\Source\portable\MemMang/heap_1.c ****     return pvReturn;
 119:..\..\..\..\..\..\FreeRTOS\FreeRTOS\FreeRTOS\Source\portable\MemMang/heap_1.c **** }
  94              		.loc 1 119 0
  95 0052 2846     		mov	r0, r5
  96 0054 38BD     		pop	{r3, r4, r5, pc}
  97              	.LVL9:
  98              	.L9:
  99 0056 00BF     		.align	2
 100              	.L8:
 101 0058 00000000 		.word	.LANCHOR0
 102 005c F0210000 		.word	.LANCHOR1
 103              		.cfi_endproc
 104              	.LFE4:
 105              		.size	pvPortMalloc, .-pvPortMalloc
 106              		.section	.text.vPortFree,"ax",%progbits
 107              		.align	2
 108              		.global	vPortFree
ARM GAS  C:\Users\u0036181\AppData\Local\Temp\cctS5qZj.s 			page 5


 109              		.thumb
 110              		.thumb_func
 111              		.type	vPortFree, %function
 112              	vPortFree:
 113              	.LFB5:
 120:..\..\..\..\..\..\FreeRTOS\FreeRTOS\FreeRTOS\Source\portable\MemMang/heap_1.c **** /*-----------------------------------------------------------*/
 121:..\..\..\..\..\..\FreeRTOS\FreeRTOS\FreeRTOS\Source\portable\MemMang/heap_1.c **** 
 122:..\..\..\..\..\..\FreeRTOS\FreeRTOS\FreeRTOS\Source\portable\MemMang/heap_1.c **** void vPortFree( void * pv )
 123:..\..\..\..\..\..\FreeRTOS\FreeRTOS\FreeRTOS\Source\portable\MemMang/heap_1.c **** {
 114              		.loc 1 123 0
 115              		.cfi_startproc
 116              		@ args = 0, pretend = 0, frame = 0
 117              		@ frame_needed = 0, uses_anonymous_args = 0
 118              		@ link register save eliminated.
 119              	.LVL10:
 120 0000 7047     		bx	lr
 121              		.cfi_endproc
 122              	.LFE5:
 123              		.size	vPortFree, .-vPortFree
 124 0002 00BF     		.section	.text.vPortInitialiseBlocks,"ax",%progbits
 125              		.align	2
 126              		.global	vPortInitialiseBlocks
 127              		.thumb
 128              		.thumb_func
 129              		.type	vPortInitialiseBlocks, %function
 130              	vPortInitialiseBlocks:
 131              	.LFB6:
 124:..\..\..\..\..\..\FreeRTOS\FreeRTOS\FreeRTOS\Source\portable\MemMang/heap_1.c ****     /* Memory cannot be freed using this scheme.  See heap_2.c, heap_3.c and
 125:..\..\..\..\..\..\FreeRTOS\FreeRTOS\FreeRTOS\Source\portable\MemMang/heap_1.c ****      * heap_4.c for alternative implementations, and the memory management pages of
 126:..\..\..\..\..\..\FreeRTOS\FreeRTOS\FreeRTOS\Source\portable\MemMang/heap_1.c ****      * https://www.FreeRTOS.org for more information. */
 127:..\..\..\..\..\..\FreeRTOS\FreeRTOS\FreeRTOS\Source\portable\MemMang/heap_1.c ****     ( void ) pv;
 128:..\..\..\..\..\..\FreeRTOS\FreeRTOS\FreeRTOS\Source\portable\MemMang/heap_1.c **** 
 129:..\..\..\..\..\..\FreeRTOS\FreeRTOS\FreeRTOS\Source\portable\MemMang/heap_1.c ****     /* Force an assert as it is invalid to call this function. */
 130:..\..\..\..\..\..\FreeRTOS\FreeRTOS\FreeRTOS\Source\portable\MemMang/heap_1.c ****     configASSERT( pv == NULL );
 131:..\..\..\..\..\..\FreeRTOS\FreeRTOS\FreeRTOS\Source\portable\MemMang/heap_1.c **** }
 132:..\..\..\..\..\..\FreeRTOS\FreeRTOS\FreeRTOS\Source\portable\MemMang/heap_1.c **** /*-----------------------------------------------------------*/
 133:..\..\..\..\..\..\FreeRTOS\FreeRTOS\FreeRTOS\Source\portable\MemMang/heap_1.c **** 
 134:..\..\..\..\..\..\FreeRTOS\FreeRTOS\FreeRTOS\Source\portable\MemMang/heap_1.c **** void vPortInitialiseBlocks( void )
 135:..\..\..\..\..\..\FreeRTOS\FreeRTOS\FreeRTOS\Source\portable\MemMang/heap_1.c **** {
 132              		.loc 1 135 0
 133              		.cfi_startproc
 134              		@ args = 0, pretend = 0, frame = 0
 135              		@ frame_needed = 0, uses_anonymous_args = 0
 136              		@ link register save eliminated.
 136:..\..\..\..\..\..\FreeRTOS\FreeRTOS\FreeRTOS\Source\portable\MemMang/heap_1.c ****     /* Only required when static memory is not cleared. */
 137:..\..\..\..\..\..\FreeRTOS\FreeRTOS\FreeRTOS\Source\portable\MemMang/heap_1.c ****     xNextFreeByte = ( size_t ) 0;
 137              		.loc 1 137 0
 138 0000 0022     		movs	r2, #0
 139 0002 024B     		ldr	r3, .L12
 140 0004 C3F81426 		str	r2, [r3, #1556]
 141 0008 7047     		bx	lr
 142              	.L13:
 143 000a 00BF     		.align	2
 144              	.L12:
 145 000c F0210000 		.word	.LANCHOR1
 146              		.cfi_endproc
 147              	.LFE6:
ARM GAS  C:\Users\u0036181\AppData\Local\Temp\cctS5qZj.s 			page 6


 148              		.size	vPortInitialiseBlocks, .-vPortInitialiseBlocks
 149              		.section	.text.xPortGetFreeHeapSize,"ax",%progbits
 150              		.align	2
 151              		.global	xPortGetFreeHeapSize
 152              		.thumb
 153              		.thumb_func
 154              		.type	xPortGetFreeHeapSize, %function
 155              	xPortGetFreeHeapSize:
 156              	.LFB7:
 138:..\..\..\..\..\..\FreeRTOS\FreeRTOS\FreeRTOS\Source\portable\MemMang/heap_1.c **** }
 139:..\..\..\..\..\..\FreeRTOS\FreeRTOS\FreeRTOS\Source\portable\MemMang/heap_1.c **** /*-----------------------------------------------------------*/
 140:..\..\..\..\..\..\FreeRTOS\FreeRTOS\FreeRTOS\Source\portable\MemMang/heap_1.c **** 
 141:..\..\..\..\..\..\FreeRTOS\FreeRTOS\FreeRTOS\Source\portable\MemMang/heap_1.c **** size_t xPortGetFreeHeapSize( void )
 142:..\..\..\..\..\..\FreeRTOS\FreeRTOS\FreeRTOS\Source\portable\MemMang/heap_1.c **** {
 157              		.loc 1 142 0
 158              		.cfi_startproc
 159              		@ args = 0, pretend = 0, frame = 0
 160              		@ frame_needed = 0, uses_anonymous_args = 0
 161              		@ link register save eliminated.
 143:..\..\..\..\..\..\FreeRTOS\FreeRTOS\FreeRTOS\Source\portable\MemMang/heap_1.c ****     return( configADJUSTED_HEAP_SIZE - xNextFreeByte );
 162              		.loc 1 143 0
 163 0000 034B     		ldr	r3, .L15
 164 0002 D3F81406 		ldr	r0, [r3, #1556]
 144:..\..\..\..\..\..\FreeRTOS\FreeRTOS\FreeRTOS\Source\portable\MemMang/heap_1.c **** }
 165              		.loc 1 144 0
 166 0006 C0F51F50 		rsb	r0, r0, #10176
 167 000a 3830     		adds	r0, r0, #56
 168 000c 7047     		bx	lr
 169              	.L16:
 170 000e 00BF     		.align	2
 171              	.L15:
 172 0010 F0210000 		.word	.LANCHOR1
 173              		.cfi_endproc
 174              	.LFE7:
 175              		.size	xPortGetFreeHeapSize, .-xPortGetFreeHeapSize
 176              		.bss
 177              		.align	2
 178              		.set	.LANCHOR0,. + 0
 179              		.set	.LANCHOR1,. + 8688
 180              		.type	pucAlignedHeap.5181, %object
 181              		.size	pucAlignedHeap.5181, 4
 182              	pucAlignedHeap.5181:
 183 0000 00000000 		.space	4
 184              		.type	ucHeap, %object
 185              		.size	ucHeap, 10240
 186              	ucHeap:
 187 0004 00000000 		.space	10240
 187      00000000 
 187      00000000 
 187      00000000 
 187      00000000 
 188              		.type	xNextFreeByte, %object
 189              		.size	xNextFreeByte, 4
 190              	xNextFreeByte:
 191 2804 00000000 		.space	4
 192              		.text
 193              	.Letext0:
ARM GAS  C:\Users\u0036181\AppData\Local\Temp\cctS5qZj.s 			page 7


 194              		.file 2 "c:\\program files (x86)\\cypress\\psoc creator\\4.4\\psoc creator\\import\\gnu\\arm\\5.4.
 195              		.file 3 "c:\\program files (x86)\\cypress\\psoc creator\\4.4\\psoc creator\\import\\gnu\\arm\\5.4.
 196              		.file 4 "c:\\program files (x86)\\cypress\\psoc creator\\4.4\\psoc creator\\import\\gnu\\arm\\5.4.
 197              		.file 5 "C:\\FreeRTOS\\FreeRTOS\\FreeRTOS\\Source\\include/task.h"