ARM GAS  C:\Users\u0036181\AppData\Local\Temp\cch2Rq0R.s 			page 1


   1              		.syntax unified
   2              		.cpu cortex-m3
   3              		.fpu softvfp
   4              		.eabi_attribute 20, 1
   5              		.eabi_attribute 21, 1
   6              		.eabi_attribute 23, 3
   7              		.eabi_attribute 24, 1
   8              		.eabi_attribute 25, 1
   9              		.eabi_attribute 26, 1
  10              		.eabi_attribute 30, 1
  11              		.eabi_attribute 34, 1
  12              		.eabi_attribute 18, 4
  13              		.thumb
  14              		.syntax unified
  15              		.file	"timers.c"
  16              		.text
  17              	.Ltext0:
  18              		.cfi_sections	.debug_frame
  19              		.section	.text.prvGetNextExpireTime,"ax",%progbits
  20              		.align	2
  21              		.thumb
  22              		.thumb_func
  23              		.type	prvGetNextExpireTime, %function
  24              	prvGetNextExpireTime:
  25              	.LFB17:
  26              		.file 1 "..\\..\\..\\..\\..\\..\\FreeRTOS\\FreeRTOS\\FreeRTOS\\Source\\timers.c"
   1:..\..\..\..\..\..\FreeRTOS\FreeRTOS\FreeRTOS\Source/timers.c **** /*
   2:..\..\..\..\..\..\FreeRTOS\FreeRTOS\FreeRTOS\Source/timers.c ****  * FreeRTOS Kernel V10.4.0
   3:..\..\..\..\..\..\FreeRTOS\FreeRTOS\FreeRTOS\Source/timers.c ****  * Copyright (C) 2020 Amazon.com, Inc. or its affiliates.  All Rights Reserved.
   4:..\..\..\..\..\..\FreeRTOS\FreeRTOS\FreeRTOS\Source/timers.c ****  *
   5:..\..\..\..\..\..\FreeRTOS\FreeRTOS\FreeRTOS\Source/timers.c ****  * Permission is hereby granted, free of charge, to any person obtaining a copy of
   6:..\..\..\..\..\..\FreeRTOS\FreeRTOS\FreeRTOS\Source/timers.c ****  * this software and associated documentation files (the "Software"), to deal in
   7:..\..\..\..\..\..\FreeRTOS\FreeRTOS\FreeRTOS\Source/timers.c ****  * the Software without restriction, including without limitation the rights to
   8:..\..\..\..\..\..\FreeRTOS\FreeRTOS\FreeRTOS\Source/timers.c ****  * use, copy, modify, merge, publish, distribute, sublicense, and/or sell copies of
   9:..\..\..\..\..\..\FreeRTOS\FreeRTOS\FreeRTOS\Source/timers.c ****  * the Software, and to permit persons to whom the Software is furnished to do so,
  10:..\..\..\..\..\..\FreeRTOS\FreeRTOS\FreeRTOS\Source/timers.c ****  * subject to the following conditions:
  11:..\..\..\..\..\..\FreeRTOS\FreeRTOS\FreeRTOS\Source/timers.c ****  *
  12:..\..\..\..\..\..\FreeRTOS\FreeRTOS\FreeRTOS\Source/timers.c ****  * The above copyright notice and this permission notice shall be included in all
  13:..\..\..\..\..\..\FreeRTOS\FreeRTOS\FreeRTOS\Source/timers.c ****  * copies or substantial portions of the Software.
  14:..\..\..\..\..\..\FreeRTOS\FreeRTOS\FreeRTOS\Source/timers.c ****  *
  15:..\..\..\..\..\..\FreeRTOS\FreeRTOS\FreeRTOS\Source/timers.c ****  * THE SOFTWARE IS PROVIDED "AS IS", WITHOUT WARRANTY OF ANY KIND, EXPRESS OR
  16:..\..\..\..\..\..\FreeRTOS\FreeRTOS\FreeRTOS\Source/timers.c ****  * IMPLIED, INCLUDING BUT NOT LIMITED TO THE WARRANTIES OF MERCHANTABILITY, FITNESS
  17:..\..\..\..\..\..\FreeRTOS\FreeRTOS\FreeRTOS\Source/timers.c ****  * FOR A PARTICULAR PURPOSE AND NONINFRINGEMENT. IN NO EVENT SHALL THE AUTHORS OR
  18:..\..\..\..\..\..\FreeRTOS\FreeRTOS\FreeRTOS\Source/timers.c ****  * COPYRIGHT HOLDERS BE LIABLE FOR ANY CLAIM, DAMAGES OR OTHER LIABILITY, WHETHER
  19:..\..\..\..\..\..\FreeRTOS\FreeRTOS\FreeRTOS\Source/timers.c ****  * IN AN ACTION OF CONTRACT, TORT OR OTHERWISE, ARISING FROM, OUT OF OR IN
  20:..\..\..\..\..\..\FreeRTOS\FreeRTOS\FreeRTOS\Source/timers.c ****  * CONNECTION WITH THE SOFTWARE OR THE USE OR OTHER DEALINGS IN THE SOFTWARE.
  21:..\..\..\..\..\..\FreeRTOS\FreeRTOS\FreeRTOS\Source/timers.c ****  *
  22:..\..\..\..\..\..\FreeRTOS\FreeRTOS\FreeRTOS\Source/timers.c ****  * https://www.FreeRTOS.org
  23:..\..\..\..\..\..\FreeRTOS\FreeRTOS\FreeRTOS\Source/timers.c ****  * https://github.com/FreeRTOS
  24:..\..\..\..\..\..\FreeRTOS\FreeRTOS\FreeRTOS\Source/timers.c ****  *
  25:..\..\..\..\..\..\FreeRTOS\FreeRTOS\FreeRTOS\Source/timers.c ****  */
  26:..\..\..\..\..\..\FreeRTOS\FreeRTOS\FreeRTOS\Source/timers.c **** 
  27:..\..\..\..\..\..\FreeRTOS\FreeRTOS\FreeRTOS\Source/timers.c **** /* Standard includes. */
  28:..\..\..\..\..\..\FreeRTOS\FreeRTOS\FreeRTOS\Source/timers.c **** #include <stdlib.h>
  29:..\..\..\..\..\..\FreeRTOS\FreeRTOS\FreeRTOS\Source/timers.c **** 
  30:..\..\..\..\..\..\FreeRTOS\FreeRTOS\FreeRTOS\Source/timers.c **** /* Defining MPU_WRAPPERS_INCLUDED_FROM_API_FILE prevents task.h from redefining
  31:..\..\..\..\..\..\FreeRTOS\FreeRTOS\FreeRTOS\Source/timers.c ****  * all the API functions to use the MPU wrappers.  That should only be done when
ARM GAS  C:\Users\u0036181\AppData\Local\Temp\cch2Rq0R.s 			page 2


  32:..\..\..\..\..\..\FreeRTOS\FreeRTOS\FreeRTOS\Source/timers.c ****  * task.h is included from an application file. */
  33:..\..\..\..\..\..\FreeRTOS\FreeRTOS\FreeRTOS\Source/timers.c **** #define MPU_WRAPPERS_INCLUDED_FROM_API_FILE
  34:..\..\..\..\..\..\FreeRTOS\FreeRTOS\FreeRTOS\Source/timers.c **** 
  35:..\..\..\..\..\..\FreeRTOS\FreeRTOS\FreeRTOS\Source/timers.c **** #include "FreeRTOS.h"
  36:..\..\..\..\..\..\FreeRTOS\FreeRTOS\FreeRTOS\Source/timers.c **** #include "task.h"
  37:..\..\..\..\..\..\FreeRTOS\FreeRTOS\FreeRTOS\Source/timers.c **** #include "queue.h"
  38:..\..\..\..\..\..\FreeRTOS\FreeRTOS\FreeRTOS\Source/timers.c **** #include "timers.h"
  39:..\..\..\..\..\..\FreeRTOS\FreeRTOS\FreeRTOS\Source/timers.c **** 
  40:..\..\..\..\..\..\FreeRTOS\FreeRTOS\FreeRTOS\Source/timers.c **** #if ( INCLUDE_xTimerPendFunctionCall == 1 ) && ( configUSE_TIMERS == 0 )
  41:..\..\..\..\..\..\FreeRTOS\FreeRTOS\FreeRTOS\Source/timers.c ****     #error configUSE_TIMERS must be set to 1 to make the xTimerPendFunctionCall() function availabl
  42:..\..\..\..\..\..\FreeRTOS\FreeRTOS\FreeRTOS\Source/timers.c **** #endif
  43:..\..\..\..\..\..\FreeRTOS\FreeRTOS\FreeRTOS\Source/timers.c **** 
  44:..\..\..\..\..\..\FreeRTOS\FreeRTOS\FreeRTOS\Source/timers.c **** /* Lint e9021, e961 and e750 are suppressed as a MISRA exception justified
  45:..\..\..\..\..\..\FreeRTOS\FreeRTOS\FreeRTOS\Source/timers.c ****  * because the MPU ports require MPU_WRAPPERS_INCLUDED_FROM_API_FILE to be defined
  46:..\..\..\..\..\..\FreeRTOS\FreeRTOS\FreeRTOS\Source/timers.c ****  * for the header files above, but not in this file, in order to generate the
  47:..\..\..\..\..\..\FreeRTOS\FreeRTOS\FreeRTOS\Source/timers.c ****  * correct privileged Vs unprivileged linkage and placement. */
  48:..\..\..\..\..\..\FreeRTOS\FreeRTOS\FreeRTOS\Source/timers.c **** #undef MPU_WRAPPERS_INCLUDED_FROM_API_FILE /*lint !e9021 !e961 !e750. */
  49:..\..\..\..\..\..\FreeRTOS\FreeRTOS\FreeRTOS\Source/timers.c **** 
  50:..\..\..\..\..\..\FreeRTOS\FreeRTOS\FreeRTOS\Source/timers.c **** 
  51:..\..\..\..\..\..\FreeRTOS\FreeRTOS\FreeRTOS\Source/timers.c **** /* This entire source file will be skipped if the application is not configured
  52:..\..\..\..\..\..\FreeRTOS\FreeRTOS\FreeRTOS\Source/timers.c ****  * to include software timer functionality.  This #if is closed at the very bottom
  53:..\..\..\..\..\..\FreeRTOS\FreeRTOS\FreeRTOS\Source/timers.c ****  * of this file.  If you want to include software timer functionality then ensure
  54:..\..\..\..\..\..\FreeRTOS\FreeRTOS\FreeRTOS\Source/timers.c ****  * configUSE_TIMERS is set to 1 in FreeRTOSConfig.h. */
  55:..\..\..\..\..\..\FreeRTOS\FreeRTOS\FreeRTOS\Source/timers.c **** #if ( configUSE_TIMERS == 1 )
  56:..\..\..\..\..\..\FreeRTOS\FreeRTOS\FreeRTOS\Source/timers.c **** 
  57:..\..\..\..\..\..\FreeRTOS\FreeRTOS\FreeRTOS\Source/timers.c **** /* Misc definitions. */
  58:..\..\..\..\..\..\FreeRTOS\FreeRTOS\FreeRTOS\Source/timers.c ****     #define tmrNO_DELAY    ( TickType_t ) 0U
  59:..\..\..\..\..\..\FreeRTOS\FreeRTOS\FreeRTOS\Source/timers.c **** 
  60:..\..\..\..\..\..\FreeRTOS\FreeRTOS\FreeRTOS\Source/timers.c **** /* The name assigned to the timer service task.  This can be overridden by
  61:..\..\..\..\..\..\FreeRTOS\FreeRTOS\FreeRTOS\Source/timers.c ****  * defining trmTIMER_SERVICE_TASK_NAME in FreeRTOSConfig.h. */
  62:..\..\..\..\..\..\FreeRTOS\FreeRTOS\FreeRTOS\Source/timers.c ****     #ifndef configTIMER_SERVICE_TASK_NAME
  63:..\..\..\..\..\..\FreeRTOS\FreeRTOS\FreeRTOS\Source/timers.c ****         #define configTIMER_SERVICE_TASK_NAME    "Tmr Svc"
  64:..\..\..\..\..\..\FreeRTOS\FreeRTOS\FreeRTOS\Source/timers.c ****     #endif
  65:..\..\..\..\..\..\FreeRTOS\FreeRTOS\FreeRTOS\Source/timers.c **** 
  66:..\..\..\..\..\..\FreeRTOS\FreeRTOS\FreeRTOS\Source/timers.c **** /* Bit definitions used in the ucStatus member of a timer structure. */
  67:..\..\..\..\..\..\FreeRTOS\FreeRTOS\FreeRTOS\Source/timers.c ****     #define tmrSTATUS_IS_ACTIVE                  ( ( uint8_t ) 0x01 )
  68:..\..\..\..\..\..\FreeRTOS\FreeRTOS\FreeRTOS\Source/timers.c ****     #define tmrSTATUS_IS_STATICALLY_ALLOCATED    ( ( uint8_t ) 0x02 )
  69:..\..\..\..\..\..\FreeRTOS\FreeRTOS\FreeRTOS\Source/timers.c ****     #define tmrSTATUS_IS_AUTORELOAD              ( ( uint8_t ) 0x04 )
  70:..\..\..\..\..\..\FreeRTOS\FreeRTOS\FreeRTOS\Source/timers.c **** 
  71:..\..\..\..\..\..\FreeRTOS\FreeRTOS\FreeRTOS\Source/timers.c **** /* The definition of the timers themselves. */
  72:..\..\..\..\..\..\FreeRTOS\FreeRTOS\FreeRTOS\Source/timers.c ****     typedef struct tmrTimerControl                  /* The old naming convention is used to prevent
  73:..\..\..\..\..\..\FreeRTOS\FreeRTOS\FreeRTOS\Source/timers.c ****     {
  74:..\..\..\..\..\..\FreeRTOS\FreeRTOS\FreeRTOS\Source/timers.c ****         const char * pcTimerName;                   /*<< Text name.  This is not used by the kernel
  75:..\..\..\..\..\..\FreeRTOS\FreeRTOS\FreeRTOS\Source/timers.c ****         ListItem_t xTimerListItem;                  /*<< Standard linked list item as used by all k
  76:..\..\..\..\..\..\FreeRTOS\FreeRTOS\FreeRTOS\Source/timers.c ****         TickType_t xTimerPeriodInTicks;             /*<< How quickly and often the timer expires. *
  77:..\..\..\..\..\..\FreeRTOS\FreeRTOS\FreeRTOS\Source/timers.c ****         void * pvTimerID;                           /*<< An ID to identify the timer.  This allows 
  78:..\..\..\..\..\..\FreeRTOS\FreeRTOS\FreeRTOS\Source/timers.c ****         TimerCallbackFunction_t pxCallbackFunction; /*<< The function that will be called when the 
  79:..\..\..\..\..\..\FreeRTOS\FreeRTOS\FreeRTOS\Source/timers.c ****         #if ( configUSE_TRACE_FACILITY == 1 )
  80:..\..\..\..\..\..\FreeRTOS\FreeRTOS\FreeRTOS\Source/timers.c ****             UBaseType_t uxTimerNumber;              /*<< An ID assigned by trace tools such as Free
  81:..\..\..\..\..\..\FreeRTOS\FreeRTOS\FreeRTOS\Source/timers.c ****         #endif
  82:..\..\..\..\..\..\FreeRTOS\FreeRTOS\FreeRTOS\Source/timers.c ****         uint8_t ucStatus;                           /*<< Holds bits to say if the timer was statica
  83:..\..\..\..\..\..\FreeRTOS\FreeRTOS\FreeRTOS\Source/timers.c ****     } xTIMER;
  84:..\..\..\..\..\..\FreeRTOS\FreeRTOS\FreeRTOS\Source/timers.c **** 
  85:..\..\..\..\..\..\FreeRTOS\FreeRTOS\FreeRTOS\Source/timers.c **** /* The old xTIMER name is maintained above then typedefed to the new Timer_t
  86:..\..\..\..\..\..\FreeRTOS\FreeRTOS\FreeRTOS\Source/timers.c ****  * name below to enable the use of older kernel aware debuggers. */
  87:..\..\..\..\..\..\FreeRTOS\FreeRTOS\FreeRTOS\Source/timers.c ****     typedef xTIMER Timer_t;
  88:..\..\..\..\..\..\FreeRTOS\FreeRTOS\FreeRTOS\Source/timers.c **** 
ARM GAS  C:\Users\u0036181\AppData\Local\Temp\cch2Rq0R.s 			page 3


  89:..\..\..\..\..\..\FreeRTOS\FreeRTOS\FreeRTOS\Source/timers.c **** /* The definition of messages that can be sent and received on the timer queue.
  90:..\..\..\..\..\..\FreeRTOS\FreeRTOS\FreeRTOS\Source/timers.c ****  * Two types of message can be queued - messages that manipulate a software timer,
  91:..\..\..\..\..\..\FreeRTOS\FreeRTOS\FreeRTOS\Source/timers.c ****  * and messages that request the execution of a non-timer related callback.  The
  92:..\..\..\..\..\..\FreeRTOS\FreeRTOS\FreeRTOS\Source/timers.c ****  * two message types are defined in two separate structures, xTimerParametersType
  93:..\..\..\..\..\..\FreeRTOS\FreeRTOS\FreeRTOS\Source/timers.c ****  * and xCallbackParametersType respectively. */
  94:..\..\..\..\..\..\FreeRTOS\FreeRTOS\FreeRTOS\Source/timers.c ****     typedef struct tmrTimerParameters
  95:..\..\..\..\..\..\FreeRTOS\FreeRTOS\FreeRTOS\Source/timers.c ****     {
  96:..\..\..\..\..\..\FreeRTOS\FreeRTOS\FreeRTOS\Source/timers.c ****         TickType_t xMessageValue; /*<< An optional value used by a subset of commands, for example,
  97:..\..\..\..\..\..\FreeRTOS\FreeRTOS\FreeRTOS\Source/timers.c ****         Timer_t * pxTimer;        /*<< The timer to which the command will be applied. */
  98:..\..\..\..\..\..\FreeRTOS\FreeRTOS\FreeRTOS\Source/timers.c ****     } TimerParameter_t;
  99:..\..\..\..\..\..\FreeRTOS\FreeRTOS\FreeRTOS\Source/timers.c **** 
 100:..\..\..\..\..\..\FreeRTOS\FreeRTOS\FreeRTOS\Source/timers.c **** 
 101:..\..\..\..\..\..\FreeRTOS\FreeRTOS\FreeRTOS\Source/timers.c ****     typedef struct tmrCallbackParameters
 102:..\..\..\..\..\..\FreeRTOS\FreeRTOS\FreeRTOS\Source/timers.c ****     {
 103:..\..\..\..\..\..\FreeRTOS\FreeRTOS\FreeRTOS\Source/timers.c ****         PendedFunction_t pxCallbackFunction; /* << The callback function to execute. */
 104:..\..\..\..\..\..\FreeRTOS\FreeRTOS\FreeRTOS\Source/timers.c ****         void * pvParameter1;                 /* << The value that will be used as the callback func
 105:..\..\..\..\..\..\FreeRTOS\FreeRTOS\FreeRTOS\Source/timers.c ****         uint32_t ulParameter2;               /* << The value that will be used as the callback func
 106:..\..\..\..\..\..\FreeRTOS\FreeRTOS\FreeRTOS\Source/timers.c ****     } CallbackParameters_t;
 107:..\..\..\..\..\..\FreeRTOS\FreeRTOS\FreeRTOS\Source/timers.c **** 
 108:..\..\..\..\..\..\FreeRTOS\FreeRTOS\FreeRTOS\Source/timers.c **** /* The structure that contains the two message types, along with an identifier
 109:..\..\..\..\..\..\FreeRTOS\FreeRTOS\FreeRTOS\Source/timers.c ****  * that is used to determine which message type is valid. */
 110:..\..\..\..\..\..\FreeRTOS\FreeRTOS\FreeRTOS\Source/timers.c ****     typedef struct tmrTimerQueueMessage
 111:..\..\..\..\..\..\FreeRTOS\FreeRTOS\FreeRTOS\Source/timers.c ****     {
 112:..\..\..\..\..\..\FreeRTOS\FreeRTOS\FreeRTOS\Source/timers.c ****         BaseType_t xMessageID; /*<< The command being sent to the timer service task. */
 113:..\..\..\..\..\..\FreeRTOS\FreeRTOS\FreeRTOS\Source/timers.c ****         union
 114:..\..\..\..\..\..\FreeRTOS\FreeRTOS\FreeRTOS\Source/timers.c ****         {
 115:..\..\..\..\..\..\FreeRTOS\FreeRTOS\FreeRTOS\Source/timers.c ****             TimerParameter_t xTimerParameters;
 116:..\..\..\..\..\..\FreeRTOS\FreeRTOS\FreeRTOS\Source/timers.c **** 
 117:..\..\..\..\..\..\FreeRTOS\FreeRTOS\FreeRTOS\Source/timers.c ****             /* Don't include xCallbackParameters if it is not going to be used as
 118:..\..\..\..\..\..\FreeRTOS\FreeRTOS\FreeRTOS\Source/timers.c ****              * it makes the structure (and therefore the timer queue) larger. */
 119:..\..\..\..\..\..\FreeRTOS\FreeRTOS\FreeRTOS\Source/timers.c ****             #if ( INCLUDE_xTimerPendFunctionCall == 1 )
 120:..\..\..\..\..\..\FreeRTOS\FreeRTOS\FreeRTOS\Source/timers.c ****                 CallbackParameters_t xCallbackParameters;
 121:..\..\..\..\..\..\FreeRTOS\FreeRTOS\FreeRTOS\Source/timers.c ****             #endif /* INCLUDE_xTimerPendFunctionCall */
 122:..\..\..\..\..\..\FreeRTOS\FreeRTOS\FreeRTOS\Source/timers.c ****         } u;
 123:..\..\..\..\..\..\FreeRTOS\FreeRTOS\FreeRTOS\Source/timers.c ****     } DaemonTaskMessage_t;
 124:..\..\..\..\..\..\FreeRTOS\FreeRTOS\FreeRTOS\Source/timers.c **** 
 125:..\..\..\..\..\..\FreeRTOS\FreeRTOS\FreeRTOS\Source/timers.c **** /*lint -save -e956 A manual analysis and inspection has been used to determine
 126:..\..\..\..\..\..\FreeRTOS\FreeRTOS\FreeRTOS\Source/timers.c ****  * which static variables must be declared volatile. */
 127:..\..\..\..\..\..\FreeRTOS\FreeRTOS\FreeRTOS\Source/timers.c **** 
 128:..\..\..\..\..\..\FreeRTOS\FreeRTOS\FreeRTOS\Source/timers.c **** /* The list in which active timers are stored.  Timers are referenced in expire
 129:..\..\..\..\..\..\FreeRTOS\FreeRTOS\FreeRTOS\Source/timers.c ****  * time order, with the nearest expiry time at the front of the list.  Only the
 130:..\..\..\..\..\..\FreeRTOS\FreeRTOS\FreeRTOS\Source/timers.c ****  * timer service task is allowed to access these lists.
 131:..\..\..\..\..\..\FreeRTOS\FreeRTOS\FreeRTOS\Source/timers.c ****  * xActiveTimerList1 and xActiveTimerList2 could be at function scope but that
 132:..\..\..\..\..\..\FreeRTOS\FreeRTOS\FreeRTOS\Source/timers.c ****  * breaks some kernel aware debuggers, and debuggers that reply on removing the
 133:..\..\..\..\..\..\FreeRTOS\FreeRTOS\FreeRTOS\Source/timers.c ****  * static qualifier. */
 134:..\..\..\..\..\..\FreeRTOS\FreeRTOS\FreeRTOS\Source/timers.c ****     PRIVILEGED_DATA static List_t xActiveTimerList1;
 135:..\..\..\..\..\..\FreeRTOS\FreeRTOS\FreeRTOS\Source/timers.c ****     PRIVILEGED_DATA static List_t xActiveTimerList2;
 136:..\..\..\..\..\..\FreeRTOS\FreeRTOS\FreeRTOS\Source/timers.c ****     PRIVILEGED_DATA static List_t * pxCurrentTimerList;
 137:..\..\..\..\..\..\FreeRTOS\FreeRTOS\FreeRTOS\Source/timers.c ****     PRIVILEGED_DATA static List_t * pxOverflowTimerList;
 138:..\..\..\..\..\..\FreeRTOS\FreeRTOS\FreeRTOS\Source/timers.c **** 
 139:..\..\..\..\..\..\FreeRTOS\FreeRTOS\FreeRTOS\Source/timers.c **** /* A queue that is used to send commands to the timer service task. */
 140:..\..\..\..\..\..\FreeRTOS\FreeRTOS\FreeRTOS\Source/timers.c ****     PRIVILEGED_DATA static QueueHandle_t xTimerQueue = NULL;
 141:..\..\..\..\..\..\FreeRTOS\FreeRTOS\FreeRTOS\Source/timers.c ****     PRIVILEGED_DATA static TaskHandle_t xTimerTaskHandle = NULL;
 142:..\..\..\..\..\..\FreeRTOS\FreeRTOS\FreeRTOS\Source/timers.c **** 
 143:..\..\..\..\..\..\FreeRTOS\FreeRTOS\FreeRTOS\Source/timers.c **** /*lint -restore */
 144:..\..\..\..\..\..\FreeRTOS\FreeRTOS\FreeRTOS\Source/timers.c **** 
 145:..\..\..\..\..\..\FreeRTOS\FreeRTOS\FreeRTOS\Source/timers.c **** /*-----------------------------------------------------------*/
ARM GAS  C:\Users\u0036181\AppData\Local\Temp\cch2Rq0R.s 			page 4


 146:..\..\..\..\..\..\FreeRTOS\FreeRTOS\FreeRTOS\Source/timers.c **** 
 147:..\..\..\..\..\..\FreeRTOS\FreeRTOS\FreeRTOS\Source/timers.c **** /*
 148:..\..\..\..\..\..\FreeRTOS\FreeRTOS\FreeRTOS\Source/timers.c ****  * Initialise the infrastructure used by the timer service task if it has not
 149:..\..\..\..\..\..\FreeRTOS\FreeRTOS\FreeRTOS\Source/timers.c ****  * been initialised already.
 150:..\..\..\..\..\..\FreeRTOS\FreeRTOS\FreeRTOS\Source/timers.c ****  */
 151:..\..\..\..\..\..\FreeRTOS\FreeRTOS\FreeRTOS\Source/timers.c ****     static void prvCheckForValidListAndQueue( void ) PRIVILEGED_FUNCTION;
 152:..\..\..\..\..\..\FreeRTOS\FreeRTOS\FreeRTOS\Source/timers.c **** 
 153:..\..\..\..\..\..\FreeRTOS\FreeRTOS\FreeRTOS\Source/timers.c **** /*
 154:..\..\..\..\..\..\FreeRTOS\FreeRTOS\FreeRTOS\Source/timers.c ****  * The timer service task (daemon).  Timer functionality is controlled by this
 155:..\..\..\..\..\..\FreeRTOS\FreeRTOS\FreeRTOS\Source/timers.c ****  * task.  Other tasks communicate with the timer service task using the
 156:..\..\..\..\..\..\FreeRTOS\FreeRTOS\FreeRTOS\Source/timers.c ****  * xTimerQueue queue.
 157:..\..\..\..\..\..\FreeRTOS\FreeRTOS\FreeRTOS\Source/timers.c ****  */
 158:..\..\..\..\..\..\FreeRTOS\FreeRTOS\FreeRTOS\Source/timers.c ****     static portTASK_FUNCTION_PROTO( prvTimerTask, pvParameters ) PRIVILEGED_FUNCTION;
 159:..\..\..\..\..\..\FreeRTOS\FreeRTOS\FreeRTOS\Source/timers.c **** 
 160:..\..\..\..\..\..\FreeRTOS\FreeRTOS\FreeRTOS\Source/timers.c **** /*
 161:..\..\..\..\..\..\FreeRTOS\FreeRTOS\FreeRTOS\Source/timers.c ****  * Called by the timer service task to interpret and process a command it
 162:..\..\..\..\..\..\FreeRTOS\FreeRTOS\FreeRTOS\Source/timers.c ****  * received on the timer queue.
 163:..\..\..\..\..\..\FreeRTOS\FreeRTOS\FreeRTOS\Source/timers.c ****  */
 164:..\..\..\..\..\..\FreeRTOS\FreeRTOS\FreeRTOS\Source/timers.c ****     static void prvProcessReceivedCommands( void ) PRIVILEGED_FUNCTION;
 165:..\..\..\..\..\..\FreeRTOS\FreeRTOS\FreeRTOS\Source/timers.c **** 
 166:..\..\..\..\..\..\FreeRTOS\FreeRTOS\FreeRTOS\Source/timers.c **** /*
 167:..\..\..\..\..\..\FreeRTOS\FreeRTOS\FreeRTOS\Source/timers.c ****  * Insert the timer into either xActiveTimerList1, or xActiveTimerList2,
 168:..\..\..\..\..\..\FreeRTOS\FreeRTOS\FreeRTOS\Source/timers.c ****  * depending on if the expire time causes a timer counter overflow.
 169:..\..\..\..\..\..\FreeRTOS\FreeRTOS\FreeRTOS\Source/timers.c ****  */
 170:..\..\..\..\..\..\FreeRTOS\FreeRTOS\FreeRTOS\Source/timers.c ****     static BaseType_t prvInsertTimerInActiveList( Timer_t * const pxTimer,
 171:..\..\..\..\..\..\FreeRTOS\FreeRTOS\FreeRTOS\Source/timers.c ****                                                   const TickType_t xNextExpiryTime,
 172:..\..\..\..\..\..\FreeRTOS\FreeRTOS\FreeRTOS\Source/timers.c ****                                                   const TickType_t xTimeNow,
 173:..\..\..\..\..\..\FreeRTOS\FreeRTOS\FreeRTOS\Source/timers.c ****                                                   const TickType_t xCommandTime ) PRIVILEGED_FUNCTI
 174:..\..\..\..\..\..\FreeRTOS\FreeRTOS\FreeRTOS\Source/timers.c **** 
 175:..\..\..\..\..\..\FreeRTOS\FreeRTOS\FreeRTOS\Source/timers.c **** /*
 176:..\..\..\..\..\..\FreeRTOS\FreeRTOS\FreeRTOS\Source/timers.c ****  * An active timer has reached its expire time.  Reload the timer if it is an
 177:..\..\..\..\..\..\FreeRTOS\FreeRTOS\FreeRTOS\Source/timers.c ****  * auto-reload timer, then call its callback.
 178:..\..\..\..\..\..\FreeRTOS\FreeRTOS\FreeRTOS\Source/timers.c ****  */
 179:..\..\..\..\..\..\FreeRTOS\FreeRTOS\FreeRTOS\Source/timers.c ****     static void prvProcessExpiredTimer( const TickType_t xNextExpireTime,
 180:..\..\..\..\..\..\FreeRTOS\FreeRTOS\FreeRTOS\Source/timers.c ****                                         const TickType_t xTimeNow ) PRIVILEGED_FUNCTION;
 181:..\..\..\..\..\..\FreeRTOS\FreeRTOS\FreeRTOS\Source/timers.c **** 
 182:..\..\..\..\..\..\FreeRTOS\FreeRTOS\FreeRTOS\Source/timers.c **** /*
 183:..\..\..\..\..\..\FreeRTOS\FreeRTOS\FreeRTOS\Source/timers.c ****  * The tick count has overflowed.  Switch the timer lists after ensuring the
 184:..\..\..\..\..\..\FreeRTOS\FreeRTOS\FreeRTOS\Source/timers.c ****  * current timer list does not still reference some timers.
 185:..\..\..\..\..\..\FreeRTOS\FreeRTOS\FreeRTOS\Source/timers.c ****  */
 186:..\..\..\..\..\..\FreeRTOS\FreeRTOS\FreeRTOS\Source/timers.c ****     static void prvSwitchTimerLists( void ) PRIVILEGED_FUNCTION;
 187:..\..\..\..\..\..\FreeRTOS\FreeRTOS\FreeRTOS\Source/timers.c **** 
 188:..\..\..\..\..\..\FreeRTOS\FreeRTOS\FreeRTOS\Source/timers.c **** /*
 189:..\..\..\..\..\..\FreeRTOS\FreeRTOS\FreeRTOS\Source/timers.c ****  * Obtain the current tick count, setting *pxTimerListsWereSwitched to pdTRUE
 190:..\..\..\..\..\..\FreeRTOS\FreeRTOS\FreeRTOS\Source/timers.c ****  * if a tick count overflow occurred since prvSampleTimeNow() was last called.
 191:..\..\..\..\..\..\FreeRTOS\FreeRTOS\FreeRTOS\Source/timers.c ****  */
 192:..\..\..\..\..\..\FreeRTOS\FreeRTOS\FreeRTOS\Source/timers.c ****     static TickType_t prvSampleTimeNow( BaseType_t * const pxTimerListsWereSwitched ) PRIVILEGED_FU
 193:..\..\..\..\..\..\FreeRTOS\FreeRTOS\FreeRTOS\Source/timers.c **** 
 194:..\..\..\..\..\..\FreeRTOS\FreeRTOS\FreeRTOS\Source/timers.c **** /*
 195:..\..\..\..\..\..\FreeRTOS\FreeRTOS\FreeRTOS\Source/timers.c ****  * If the timer list contains any active timers then return the expire time of
 196:..\..\..\..\..\..\FreeRTOS\FreeRTOS\FreeRTOS\Source/timers.c ****  * the timer that will expire first and set *pxListWasEmpty to false.  If the
 197:..\..\..\..\..\..\FreeRTOS\FreeRTOS\FreeRTOS\Source/timers.c ****  * timer list does not contain any timers then return 0 and set *pxListWasEmpty
 198:..\..\..\..\..\..\FreeRTOS\FreeRTOS\FreeRTOS\Source/timers.c ****  * to pdTRUE.
 199:..\..\..\..\..\..\FreeRTOS\FreeRTOS\FreeRTOS\Source/timers.c ****  */
 200:..\..\..\..\..\..\FreeRTOS\FreeRTOS\FreeRTOS\Source/timers.c ****     static TickType_t prvGetNextExpireTime( BaseType_t * const pxListWasEmpty ) PRIVILEGED_FUNCTION
 201:..\..\..\..\..\..\FreeRTOS\FreeRTOS\FreeRTOS\Source/timers.c **** 
 202:..\..\..\..\..\..\FreeRTOS\FreeRTOS\FreeRTOS\Source/timers.c **** /*
ARM GAS  C:\Users\u0036181\AppData\Local\Temp\cch2Rq0R.s 			page 5


 203:..\..\..\..\..\..\FreeRTOS\FreeRTOS\FreeRTOS\Source/timers.c ****  * If a timer has expired, process it.  Otherwise, block the timer service task
 204:..\..\..\..\..\..\FreeRTOS\FreeRTOS\FreeRTOS\Source/timers.c ****  * until either a timer does expire or a command is received.
 205:..\..\..\..\..\..\FreeRTOS\FreeRTOS\FreeRTOS\Source/timers.c ****  */
 206:..\..\..\..\..\..\FreeRTOS\FreeRTOS\FreeRTOS\Source/timers.c ****     static void prvProcessTimerOrBlockTask( const TickType_t xNextExpireTime,
 207:..\..\..\..\..\..\FreeRTOS\FreeRTOS\FreeRTOS\Source/timers.c ****                                             BaseType_t xListWasEmpty ) PRIVILEGED_FUNCTION;
 208:..\..\..\..\..\..\FreeRTOS\FreeRTOS\FreeRTOS\Source/timers.c **** 
 209:..\..\..\..\..\..\FreeRTOS\FreeRTOS\FreeRTOS\Source/timers.c **** /*
 210:..\..\..\..\..\..\FreeRTOS\FreeRTOS\FreeRTOS\Source/timers.c ****  * Called after a Timer_t structure has been allocated either statically or
 211:..\..\..\..\..\..\FreeRTOS\FreeRTOS\FreeRTOS\Source/timers.c ****  * dynamically to fill in the structure's members.
 212:..\..\..\..\..\..\FreeRTOS\FreeRTOS\FreeRTOS\Source/timers.c ****  */
 213:..\..\..\..\..\..\FreeRTOS\FreeRTOS\FreeRTOS\Source/timers.c ****     static void prvInitialiseNewTimer( const char * const pcTimerName, /*lint !e971 Unqualified cha
 214:..\..\..\..\..\..\FreeRTOS\FreeRTOS\FreeRTOS\Source/timers.c ****                                        const TickType_t xTimerPeriodInTicks,
 215:..\..\..\..\..\..\FreeRTOS\FreeRTOS\FreeRTOS\Source/timers.c ****                                        const UBaseType_t uxAutoReload,
 216:..\..\..\..\..\..\FreeRTOS\FreeRTOS\FreeRTOS\Source/timers.c ****                                        void * const pvTimerID,
 217:..\..\..\..\..\..\FreeRTOS\FreeRTOS\FreeRTOS\Source/timers.c ****                                        TimerCallbackFunction_t pxCallbackFunction,
 218:..\..\..\..\..\..\FreeRTOS\FreeRTOS\FreeRTOS\Source/timers.c ****                                        Timer_t * pxNewTimer ) PRIVILEGED_FUNCTION;
 219:..\..\..\..\..\..\FreeRTOS\FreeRTOS\FreeRTOS\Source/timers.c **** /*-----------------------------------------------------------*/
 220:..\..\..\..\..\..\FreeRTOS\FreeRTOS\FreeRTOS\Source/timers.c **** 
 221:..\..\..\..\..\..\FreeRTOS\FreeRTOS\FreeRTOS\Source/timers.c ****     BaseType_t xTimerCreateTimerTask( void )
 222:..\..\..\..\..\..\FreeRTOS\FreeRTOS\FreeRTOS\Source/timers.c ****     {
 223:..\..\..\..\..\..\FreeRTOS\FreeRTOS\FreeRTOS\Source/timers.c ****         BaseType_t xReturn = pdFAIL;
 224:..\..\..\..\..\..\FreeRTOS\FreeRTOS\FreeRTOS\Source/timers.c **** 
 225:..\..\..\..\..\..\FreeRTOS\FreeRTOS\FreeRTOS\Source/timers.c ****         /* This function is called when the scheduler is started if
 226:..\..\..\..\..\..\FreeRTOS\FreeRTOS\FreeRTOS\Source/timers.c ****          * configUSE_TIMERS is set to 1.  Check that the infrastructure used by the
 227:..\..\..\..\..\..\FreeRTOS\FreeRTOS\FreeRTOS\Source/timers.c ****          * timer service task has been created/initialised.  If timers have already
 228:..\..\..\..\..\..\FreeRTOS\FreeRTOS\FreeRTOS\Source/timers.c ****          * been created then the initialisation will already have been performed. */
 229:..\..\..\..\..\..\FreeRTOS\FreeRTOS\FreeRTOS\Source/timers.c ****         prvCheckForValidListAndQueue();
 230:..\..\..\..\..\..\FreeRTOS\FreeRTOS\FreeRTOS\Source/timers.c **** 
 231:..\..\..\..\..\..\FreeRTOS\FreeRTOS\FreeRTOS\Source/timers.c ****         if( xTimerQueue != NULL )
 232:..\..\..\..\..\..\FreeRTOS\FreeRTOS\FreeRTOS\Source/timers.c ****         {
 233:..\..\..\..\..\..\FreeRTOS\FreeRTOS\FreeRTOS\Source/timers.c ****             #if ( configSUPPORT_STATIC_ALLOCATION == 1 )
 234:..\..\..\..\..\..\FreeRTOS\FreeRTOS\FreeRTOS\Source/timers.c ****                 {
 235:..\..\..\..\..\..\FreeRTOS\FreeRTOS\FreeRTOS\Source/timers.c ****                     StaticTask_t * pxTimerTaskTCBBuffer = NULL;
 236:..\..\..\..\..\..\FreeRTOS\FreeRTOS\FreeRTOS\Source/timers.c ****                     StackType_t * pxTimerTaskStackBuffer = NULL;
 237:..\..\..\..\..\..\FreeRTOS\FreeRTOS\FreeRTOS\Source/timers.c ****                     uint32_t ulTimerTaskStackSize;
 238:..\..\..\..\..\..\FreeRTOS\FreeRTOS\FreeRTOS\Source/timers.c **** 
 239:..\..\..\..\..\..\FreeRTOS\FreeRTOS\FreeRTOS\Source/timers.c ****                     vApplicationGetTimerTaskMemory( &pxTimerTaskTCBBuffer, &pxTimerTaskStackBuffer,
 240:..\..\..\..\..\..\FreeRTOS\FreeRTOS\FreeRTOS\Source/timers.c ****                     xTimerTaskHandle = xTaskCreateStatic( prvTimerTask,
 241:..\..\..\..\..\..\FreeRTOS\FreeRTOS\FreeRTOS\Source/timers.c ****                                                           configTIMER_SERVICE_TASK_NAME,
 242:..\..\..\..\..\..\FreeRTOS\FreeRTOS\FreeRTOS\Source/timers.c ****                                                           ulTimerTaskStackSize,
 243:..\..\..\..\..\..\FreeRTOS\FreeRTOS\FreeRTOS\Source/timers.c ****                                                           NULL,
 244:..\..\..\..\..\..\FreeRTOS\FreeRTOS\FreeRTOS\Source/timers.c ****                                                           ( ( UBaseType_t ) configTIMER_TASK_PRIORI
 245:..\..\..\..\..\..\FreeRTOS\FreeRTOS\FreeRTOS\Source/timers.c ****                                                           pxTimerTaskStackBuffer,
 246:..\..\..\..\..\..\FreeRTOS\FreeRTOS\FreeRTOS\Source/timers.c ****                                                           pxTimerTaskTCBBuffer );
 247:..\..\..\..\..\..\FreeRTOS\FreeRTOS\FreeRTOS\Source/timers.c **** 
 248:..\..\..\..\..\..\FreeRTOS\FreeRTOS\FreeRTOS\Source/timers.c ****                     if( xTimerTaskHandle != NULL )
 249:..\..\..\..\..\..\FreeRTOS\FreeRTOS\FreeRTOS\Source/timers.c ****                     {
 250:..\..\..\..\..\..\FreeRTOS\FreeRTOS\FreeRTOS\Source/timers.c ****                         xReturn = pdPASS;
 251:..\..\..\..\..\..\FreeRTOS\FreeRTOS\FreeRTOS\Source/timers.c ****                     }
 252:..\..\..\..\..\..\FreeRTOS\FreeRTOS\FreeRTOS\Source/timers.c ****                 }
 253:..\..\..\..\..\..\FreeRTOS\FreeRTOS\FreeRTOS\Source/timers.c ****             #else /* if ( configSUPPORT_STATIC_ALLOCATION == 1 ) */
 254:..\..\..\..\..\..\FreeRTOS\FreeRTOS\FreeRTOS\Source/timers.c ****                 {
 255:..\..\..\..\..\..\FreeRTOS\FreeRTOS\FreeRTOS\Source/timers.c ****                     xReturn = xTaskCreate( prvTimerTask,
 256:..\..\..\..\..\..\FreeRTOS\FreeRTOS\FreeRTOS\Source/timers.c ****                                            configTIMER_SERVICE_TASK_NAME,
 257:..\..\..\..\..\..\FreeRTOS\FreeRTOS\FreeRTOS\Source/timers.c ****                                            configTIMER_TASK_STACK_DEPTH,
 258:..\..\..\..\..\..\FreeRTOS\FreeRTOS\FreeRTOS\Source/timers.c ****                                            NULL,
 259:..\..\..\..\..\..\FreeRTOS\FreeRTOS\FreeRTOS\Source/timers.c ****                                            ( ( UBaseType_t ) configTIMER_TASK_PRIORITY ) | portPRIV
ARM GAS  C:\Users\u0036181\AppData\Local\Temp\cch2Rq0R.s 			page 6


 260:..\..\..\..\..\..\FreeRTOS\FreeRTOS\FreeRTOS\Source/timers.c ****                                            &xTimerTaskHandle );
 261:..\..\..\..\..\..\FreeRTOS\FreeRTOS\FreeRTOS\Source/timers.c ****                 }
 262:..\..\..\..\..\..\FreeRTOS\FreeRTOS\FreeRTOS\Source/timers.c ****             #endif /* configSUPPORT_STATIC_ALLOCATION */
 263:..\..\..\..\..\..\FreeRTOS\FreeRTOS\FreeRTOS\Source/timers.c ****         }
 264:..\..\..\..\..\..\FreeRTOS\FreeRTOS\FreeRTOS\Source/timers.c ****         else
 265:..\..\..\..\..\..\FreeRTOS\FreeRTOS\FreeRTOS\Source/timers.c ****         {
 266:..\..\..\..\..\..\FreeRTOS\FreeRTOS\FreeRTOS\Source/timers.c ****             mtCOVERAGE_TEST_MARKER();
 267:..\..\..\..\..\..\FreeRTOS\FreeRTOS\FreeRTOS\Source/timers.c ****         }
 268:..\..\..\..\..\..\FreeRTOS\FreeRTOS\FreeRTOS\Source/timers.c **** 
 269:..\..\..\..\..\..\FreeRTOS\FreeRTOS\FreeRTOS\Source/timers.c ****         configASSERT( xReturn );
 270:..\..\..\..\..\..\FreeRTOS\FreeRTOS\FreeRTOS\Source/timers.c ****         return xReturn;
 271:..\..\..\..\..\..\FreeRTOS\FreeRTOS\FreeRTOS\Source/timers.c ****     }
 272:..\..\..\..\..\..\FreeRTOS\FreeRTOS\FreeRTOS\Source/timers.c **** /*-----------------------------------------------------------*/
 273:..\..\..\..\..\..\FreeRTOS\FreeRTOS\FreeRTOS\Source/timers.c **** 
 274:..\..\..\..\..\..\FreeRTOS\FreeRTOS\FreeRTOS\Source/timers.c ****     #if ( configSUPPORT_DYNAMIC_ALLOCATION == 1 )
 275:..\..\..\..\..\..\FreeRTOS\FreeRTOS\FreeRTOS\Source/timers.c **** 
 276:..\..\..\..\..\..\FreeRTOS\FreeRTOS\FreeRTOS\Source/timers.c ****         TimerHandle_t xTimerCreate( const char * const pcTimerName, /*lint !e971 Unqualified char t
 277:..\..\..\..\..\..\FreeRTOS\FreeRTOS\FreeRTOS\Source/timers.c ****                                     const TickType_t xTimerPeriodInTicks,
 278:..\..\..\..\..\..\FreeRTOS\FreeRTOS\FreeRTOS\Source/timers.c ****                                     const UBaseType_t uxAutoReload,
 279:..\..\..\..\..\..\FreeRTOS\FreeRTOS\FreeRTOS\Source/timers.c ****                                     void * const pvTimerID,
 280:..\..\..\..\..\..\FreeRTOS\FreeRTOS\FreeRTOS\Source/timers.c ****                                     TimerCallbackFunction_t pxCallbackFunction )
 281:..\..\..\..\..\..\FreeRTOS\FreeRTOS\FreeRTOS\Source/timers.c ****         {
 282:..\..\..\..\..\..\FreeRTOS\FreeRTOS\FreeRTOS\Source/timers.c ****             Timer_t * pxNewTimer;
 283:..\..\..\..\..\..\FreeRTOS\FreeRTOS\FreeRTOS\Source/timers.c **** 
 284:..\..\..\..\..\..\FreeRTOS\FreeRTOS\FreeRTOS\Source/timers.c ****             pxNewTimer = ( Timer_t * ) pvPortMalloc( sizeof( Timer_t ) ); /*lint !e9087 !e9079 All 
 285:..\..\..\..\..\..\FreeRTOS\FreeRTOS\FreeRTOS\Source/timers.c **** 
 286:..\..\..\..\..\..\FreeRTOS\FreeRTOS\FreeRTOS\Source/timers.c ****             if( pxNewTimer != NULL )
 287:..\..\..\..\..\..\FreeRTOS\FreeRTOS\FreeRTOS\Source/timers.c ****             {
 288:..\..\..\..\..\..\FreeRTOS\FreeRTOS\FreeRTOS\Source/timers.c ****                 /* Status is thus far zero as the timer is not created statically
 289:..\..\..\..\..\..\FreeRTOS\FreeRTOS\FreeRTOS\Source/timers.c ****                  * and has not been started.  The auto-reload bit may get set in
 290:..\..\..\..\..\..\FreeRTOS\FreeRTOS\FreeRTOS\Source/timers.c ****                  * prvInitialiseNewTimer. */
 291:..\..\..\..\..\..\FreeRTOS\FreeRTOS\FreeRTOS\Source/timers.c ****                 pxNewTimer->ucStatus = 0x00;
 292:..\..\..\..\..\..\FreeRTOS\FreeRTOS\FreeRTOS\Source/timers.c ****                 prvInitialiseNewTimer( pcTimerName, xTimerPeriodInTicks, uxAutoReload, pvTimerID, p
 293:..\..\..\..\..\..\FreeRTOS\FreeRTOS\FreeRTOS\Source/timers.c ****             }
 294:..\..\..\..\..\..\FreeRTOS\FreeRTOS\FreeRTOS\Source/timers.c **** 
 295:..\..\..\..\..\..\FreeRTOS\FreeRTOS\FreeRTOS\Source/timers.c ****             return pxNewTimer;
 296:..\..\..\..\..\..\FreeRTOS\FreeRTOS\FreeRTOS\Source/timers.c ****         }
 297:..\..\..\..\..\..\FreeRTOS\FreeRTOS\FreeRTOS\Source/timers.c **** 
 298:..\..\..\..\..\..\FreeRTOS\FreeRTOS\FreeRTOS\Source/timers.c ****     #endif /* configSUPPORT_DYNAMIC_ALLOCATION */
 299:..\..\..\..\..\..\FreeRTOS\FreeRTOS\FreeRTOS\Source/timers.c **** /*-----------------------------------------------------------*/
 300:..\..\..\..\..\..\FreeRTOS\FreeRTOS\FreeRTOS\Source/timers.c **** 
 301:..\..\..\..\..\..\FreeRTOS\FreeRTOS\FreeRTOS\Source/timers.c ****     #if ( configSUPPORT_STATIC_ALLOCATION == 1 )
 302:..\..\..\..\..\..\FreeRTOS\FreeRTOS\FreeRTOS\Source/timers.c **** 
 303:..\..\..\..\..\..\FreeRTOS\FreeRTOS\FreeRTOS\Source/timers.c ****         TimerHandle_t xTimerCreateStatic( const char * const pcTimerName, /*lint !e971 Unqualified 
 304:..\..\..\..\..\..\FreeRTOS\FreeRTOS\FreeRTOS\Source/timers.c ****                                           const TickType_t xTimerPeriodInTicks,
 305:..\..\..\..\..\..\FreeRTOS\FreeRTOS\FreeRTOS\Source/timers.c ****                                           const UBaseType_t uxAutoReload,
 306:..\..\..\..\..\..\FreeRTOS\FreeRTOS\FreeRTOS\Source/timers.c ****                                           void * const pvTimerID,
 307:..\..\..\..\..\..\FreeRTOS\FreeRTOS\FreeRTOS\Source/timers.c ****                                           TimerCallbackFunction_t pxCallbackFunction,
 308:..\..\..\..\..\..\FreeRTOS\FreeRTOS\FreeRTOS\Source/timers.c ****                                           StaticTimer_t * pxTimerBuffer )
 309:..\..\..\..\..\..\FreeRTOS\FreeRTOS\FreeRTOS\Source/timers.c ****         {
 310:..\..\..\..\..\..\FreeRTOS\FreeRTOS\FreeRTOS\Source/timers.c ****             Timer_t * pxNewTimer;
 311:..\..\..\..\..\..\FreeRTOS\FreeRTOS\FreeRTOS\Source/timers.c **** 
 312:..\..\..\..\..\..\FreeRTOS\FreeRTOS\FreeRTOS\Source/timers.c ****             #if ( configASSERT_DEFINED == 1 )
 313:..\..\..\..\..\..\FreeRTOS\FreeRTOS\FreeRTOS\Source/timers.c ****                 {
 314:..\..\..\..\..\..\FreeRTOS\FreeRTOS\FreeRTOS\Source/timers.c ****                     /* Sanity check that the size of the structure used to declare a
 315:..\..\..\..\..\..\FreeRTOS\FreeRTOS\FreeRTOS\Source/timers.c ****                      * variable of type StaticTimer_t equals the size of the real timer
 316:..\..\..\..\..\..\FreeRTOS\FreeRTOS\FreeRTOS\Source/timers.c ****                      * structure. */
ARM GAS  C:\Users\u0036181\AppData\Local\Temp\cch2Rq0R.s 			page 7


 317:..\..\..\..\..\..\FreeRTOS\FreeRTOS\FreeRTOS\Source/timers.c ****                     volatile size_t xSize = sizeof( StaticTimer_t );
 318:..\..\..\..\..\..\FreeRTOS\FreeRTOS\FreeRTOS\Source/timers.c ****                     configASSERT( xSize == sizeof( Timer_t ) );
 319:..\..\..\..\..\..\FreeRTOS\FreeRTOS\FreeRTOS\Source/timers.c ****                     ( void ) xSize; /* Keeps lint quiet when configASSERT() is not defined. */
 320:..\..\..\..\..\..\FreeRTOS\FreeRTOS\FreeRTOS\Source/timers.c ****                 }
 321:..\..\..\..\..\..\FreeRTOS\FreeRTOS\FreeRTOS\Source/timers.c ****             #endif /* configASSERT_DEFINED */
 322:..\..\..\..\..\..\FreeRTOS\FreeRTOS\FreeRTOS\Source/timers.c **** 
 323:..\..\..\..\..\..\FreeRTOS\FreeRTOS\FreeRTOS\Source/timers.c ****             /* A pointer to a StaticTimer_t structure MUST be provided, use it. */
 324:..\..\..\..\..\..\FreeRTOS\FreeRTOS\FreeRTOS\Source/timers.c ****             configASSERT( pxTimerBuffer );
 325:..\..\..\..\..\..\FreeRTOS\FreeRTOS\FreeRTOS\Source/timers.c ****             pxNewTimer = ( Timer_t * ) pxTimerBuffer; /*lint !e740 !e9087 StaticTimer_t is a pointe
 326:..\..\..\..\..\..\FreeRTOS\FreeRTOS\FreeRTOS\Source/timers.c **** 
 327:..\..\..\..\..\..\FreeRTOS\FreeRTOS\FreeRTOS\Source/timers.c ****             if( pxNewTimer != NULL )
 328:..\..\..\..\..\..\FreeRTOS\FreeRTOS\FreeRTOS\Source/timers.c ****             {
 329:..\..\..\..\..\..\FreeRTOS\FreeRTOS\FreeRTOS\Source/timers.c ****                 /* Timers can be created statically or dynamically so note this
 330:..\..\..\..\..\..\FreeRTOS\FreeRTOS\FreeRTOS\Source/timers.c ****                  * timer was created statically in case it is later deleted.  The
 331:..\..\..\..\..\..\FreeRTOS\FreeRTOS\FreeRTOS\Source/timers.c ****                  * auto-reload bit may get set in prvInitialiseNewTimer(). */
 332:..\..\..\..\..\..\FreeRTOS\FreeRTOS\FreeRTOS\Source/timers.c ****                 pxNewTimer->ucStatus = tmrSTATUS_IS_STATICALLY_ALLOCATED;
 333:..\..\..\..\..\..\FreeRTOS\FreeRTOS\FreeRTOS\Source/timers.c **** 
 334:..\..\..\..\..\..\FreeRTOS\FreeRTOS\FreeRTOS\Source/timers.c ****                 prvInitialiseNewTimer( pcTimerName, xTimerPeriodInTicks, uxAutoReload, pvTimerID, p
 335:..\..\..\..\..\..\FreeRTOS\FreeRTOS\FreeRTOS\Source/timers.c ****             }
 336:..\..\..\..\..\..\FreeRTOS\FreeRTOS\FreeRTOS\Source/timers.c **** 
 337:..\..\..\..\..\..\FreeRTOS\FreeRTOS\FreeRTOS\Source/timers.c ****             return pxNewTimer;
 338:..\..\..\..\..\..\FreeRTOS\FreeRTOS\FreeRTOS\Source/timers.c ****         }
 339:..\..\..\..\..\..\FreeRTOS\FreeRTOS\FreeRTOS\Source/timers.c **** 
 340:..\..\..\..\..\..\FreeRTOS\FreeRTOS\FreeRTOS\Source/timers.c ****     #endif /* configSUPPORT_STATIC_ALLOCATION */
 341:..\..\..\..\..\..\FreeRTOS\FreeRTOS\FreeRTOS\Source/timers.c **** /*-----------------------------------------------------------*/
 342:..\..\..\..\..\..\FreeRTOS\FreeRTOS\FreeRTOS\Source/timers.c **** 
 343:..\..\..\..\..\..\FreeRTOS\FreeRTOS\FreeRTOS\Source/timers.c ****     static void prvInitialiseNewTimer( const char * const pcTimerName, /*lint !e971 Unqualified cha
 344:..\..\..\..\..\..\FreeRTOS\FreeRTOS\FreeRTOS\Source/timers.c ****                                        const TickType_t xTimerPeriodInTicks,
 345:..\..\..\..\..\..\FreeRTOS\FreeRTOS\FreeRTOS\Source/timers.c ****                                        const UBaseType_t uxAutoReload,
 346:..\..\..\..\..\..\FreeRTOS\FreeRTOS\FreeRTOS\Source/timers.c ****                                        void * const pvTimerID,
 347:..\..\..\..\..\..\FreeRTOS\FreeRTOS\FreeRTOS\Source/timers.c ****                                        TimerCallbackFunction_t pxCallbackFunction,
 348:..\..\..\..\..\..\FreeRTOS\FreeRTOS\FreeRTOS\Source/timers.c ****                                        Timer_t * pxNewTimer )
 349:..\..\..\..\..\..\FreeRTOS\FreeRTOS\FreeRTOS\Source/timers.c ****     {
 350:..\..\..\..\..\..\FreeRTOS\FreeRTOS\FreeRTOS\Source/timers.c ****         /* 0 is not a valid value for xTimerPeriodInTicks. */
 351:..\..\..\..\..\..\FreeRTOS\FreeRTOS\FreeRTOS\Source/timers.c ****         configASSERT( ( xTimerPeriodInTicks > 0 ) );
 352:..\..\..\..\..\..\FreeRTOS\FreeRTOS\FreeRTOS\Source/timers.c **** 
 353:..\..\..\..\..\..\FreeRTOS\FreeRTOS\FreeRTOS\Source/timers.c ****         if( pxNewTimer != NULL )
 354:..\..\..\..\..\..\FreeRTOS\FreeRTOS\FreeRTOS\Source/timers.c ****         {
 355:..\..\..\..\..\..\FreeRTOS\FreeRTOS\FreeRTOS\Source/timers.c ****             /* Ensure the infrastructure used by the timer service task has been
 356:..\..\..\..\..\..\FreeRTOS\FreeRTOS\FreeRTOS\Source/timers.c ****              * created/initialised. */
 357:..\..\..\..\..\..\FreeRTOS\FreeRTOS\FreeRTOS\Source/timers.c ****             prvCheckForValidListAndQueue();
 358:..\..\..\..\..\..\FreeRTOS\FreeRTOS\FreeRTOS\Source/timers.c **** 
 359:..\..\..\..\..\..\FreeRTOS\FreeRTOS\FreeRTOS\Source/timers.c ****             /* Initialise the timer structure members using the function
 360:..\..\..\..\..\..\FreeRTOS\FreeRTOS\FreeRTOS\Source/timers.c ****              * parameters. */
 361:..\..\..\..\..\..\FreeRTOS\FreeRTOS\FreeRTOS\Source/timers.c ****             pxNewTimer->pcTimerName = pcTimerName;
 362:..\..\..\..\..\..\FreeRTOS\FreeRTOS\FreeRTOS\Source/timers.c ****             pxNewTimer->xTimerPeriodInTicks = xTimerPeriodInTicks;
 363:..\..\..\..\..\..\FreeRTOS\FreeRTOS\FreeRTOS\Source/timers.c ****             pxNewTimer->pvTimerID = pvTimerID;
 364:..\..\..\..\..\..\FreeRTOS\FreeRTOS\FreeRTOS\Source/timers.c ****             pxNewTimer->pxCallbackFunction = pxCallbackFunction;
 365:..\..\..\..\..\..\FreeRTOS\FreeRTOS\FreeRTOS\Source/timers.c ****             vListInitialiseItem( &( pxNewTimer->xTimerListItem ) );
 366:..\..\..\..\..\..\FreeRTOS\FreeRTOS\FreeRTOS\Source/timers.c **** 
 367:..\..\..\..\..\..\FreeRTOS\FreeRTOS\FreeRTOS\Source/timers.c ****             if( uxAutoReload != pdFALSE )
 368:..\..\..\..\..\..\FreeRTOS\FreeRTOS\FreeRTOS\Source/timers.c ****             {
 369:..\..\..\..\..\..\FreeRTOS\FreeRTOS\FreeRTOS\Source/timers.c ****                 pxNewTimer->ucStatus |= tmrSTATUS_IS_AUTORELOAD;
 370:..\..\..\..\..\..\FreeRTOS\FreeRTOS\FreeRTOS\Source/timers.c ****             }
 371:..\..\..\..\..\..\FreeRTOS\FreeRTOS\FreeRTOS\Source/timers.c **** 
 372:..\..\..\..\..\..\FreeRTOS\FreeRTOS\FreeRTOS\Source/timers.c ****             traceTIMER_CREATE( pxNewTimer );
 373:..\..\..\..\..\..\FreeRTOS\FreeRTOS\FreeRTOS\Source/timers.c ****         }
ARM GAS  C:\Users\u0036181\AppData\Local\Temp\cch2Rq0R.s 			page 8


 374:..\..\..\..\..\..\FreeRTOS\FreeRTOS\FreeRTOS\Source/timers.c ****     }
 375:..\..\..\..\..\..\FreeRTOS\FreeRTOS\FreeRTOS\Source/timers.c **** /*-----------------------------------------------------------*/
 376:..\..\..\..\..\..\FreeRTOS\FreeRTOS\FreeRTOS\Source/timers.c **** 
 377:..\..\..\..\..\..\FreeRTOS\FreeRTOS\FreeRTOS\Source/timers.c ****     BaseType_t xTimerGenericCommand( TimerHandle_t xTimer,
 378:..\..\..\..\..\..\FreeRTOS\FreeRTOS\FreeRTOS\Source/timers.c ****                                      const BaseType_t xCommandID,
 379:..\..\..\..\..\..\FreeRTOS\FreeRTOS\FreeRTOS\Source/timers.c ****                                      const TickType_t xOptionalValue,
 380:..\..\..\..\..\..\FreeRTOS\FreeRTOS\FreeRTOS\Source/timers.c ****                                      BaseType_t * const pxHigherPriorityTaskWoken,
 381:..\..\..\..\..\..\FreeRTOS\FreeRTOS\FreeRTOS\Source/timers.c ****                                      const TickType_t xTicksToWait )
 382:..\..\..\..\..\..\FreeRTOS\FreeRTOS\FreeRTOS\Source/timers.c ****     {
 383:..\..\..\..\..\..\FreeRTOS\FreeRTOS\FreeRTOS\Source/timers.c ****         BaseType_t xReturn = pdFAIL;
 384:..\..\..\..\..\..\FreeRTOS\FreeRTOS\FreeRTOS\Source/timers.c ****         DaemonTaskMessage_t xMessage;
 385:..\..\..\..\..\..\FreeRTOS\FreeRTOS\FreeRTOS\Source/timers.c **** 
 386:..\..\..\..\..\..\FreeRTOS\FreeRTOS\FreeRTOS\Source/timers.c ****         configASSERT( xTimer );
 387:..\..\..\..\..\..\FreeRTOS\FreeRTOS\FreeRTOS\Source/timers.c **** 
 388:..\..\..\..\..\..\FreeRTOS\FreeRTOS\FreeRTOS\Source/timers.c ****         /* Send a message to the timer service task to perform a particular action
 389:..\..\..\..\..\..\FreeRTOS\FreeRTOS\FreeRTOS\Source/timers.c ****          * on a particular timer definition. */
 390:..\..\..\..\..\..\FreeRTOS\FreeRTOS\FreeRTOS\Source/timers.c ****         if( xTimerQueue != NULL )
 391:..\..\..\..\..\..\FreeRTOS\FreeRTOS\FreeRTOS\Source/timers.c ****         {
 392:..\..\..\..\..\..\FreeRTOS\FreeRTOS\FreeRTOS\Source/timers.c ****             /* Send a command to the timer service task to start the xTimer timer. */
 393:..\..\..\..\..\..\FreeRTOS\FreeRTOS\FreeRTOS\Source/timers.c ****             xMessage.xMessageID = xCommandID;
 394:..\..\..\..\..\..\FreeRTOS\FreeRTOS\FreeRTOS\Source/timers.c ****             xMessage.u.xTimerParameters.xMessageValue = xOptionalValue;
 395:..\..\..\..\..\..\FreeRTOS\FreeRTOS\FreeRTOS\Source/timers.c ****             xMessage.u.xTimerParameters.pxTimer = xTimer;
 396:..\..\..\..\..\..\FreeRTOS\FreeRTOS\FreeRTOS\Source/timers.c **** 
 397:..\..\..\..\..\..\FreeRTOS\FreeRTOS\FreeRTOS\Source/timers.c ****             if( xCommandID < tmrFIRST_FROM_ISR_COMMAND )
 398:..\..\..\..\..\..\FreeRTOS\FreeRTOS\FreeRTOS\Source/timers.c ****             {
 399:..\..\..\..\..\..\FreeRTOS\FreeRTOS\FreeRTOS\Source/timers.c ****                 if( xTaskGetSchedulerState() == taskSCHEDULER_RUNNING )
 400:..\..\..\..\..\..\FreeRTOS\FreeRTOS\FreeRTOS\Source/timers.c ****                 {
 401:..\..\..\..\..\..\FreeRTOS\FreeRTOS\FreeRTOS\Source/timers.c ****                     xReturn = xQueueSendToBack( xTimerQueue, &xMessage, xTicksToWait );
 402:..\..\..\..\..\..\FreeRTOS\FreeRTOS\FreeRTOS\Source/timers.c ****                 }
 403:..\..\..\..\..\..\FreeRTOS\FreeRTOS\FreeRTOS\Source/timers.c ****                 else
 404:..\..\..\..\..\..\FreeRTOS\FreeRTOS\FreeRTOS\Source/timers.c ****                 {
 405:..\..\..\..\..\..\FreeRTOS\FreeRTOS\FreeRTOS\Source/timers.c ****                     xReturn = xQueueSendToBack( xTimerQueue, &xMessage, tmrNO_DELAY );
 406:..\..\..\..\..\..\FreeRTOS\FreeRTOS\FreeRTOS\Source/timers.c ****                 }
 407:..\..\..\..\..\..\FreeRTOS\FreeRTOS\FreeRTOS\Source/timers.c ****             }
 408:..\..\..\..\..\..\FreeRTOS\FreeRTOS\FreeRTOS\Source/timers.c ****             else
 409:..\..\..\..\..\..\FreeRTOS\FreeRTOS\FreeRTOS\Source/timers.c ****             {
 410:..\..\..\..\..\..\FreeRTOS\FreeRTOS\FreeRTOS\Source/timers.c ****                 xReturn = xQueueSendToBackFromISR( xTimerQueue, &xMessage, pxHigherPriorityTaskWoke
 411:..\..\..\..\..\..\FreeRTOS\FreeRTOS\FreeRTOS\Source/timers.c ****             }
 412:..\..\..\..\..\..\FreeRTOS\FreeRTOS\FreeRTOS\Source/timers.c **** 
 413:..\..\..\..\..\..\FreeRTOS\FreeRTOS\FreeRTOS\Source/timers.c ****             traceTIMER_COMMAND_SEND( xTimer, xCommandID, xOptionalValue, xReturn );
 414:..\..\..\..\..\..\FreeRTOS\FreeRTOS\FreeRTOS\Source/timers.c ****         }
 415:..\..\..\..\..\..\FreeRTOS\FreeRTOS\FreeRTOS\Source/timers.c ****         else
 416:..\..\..\..\..\..\FreeRTOS\FreeRTOS\FreeRTOS\Source/timers.c ****         {
 417:..\..\..\..\..\..\FreeRTOS\FreeRTOS\FreeRTOS\Source/timers.c ****             mtCOVERAGE_TEST_MARKER();
 418:..\..\..\..\..\..\FreeRTOS\FreeRTOS\FreeRTOS\Source/timers.c ****         }
 419:..\..\..\..\..\..\FreeRTOS\FreeRTOS\FreeRTOS\Source/timers.c **** 
 420:..\..\..\..\..\..\FreeRTOS\FreeRTOS\FreeRTOS\Source/timers.c ****         return xReturn;
 421:..\..\..\..\..\..\FreeRTOS\FreeRTOS\FreeRTOS\Source/timers.c ****     }
 422:..\..\..\..\..\..\FreeRTOS\FreeRTOS\FreeRTOS\Source/timers.c **** /*-----------------------------------------------------------*/
 423:..\..\..\..\..\..\FreeRTOS\FreeRTOS\FreeRTOS\Source/timers.c **** 
 424:..\..\..\..\..\..\FreeRTOS\FreeRTOS\FreeRTOS\Source/timers.c ****     TaskHandle_t xTimerGetTimerDaemonTaskHandle( void )
 425:..\..\..\..\..\..\FreeRTOS\FreeRTOS\FreeRTOS\Source/timers.c ****     {
 426:..\..\..\..\..\..\FreeRTOS\FreeRTOS\FreeRTOS\Source/timers.c ****         /* If xTimerGetTimerDaemonTaskHandle() is called before the scheduler has been
 427:..\..\..\..\..\..\FreeRTOS\FreeRTOS\FreeRTOS\Source/timers.c ****          * started, then xTimerTaskHandle will be NULL. */
 428:..\..\..\..\..\..\FreeRTOS\FreeRTOS\FreeRTOS\Source/timers.c ****         configASSERT( ( xTimerTaskHandle != NULL ) );
 429:..\..\..\..\..\..\FreeRTOS\FreeRTOS\FreeRTOS\Source/timers.c ****         return xTimerTaskHandle;
 430:..\..\..\..\..\..\FreeRTOS\FreeRTOS\FreeRTOS\Source/timers.c ****     }
ARM GAS  C:\Users\u0036181\AppData\Local\Temp\cch2Rq0R.s 			page 9


 431:..\..\..\..\..\..\FreeRTOS\FreeRTOS\FreeRTOS\Source/timers.c **** /*-----------------------------------------------------------*/
 432:..\..\..\..\..\..\FreeRTOS\FreeRTOS\FreeRTOS\Source/timers.c **** 
 433:..\..\..\..\..\..\FreeRTOS\FreeRTOS\FreeRTOS\Source/timers.c ****     TickType_t xTimerGetPeriod( TimerHandle_t xTimer )
 434:..\..\..\..\..\..\FreeRTOS\FreeRTOS\FreeRTOS\Source/timers.c ****     {
 435:..\..\..\..\..\..\FreeRTOS\FreeRTOS\FreeRTOS\Source/timers.c ****         Timer_t * pxTimer = xTimer;
 436:..\..\..\..\..\..\FreeRTOS\FreeRTOS\FreeRTOS\Source/timers.c **** 
 437:..\..\..\..\..\..\FreeRTOS\FreeRTOS\FreeRTOS\Source/timers.c ****         configASSERT( xTimer );
 438:..\..\..\..\..\..\FreeRTOS\FreeRTOS\FreeRTOS\Source/timers.c ****         return pxTimer->xTimerPeriodInTicks;
 439:..\..\..\..\..\..\FreeRTOS\FreeRTOS\FreeRTOS\Source/timers.c ****     }
 440:..\..\..\..\..\..\FreeRTOS\FreeRTOS\FreeRTOS\Source/timers.c **** /*-----------------------------------------------------------*/
 441:..\..\..\..\..\..\FreeRTOS\FreeRTOS\FreeRTOS\Source/timers.c **** 
 442:..\..\..\..\..\..\FreeRTOS\FreeRTOS\FreeRTOS\Source/timers.c ****     void vTimerSetReloadMode( TimerHandle_t xTimer,
 443:..\..\..\..\..\..\FreeRTOS\FreeRTOS\FreeRTOS\Source/timers.c ****                               const UBaseType_t uxAutoReload )
 444:..\..\..\..\..\..\FreeRTOS\FreeRTOS\FreeRTOS\Source/timers.c ****     {
 445:..\..\..\..\..\..\FreeRTOS\FreeRTOS\FreeRTOS\Source/timers.c ****         Timer_t * pxTimer = xTimer;
 446:..\..\..\..\..\..\FreeRTOS\FreeRTOS\FreeRTOS\Source/timers.c **** 
 447:..\..\..\..\..\..\FreeRTOS\FreeRTOS\FreeRTOS\Source/timers.c ****         configASSERT( xTimer );
 448:..\..\..\..\..\..\FreeRTOS\FreeRTOS\FreeRTOS\Source/timers.c ****         taskENTER_CRITICAL();
 449:..\..\..\..\..\..\FreeRTOS\FreeRTOS\FreeRTOS\Source/timers.c ****         {
 450:..\..\..\..\..\..\FreeRTOS\FreeRTOS\FreeRTOS\Source/timers.c ****             if( uxAutoReload != pdFALSE )
 451:..\..\..\..\..\..\FreeRTOS\FreeRTOS\FreeRTOS\Source/timers.c ****             {
 452:..\..\..\..\..\..\FreeRTOS\FreeRTOS\FreeRTOS\Source/timers.c ****                 pxTimer->ucStatus |= tmrSTATUS_IS_AUTORELOAD;
 453:..\..\..\..\..\..\FreeRTOS\FreeRTOS\FreeRTOS\Source/timers.c ****             }
 454:..\..\..\..\..\..\FreeRTOS\FreeRTOS\FreeRTOS\Source/timers.c ****             else
 455:..\..\..\..\..\..\FreeRTOS\FreeRTOS\FreeRTOS\Source/timers.c ****             {
 456:..\..\..\..\..\..\FreeRTOS\FreeRTOS\FreeRTOS\Source/timers.c ****                 pxTimer->ucStatus &= ~tmrSTATUS_IS_AUTORELOAD;
 457:..\..\..\..\..\..\FreeRTOS\FreeRTOS\FreeRTOS\Source/timers.c ****             }
 458:..\..\..\..\..\..\FreeRTOS\FreeRTOS\FreeRTOS\Source/timers.c ****         }
 459:..\..\..\..\..\..\FreeRTOS\FreeRTOS\FreeRTOS\Source/timers.c ****         taskEXIT_CRITICAL();
 460:..\..\..\..\..\..\FreeRTOS\FreeRTOS\FreeRTOS\Source/timers.c ****     }
 461:..\..\..\..\..\..\FreeRTOS\FreeRTOS\FreeRTOS\Source/timers.c **** /*-----------------------------------------------------------*/
 462:..\..\..\..\..\..\FreeRTOS\FreeRTOS\FreeRTOS\Source/timers.c **** 
 463:..\..\..\..\..\..\FreeRTOS\FreeRTOS\FreeRTOS\Source/timers.c ****     UBaseType_t uxTimerGetReloadMode( TimerHandle_t xTimer )
 464:..\..\..\..\..\..\FreeRTOS\FreeRTOS\FreeRTOS\Source/timers.c ****     {
 465:..\..\..\..\..\..\FreeRTOS\FreeRTOS\FreeRTOS\Source/timers.c ****         Timer_t * pxTimer = xTimer;
 466:..\..\..\..\..\..\FreeRTOS\FreeRTOS\FreeRTOS\Source/timers.c ****         UBaseType_t uxReturn;
 467:..\..\..\..\..\..\FreeRTOS\FreeRTOS\FreeRTOS\Source/timers.c **** 
 468:..\..\..\..\..\..\FreeRTOS\FreeRTOS\FreeRTOS\Source/timers.c ****         configASSERT( xTimer );
 469:..\..\..\..\..\..\FreeRTOS\FreeRTOS\FreeRTOS\Source/timers.c ****         taskENTER_CRITICAL();
 470:..\..\..\..\..\..\FreeRTOS\FreeRTOS\FreeRTOS\Source/timers.c ****         {
 471:..\..\..\..\..\..\FreeRTOS\FreeRTOS\FreeRTOS\Source/timers.c ****             if( ( pxTimer->ucStatus & tmrSTATUS_IS_AUTORELOAD ) == 0 )
 472:..\..\..\..\..\..\FreeRTOS\FreeRTOS\FreeRTOS\Source/timers.c ****             {
 473:..\..\..\..\..\..\FreeRTOS\FreeRTOS\FreeRTOS\Source/timers.c ****                 /* Not an auto-reload timer. */
 474:..\..\..\..\..\..\FreeRTOS\FreeRTOS\FreeRTOS\Source/timers.c ****                 uxReturn = ( UBaseType_t ) pdFALSE;
 475:..\..\..\..\..\..\FreeRTOS\FreeRTOS\FreeRTOS\Source/timers.c ****             }
 476:..\..\..\..\..\..\FreeRTOS\FreeRTOS\FreeRTOS\Source/timers.c ****             else
 477:..\..\..\..\..\..\FreeRTOS\FreeRTOS\FreeRTOS\Source/timers.c ****             {
 478:..\..\..\..\..\..\FreeRTOS\FreeRTOS\FreeRTOS\Source/timers.c ****                 /* Is an auto-reload timer. */
 479:..\..\..\..\..\..\FreeRTOS\FreeRTOS\FreeRTOS\Source/timers.c ****                 uxReturn = ( UBaseType_t ) pdTRUE;
 480:..\..\..\..\..\..\FreeRTOS\FreeRTOS\FreeRTOS\Source/timers.c ****             }
 481:..\..\..\..\..\..\FreeRTOS\FreeRTOS\FreeRTOS\Source/timers.c ****         }
 482:..\..\..\..\..\..\FreeRTOS\FreeRTOS\FreeRTOS\Source/timers.c ****         taskEXIT_CRITICAL();
 483:..\..\..\..\..\..\FreeRTOS\FreeRTOS\FreeRTOS\Source/timers.c **** 
 484:..\..\..\..\..\..\FreeRTOS\FreeRTOS\FreeRTOS\Source/timers.c ****         return uxReturn;
 485:..\..\..\..\..\..\FreeRTOS\FreeRTOS\FreeRTOS\Source/timers.c ****     }
 486:..\..\..\..\..\..\FreeRTOS\FreeRTOS\FreeRTOS\Source/timers.c **** /*-----------------------------------------------------------*/
 487:..\..\..\..\..\..\FreeRTOS\FreeRTOS\FreeRTOS\Source/timers.c **** 
ARM GAS  C:\Users\u0036181\AppData\Local\Temp\cch2Rq0R.s 			page 10


 488:..\..\..\..\..\..\FreeRTOS\FreeRTOS\FreeRTOS\Source/timers.c ****     TickType_t xTimerGetExpiryTime( TimerHandle_t xTimer )
 489:..\..\..\..\..\..\FreeRTOS\FreeRTOS\FreeRTOS\Source/timers.c ****     {
 490:..\..\..\..\..\..\FreeRTOS\FreeRTOS\FreeRTOS\Source/timers.c ****         Timer_t * pxTimer = xTimer;
 491:..\..\..\..\..\..\FreeRTOS\FreeRTOS\FreeRTOS\Source/timers.c ****         TickType_t xReturn;
 492:..\..\..\..\..\..\FreeRTOS\FreeRTOS\FreeRTOS\Source/timers.c **** 
 493:..\..\..\..\..\..\FreeRTOS\FreeRTOS\FreeRTOS\Source/timers.c ****         configASSERT( xTimer );
 494:..\..\..\..\..\..\FreeRTOS\FreeRTOS\FreeRTOS\Source/timers.c ****         xReturn = listGET_LIST_ITEM_VALUE( &( pxTimer->xTimerListItem ) );
 495:..\..\..\..\..\..\FreeRTOS\FreeRTOS\FreeRTOS\Source/timers.c ****         return xReturn;
 496:..\..\..\..\..\..\FreeRTOS\FreeRTOS\FreeRTOS\Source/timers.c ****     }
 497:..\..\..\..\..\..\FreeRTOS\FreeRTOS\FreeRTOS\Source/timers.c **** /*-----------------------------------------------------------*/
 498:..\..\..\..\..\..\FreeRTOS\FreeRTOS\FreeRTOS\Source/timers.c **** 
 499:..\..\..\..\..\..\FreeRTOS\FreeRTOS\FreeRTOS\Source/timers.c ****     const char * pcTimerGetName( TimerHandle_t xTimer ) /*lint !e971 Unqualified char types are all
 500:..\..\..\..\..\..\FreeRTOS\FreeRTOS\FreeRTOS\Source/timers.c ****     {
 501:..\..\..\..\..\..\FreeRTOS\FreeRTOS\FreeRTOS\Source/timers.c ****         Timer_t * pxTimer = xTimer;
 502:..\..\..\..\..\..\FreeRTOS\FreeRTOS\FreeRTOS\Source/timers.c **** 
 503:..\..\..\..\..\..\FreeRTOS\FreeRTOS\FreeRTOS\Source/timers.c ****         configASSERT( xTimer );
 504:..\..\..\..\..\..\FreeRTOS\FreeRTOS\FreeRTOS\Source/timers.c ****         return pxTimer->pcTimerName;
 505:..\..\..\..\..\..\FreeRTOS\FreeRTOS\FreeRTOS\Source/timers.c ****     }
 506:..\..\..\..\..\..\FreeRTOS\FreeRTOS\FreeRTOS\Source/timers.c **** /*-----------------------------------------------------------*/
 507:..\..\..\..\..\..\FreeRTOS\FreeRTOS\FreeRTOS\Source/timers.c **** 
 508:..\..\..\..\..\..\FreeRTOS\FreeRTOS\FreeRTOS\Source/timers.c ****     static void prvProcessExpiredTimer( const TickType_t xNextExpireTime,
 509:..\..\..\..\..\..\FreeRTOS\FreeRTOS\FreeRTOS\Source/timers.c ****                                         const TickType_t xTimeNow )
 510:..\..\..\..\..\..\FreeRTOS\FreeRTOS\FreeRTOS\Source/timers.c ****     {
 511:..\..\..\..\..\..\FreeRTOS\FreeRTOS\FreeRTOS\Source/timers.c ****         BaseType_t xResult;
 512:..\..\..\..\..\..\FreeRTOS\FreeRTOS\FreeRTOS\Source/timers.c ****         Timer_t * const pxTimer = ( Timer_t * ) listGET_OWNER_OF_HEAD_ENTRY( pxCurrentTimerList ); 
 513:..\..\..\..\..\..\FreeRTOS\FreeRTOS\FreeRTOS\Source/timers.c **** 
 514:..\..\..\..\..\..\FreeRTOS\FreeRTOS\FreeRTOS\Source/timers.c ****         /* Remove the timer from the list of active timers.  A check has already
 515:..\..\..\..\..\..\FreeRTOS\FreeRTOS\FreeRTOS\Source/timers.c ****          * been performed to ensure the list is not empty. */
 516:..\..\..\..\..\..\FreeRTOS\FreeRTOS\FreeRTOS\Source/timers.c **** 
 517:..\..\..\..\..\..\FreeRTOS\FreeRTOS\FreeRTOS\Source/timers.c ****         ( void ) uxListRemove( &( pxTimer->xTimerListItem ) );
 518:..\..\..\..\..\..\FreeRTOS\FreeRTOS\FreeRTOS\Source/timers.c ****         traceTIMER_EXPIRED( pxTimer );
 519:..\..\..\..\..\..\FreeRTOS\FreeRTOS\FreeRTOS\Source/timers.c **** 
 520:..\..\..\..\..\..\FreeRTOS\FreeRTOS\FreeRTOS\Source/timers.c ****         /* If the timer is an auto-reload timer then calculate the next
 521:..\..\..\..\..\..\FreeRTOS\FreeRTOS\FreeRTOS\Source/timers.c ****          * expiry time and re-insert the timer in the list of active timers. */
 522:..\..\..\..\..\..\FreeRTOS\FreeRTOS\FreeRTOS\Source/timers.c ****         if( ( pxTimer->ucStatus & tmrSTATUS_IS_AUTORELOAD ) != 0 )
 523:..\..\..\..\..\..\FreeRTOS\FreeRTOS\FreeRTOS\Source/timers.c ****         {
 524:..\..\..\..\..\..\FreeRTOS\FreeRTOS\FreeRTOS\Source/timers.c ****             /* The timer is inserted into a list using a time relative to anything
 525:..\..\..\..\..\..\FreeRTOS\FreeRTOS\FreeRTOS\Source/timers.c ****              * other than the current time.  It will therefore be inserted into the
 526:..\..\..\..\..\..\FreeRTOS\FreeRTOS\FreeRTOS\Source/timers.c ****              * correct list relative to the time this task thinks it is now. */
 527:..\..\..\..\..\..\FreeRTOS\FreeRTOS\FreeRTOS\Source/timers.c ****             if( prvInsertTimerInActiveList( pxTimer, ( xNextExpireTime + pxTimer->xTimerPeriodInTic
 528:..\..\..\..\..\..\FreeRTOS\FreeRTOS\FreeRTOS\Source/timers.c ****             {
 529:..\..\..\..\..\..\FreeRTOS\FreeRTOS\FreeRTOS\Source/timers.c ****                 /* The timer expired before it was added to the active timer
 530:..\..\..\..\..\..\FreeRTOS\FreeRTOS\FreeRTOS\Source/timers.c ****                  * list.  Reload it now.  */
 531:..\..\..\..\..\..\FreeRTOS\FreeRTOS\FreeRTOS\Source/timers.c ****                 xResult = xTimerGenericCommand( pxTimer, tmrCOMMAND_START_DONT_TRACE, xNextExpireTi
 532:..\..\..\..\..\..\FreeRTOS\FreeRTOS\FreeRTOS\Source/timers.c ****                 configASSERT( xResult );
 533:..\..\..\..\..\..\FreeRTOS\FreeRTOS\FreeRTOS\Source/timers.c ****                 ( void ) xResult;
 534:..\..\..\..\..\..\FreeRTOS\FreeRTOS\FreeRTOS\Source/timers.c ****             }
 535:..\..\..\..\..\..\FreeRTOS\FreeRTOS\FreeRTOS\Source/timers.c ****             else
 536:..\..\..\..\..\..\FreeRTOS\FreeRTOS\FreeRTOS\Source/timers.c ****             {
 537:..\..\..\..\..\..\FreeRTOS\FreeRTOS\FreeRTOS\Source/timers.c ****                 mtCOVERAGE_TEST_MARKER();
 538:..\..\..\..\..\..\FreeRTOS\FreeRTOS\FreeRTOS\Source/timers.c ****             }
 539:..\..\..\..\..\..\FreeRTOS\FreeRTOS\FreeRTOS\Source/timers.c ****         }
 540:..\..\..\..\..\..\FreeRTOS\FreeRTOS\FreeRTOS\Source/timers.c ****         else
 541:..\..\..\..\..\..\FreeRTOS\FreeRTOS\FreeRTOS\Source/timers.c ****         {
 542:..\..\..\..\..\..\FreeRTOS\FreeRTOS\FreeRTOS\Source/timers.c ****             pxTimer->ucStatus &= ~tmrSTATUS_IS_ACTIVE;
 543:..\..\..\..\..\..\FreeRTOS\FreeRTOS\FreeRTOS\Source/timers.c ****             mtCOVERAGE_TEST_MARKER();
 544:..\..\..\..\..\..\FreeRTOS\FreeRTOS\FreeRTOS\Source/timers.c ****         }
ARM GAS  C:\Users\u0036181\AppData\Local\Temp\cch2Rq0R.s 			page 11


 545:..\..\..\..\..\..\FreeRTOS\FreeRTOS\FreeRTOS\Source/timers.c **** 
 546:..\..\..\..\..\..\FreeRTOS\FreeRTOS\FreeRTOS\Source/timers.c ****         /* Call the timer callback. */
 547:..\..\..\..\..\..\FreeRTOS\FreeRTOS\FreeRTOS\Source/timers.c ****         pxTimer->pxCallbackFunction( ( TimerHandle_t ) pxTimer );
 548:..\..\..\..\..\..\FreeRTOS\FreeRTOS\FreeRTOS\Source/timers.c ****     }
 549:..\..\..\..\..\..\FreeRTOS\FreeRTOS\FreeRTOS\Source/timers.c **** /*-----------------------------------------------------------*/
 550:..\..\..\..\..\..\FreeRTOS\FreeRTOS\FreeRTOS\Source/timers.c **** 
 551:..\..\..\..\..\..\FreeRTOS\FreeRTOS\FreeRTOS\Source/timers.c ****     static portTASK_FUNCTION( prvTimerTask, pvParameters )
 552:..\..\..\..\..\..\FreeRTOS\FreeRTOS\FreeRTOS\Source/timers.c ****     {
 553:..\..\..\..\..\..\FreeRTOS\FreeRTOS\FreeRTOS\Source/timers.c ****         TickType_t xNextExpireTime;
 554:..\..\..\..\..\..\FreeRTOS\FreeRTOS\FreeRTOS\Source/timers.c ****         BaseType_t xListWasEmpty;
 555:..\..\..\..\..\..\FreeRTOS\FreeRTOS\FreeRTOS\Source/timers.c **** 
 556:..\..\..\..\..\..\FreeRTOS\FreeRTOS\FreeRTOS\Source/timers.c ****         /* Just to avoid compiler warnings. */
 557:..\..\..\..\..\..\FreeRTOS\FreeRTOS\FreeRTOS\Source/timers.c ****         ( void ) pvParameters;
 558:..\..\..\..\..\..\FreeRTOS\FreeRTOS\FreeRTOS\Source/timers.c **** 
 559:..\..\..\..\..\..\FreeRTOS\FreeRTOS\FreeRTOS\Source/timers.c ****         #if ( configUSE_DAEMON_TASK_STARTUP_HOOK == 1 )
 560:..\..\..\..\..\..\FreeRTOS\FreeRTOS\FreeRTOS\Source/timers.c ****             {
 561:..\..\..\..\..\..\FreeRTOS\FreeRTOS\FreeRTOS\Source/timers.c ****                 extern void vApplicationDaemonTaskStartupHook( void );
 562:..\..\..\..\..\..\FreeRTOS\FreeRTOS\FreeRTOS\Source/timers.c **** 
 563:..\..\..\..\..\..\FreeRTOS\FreeRTOS\FreeRTOS\Source/timers.c ****                 /* Allow the application writer to execute some code in the context of
 564:..\..\..\..\..\..\FreeRTOS\FreeRTOS\FreeRTOS\Source/timers.c ****                  * this task at the point the task starts executing.  This is useful if the
 565:..\..\..\..\..\..\FreeRTOS\FreeRTOS\FreeRTOS\Source/timers.c ****                  * application includes initialisation code that would benefit from
 566:..\..\..\..\..\..\FreeRTOS\FreeRTOS\FreeRTOS\Source/timers.c ****                  * executing after the scheduler has been started. */
 567:..\..\..\..\..\..\FreeRTOS\FreeRTOS\FreeRTOS\Source/timers.c ****                 vApplicationDaemonTaskStartupHook();
 568:..\..\..\..\..\..\FreeRTOS\FreeRTOS\FreeRTOS\Source/timers.c ****             }
 569:..\..\..\..\..\..\FreeRTOS\FreeRTOS\FreeRTOS\Source/timers.c ****         #endif /* configUSE_DAEMON_TASK_STARTUP_HOOK */
 570:..\..\..\..\..\..\FreeRTOS\FreeRTOS\FreeRTOS\Source/timers.c **** 
 571:..\..\..\..\..\..\FreeRTOS\FreeRTOS\FreeRTOS\Source/timers.c ****         for( ; ; )
 572:..\..\..\..\..\..\FreeRTOS\FreeRTOS\FreeRTOS\Source/timers.c ****         {
 573:..\..\..\..\..\..\FreeRTOS\FreeRTOS\FreeRTOS\Source/timers.c ****             /* Query the timers list to see if it contains any timers, and if so,
 574:..\..\..\..\..\..\FreeRTOS\FreeRTOS\FreeRTOS\Source/timers.c ****              * obtain the time at which the next timer will expire. */
 575:..\..\..\..\..\..\FreeRTOS\FreeRTOS\FreeRTOS\Source/timers.c ****             xNextExpireTime = prvGetNextExpireTime( &xListWasEmpty );
 576:..\..\..\..\..\..\FreeRTOS\FreeRTOS\FreeRTOS\Source/timers.c **** 
 577:..\..\..\..\..\..\FreeRTOS\FreeRTOS\FreeRTOS\Source/timers.c ****             /* If a timer has expired, process it.  Otherwise, block this task
 578:..\..\..\..\..\..\FreeRTOS\FreeRTOS\FreeRTOS\Source/timers.c ****              * until either a timer does expire, or a command is received. */
 579:..\..\..\..\..\..\FreeRTOS\FreeRTOS\FreeRTOS\Source/timers.c ****             prvProcessTimerOrBlockTask( xNextExpireTime, xListWasEmpty );
 580:..\..\..\..\..\..\FreeRTOS\FreeRTOS\FreeRTOS\Source/timers.c **** 
 581:..\..\..\..\..\..\FreeRTOS\FreeRTOS\FreeRTOS\Source/timers.c ****             /* Empty the command queue. */
 582:..\..\..\..\..\..\FreeRTOS\FreeRTOS\FreeRTOS\Source/timers.c ****             prvProcessReceivedCommands();
 583:..\..\..\..\..\..\FreeRTOS\FreeRTOS\FreeRTOS\Source/timers.c ****         }
 584:..\..\..\..\..\..\FreeRTOS\FreeRTOS\FreeRTOS\Source/timers.c ****     }
 585:..\..\..\..\..\..\FreeRTOS\FreeRTOS\FreeRTOS\Source/timers.c **** /*-----------------------------------------------------------*/
 586:..\..\..\..\..\..\FreeRTOS\FreeRTOS\FreeRTOS\Source/timers.c **** 
 587:..\..\..\..\..\..\FreeRTOS\FreeRTOS\FreeRTOS\Source/timers.c ****     static void prvProcessTimerOrBlockTask( const TickType_t xNextExpireTime,
 588:..\..\..\..\..\..\FreeRTOS\FreeRTOS\FreeRTOS\Source/timers.c ****                                             BaseType_t xListWasEmpty )
 589:..\..\..\..\..\..\FreeRTOS\FreeRTOS\FreeRTOS\Source/timers.c ****     {
 590:..\..\..\..\..\..\FreeRTOS\FreeRTOS\FreeRTOS\Source/timers.c ****         TickType_t xTimeNow;
 591:..\..\..\..\..\..\FreeRTOS\FreeRTOS\FreeRTOS\Source/timers.c ****         BaseType_t xTimerListsWereSwitched;
 592:..\..\..\..\..\..\FreeRTOS\FreeRTOS\FreeRTOS\Source/timers.c **** 
 593:..\..\..\..\..\..\FreeRTOS\FreeRTOS\FreeRTOS\Source/timers.c ****         vTaskSuspendAll();
 594:..\..\..\..\..\..\FreeRTOS\FreeRTOS\FreeRTOS\Source/timers.c ****         {
 595:..\..\..\..\..\..\FreeRTOS\FreeRTOS\FreeRTOS\Source/timers.c ****             /* Obtain the time now to make an assessment as to whether the timer
 596:..\..\..\..\..\..\FreeRTOS\FreeRTOS\FreeRTOS\Source/timers.c ****              * has expired or not.  If obtaining the time causes the lists to switch
 597:..\..\..\..\..\..\FreeRTOS\FreeRTOS\FreeRTOS\Source/timers.c ****              * then don't process this timer as any timers that remained in the list
 598:..\..\..\..\..\..\FreeRTOS\FreeRTOS\FreeRTOS\Source/timers.c ****              * when the lists were switched will have been processed within the
 599:..\..\..\..\..\..\FreeRTOS\FreeRTOS\FreeRTOS\Source/timers.c ****              * prvSampleTimeNow() function. */
 600:..\..\..\..\..\..\FreeRTOS\FreeRTOS\FreeRTOS\Source/timers.c ****             xTimeNow = prvSampleTimeNow( &xTimerListsWereSwitched );
 601:..\..\..\..\..\..\FreeRTOS\FreeRTOS\FreeRTOS\Source/timers.c **** 
ARM GAS  C:\Users\u0036181\AppData\Local\Temp\cch2Rq0R.s 			page 12


 602:..\..\..\..\..\..\FreeRTOS\FreeRTOS\FreeRTOS\Source/timers.c ****             if( xTimerListsWereSwitched == pdFALSE )
 603:..\..\..\..\..\..\FreeRTOS\FreeRTOS\FreeRTOS\Source/timers.c ****             {
 604:..\..\..\..\..\..\FreeRTOS\FreeRTOS\FreeRTOS\Source/timers.c ****                 /* The tick count has not overflowed, has the timer expired? */
 605:..\..\..\..\..\..\FreeRTOS\FreeRTOS\FreeRTOS\Source/timers.c ****                 if( ( xListWasEmpty == pdFALSE ) && ( xNextExpireTime <= xTimeNow ) )
 606:..\..\..\..\..\..\FreeRTOS\FreeRTOS\FreeRTOS\Source/timers.c ****                 {
 607:..\..\..\..\..\..\FreeRTOS\FreeRTOS\FreeRTOS\Source/timers.c ****                     ( void ) xTaskResumeAll();
 608:..\..\..\..\..\..\FreeRTOS\FreeRTOS\FreeRTOS\Source/timers.c ****                     prvProcessExpiredTimer( xNextExpireTime, xTimeNow );
 609:..\..\..\..\..\..\FreeRTOS\FreeRTOS\FreeRTOS\Source/timers.c ****                 }
 610:..\..\..\..\..\..\FreeRTOS\FreeRTOS\FreeRTOS\Source/timers.c ****                 else
 611:..\..\..\..\..\..\FreeRTOS\FreeRTOS\FreeRTOS\Source/timers.c ****                 {
 612:..\..\..\..\..\..\FreeRTOS\FreeRTOS\FreeRTOS\Source/timers.c ****                     /* The tick count has not overflowed, and the next expire
 613:..\..\..\..\..\..\FreeRTOS\FreeRTOS\FreeRTOS\Source/timers.c ****                      * time has not been reached yet.  This task should therefore
 614:..\..\..\..\..\..\FreeRTOS\FreeRTOS\FreeRTOS\Source/timers.c ****                      * block to wait for the next expire time or a command to be
 615:..\..\..\..\..\..\FreeRTOS\FreeRTOS\FreeRTOS\Source/timers.c ****                      * received - whichever comes first.  The following line cannot
 616:..\..\..\..\..\..\FreeRTOS\FreeRTOS\FreeRTOS\Source/timers.c ****                      * be reached unless xNextExpireTime > xTimeNow, except in the
 617:..\..\..\..\..\..\FreeRTOS\FreeRTOS\FreeRTOS\Source/timers.c ****                      * case when the current timer list is empty. */
 618:..\..\..\..\..\..\FreeRTOS\FreeRTOS\FreeRTOS\Source/timers.c ****                     if( xListWasEmpty != pdFALSE )
 619:..\..\..\..\..\..\FreeRTOS\FreeRTOS\FreeRTOS\Source/timers.c ****                     {
 620:..\..\..\..\..\..\FreeRTOS\FreeRTOS\FreeRTOS\Source/timers.c ****                         /* The current timer list is empty - is the overflow list
 621:..\..\..\..\..\..\FreeRTOS\FreeRTOS\FreeRTOS\Source/timers.c ****                          * also empty? */
 622:..\..\..\..\..\..\FreeRTOS\FreeRTOS\FreeRTOS\Source/timers.c ****                         xListWasEmpty = listLIST_IS_EMPTY( pxOverflowTimerList );
 623:..\..\..\..\..\..\FreeRTOS\FreeRTOS\FreeRTOS\Source/timers.c ****                     }
 624:..\..\..\..\..\..\FreeRTOS\FreeRTOS\FreeRTOS\Source/timers.c **** 
 625:..\..\..\..\..\..\FreeRTOS\FreeRTOS\FreeRTOS\Source/timers.c ****                     vQueueWaitForMessageRestricted( xTimerQueue, ( xNextExpireTime - xTimeNow ), xL
 626:..\..\..\..\..\..\FreeRTOS\FreeRTOS\FreeRTOS\Source/timers.c **** 
 627:..\..\..\..\..\..\FreeRTOS\FreeRTOS\FreeRTOS\Source/timers.c ****                     if( xTaskResumeAll() == pdFALSE )
 628:..\..\..\..\..\..\FreeRTOS\FreeRTOS\FreeRTOS\Source/timers.c ****                     {
 629:..\..\..\..\..\..\FreeRTOS\FreeRTOS\FreeRTOS\Source/timers.c ****                         /* Yield to wait for either a command to arrive, or the
 630:..\..\..\..\..\..\FreeRTOS\FreeRTOS\FreeRTOS\Source/timers.c ****                          * block time to expire.  If a command arrived between the
 631:..\..\..\..\..\..\FreeRTOS\FreeRTOS\FreeRTOS\Source/timers.c ****                          * critical section being exited and this yield then the yield
 632:..\..\..\..\..\..\FreeRTOS\FreeRTOS\FreeRTOS\Source/timers.c ****                          * will not cause the task to block. */
 633:..\..\..\..\..\..\FreeRTOS\FreeRTOS\FreeRTOS\Source/timers.c ****                         portYIELD_WITHIN_API();
 634:..\..\..\..\..\..\FreeRTOS\FreeRTOS\FreeRTOS\Source/timers.c ****                     }
 635:..\..\..\..\..\..\FreeRTOS\FreeRTOS\FreeRTOS\Source/timers.c ****                     else
 636:..\..\..\..\..\..\FreeRTOS\FreeRTOS\FreeRTOS\Source/timers.c ****                     {
 637:..\..\..\..\..\..\FreeRTOS\FreeRTOS\FreeRTOS\Source/timers.c ****                         mtCOVERAGE_TEST_MARKER();
 638:..\..\..\..\..\..\FreeRTOS\FreeRTOS\FreeRTOS\Source/timers.c ****                     }
 639:..\..\..\..\..\..\FreeRTOS\FreeRTOS\FreeRTOS\Source/timers.c ****                 }
 640:..\..\..\..\..\..\FreeRTOS\FreeRTOS\FreeRTOS\Source/timers.c ****             }
 641:..\..\..\..\..\..\FreeRTOS\FreeRTOS\FreeRTOS\Source/timers.c ****             else
 642:..\..\..\..\..\..\FreeRTOS\FreeRTOS\FreeRTOS\Source/timers.c ****             {
 643:..\..\..\..\..\..\FreeRTOS\FreeRTOS\FreeRTOS\Source/timers.c ****                 ( void ) xTaskResumeAll();
 644:..\..\..\..\..\..\FreeRTOS\FreeRTOS\FreeRTOS\Source/timers.c ****             }
 645:..\..\..\..\..\..\FreeRTOS\FreeRTOS\FreeRTOS\Source/timers.c ****         }
 646:..\..\..\..\..\..\FreeRTOS\FreeRTOS\FreeRTOS\Source/timers.c ****     }
 647:..\..\..\..\..\..\FreeRTOS\FreeRTOS\FreeRTOS\Source/timers.c **** /*-----------------------------------------------------------*/
 648:..\..\..\..\..\..\FreeRTOS\FreeRTOS\FreeRTOS\Source/timers.c **** 
 649:..\..\..\..\..\..\FreeRTOS\FreeRTOS\FreeRTOS\Source/timers.c ****     static TickType_t prvGetNextExpireTime( BaseType_t * const pxListWasEmpty )
 650:..\..\..\..\..\..\FreeRTOS\FreeRTOS\FreeRTOS\Source/timers.c ****     {
  27              		.loc 1 650 0
  28              		.cfi_startproc
  29              		@ args = 0, pretend = 0, frame = 0
  30              		@ frame_needed = 0, uses_anonymous_args = 0
  31              		@ link register save eliminated.
  32              	.LVL0:
 651:..\..\..\..\..\..\FreeRTOS\FreeRTOS\FreeRTOS\Source/timers.c ****         TickType_t xNextExpireTime;
 652:..\..\..\..\..\..\FreeRTOS\FreeRTOS\FreeRTOS\Source/timers.c **** 
ARM GAS  C:\Users\u0036181\AppData\Local\Temp\cch2Rq0R.s 			page 13


 653:..\..\..\..\..\..\FreeRTOS\FreeRTOS\FreeRTOS\Source/timers.c ****         /* Timers are listed in expiry time order, with the head of the list
 654:..\..\..\..\..\..\FreeRTOS\FreeRTOS\FreeRTOS\Source/timers.c ****          * referencing the task that will expire first.  Obtain the time at which
 655:..\..\..\..\..\..\FreeRTOS\FreeRTOS\FreeRTOS\Source/timers.c ****          * the timer with the nearest expiry time will expire.  If there are no
 656:..\..\..\..\..\..\FreeRTOS\FreeRTOS\FreeRTOS\Source/timers.c ****          * active timers then just set the next expire time to 0.  That will cause
 657:..\..\..\..\..\..\FreeRTOS\FreeRTOS\FreeRTOS\Source/timers.c ****          * this task to unblock when the tick count overflows, at which point the
 658:..\..\..\..\..\..\FreeRTOS\FreeRTOS\FreeRTOS\Source/timers.c ****          * timer lists will be switched and the next expiry time can be
 659:..\..\..\..\..\..\FreeRTOS\FreeRTOS\FreeRTOS\Source/timers.c ****          * re-assessed.  */
 660:..\..\..\..\..\..\FreeRTOS\FreeRTOS\FreeRTOS\Source/timers.c ****         *pxListWasEmpty = listLIST_IS_EMPTY( pxCurrentTimerList );
  33              		.loc 1 660 0
  34 0000 064B     		ldr	r3, .L6
  35 0002 1A68     		ldr	r2, [r3]
  36 0004 1368     		ldr	r3, [r2]
  37 0006 0BB9     		cbnz	r3, .L4
  38 0008 0123     		movs	r3, #1
  39 000a 00E0     		b	.L2
  40              	.L4:
  41 000c 0023     		movs	r3, #0
  42              	.L2:
  43              		.loc 1 660 0 is_stmt 0 discriminator 4
  44 000e 0360     		str	r3, [r0]
 661:..\..\..\..\..\..\FreeRTOS\FreeRTOS\FreeRTOS\Source/timers.c **** 
 662:..\..\..\..\..\..\FreeRTOS\FreeRTOS\FreeRTOS\Source/timers.c ****         if( *pxListWasEmpty == pdFALSE )
  45              		.loc 1 662 0 is_stmt 1 discriminator 4
  46 0010 13B9     		cbnz	r3, .L5
 663:..\..\..\..\..\..\FreeRTOS\FreeRTOS\FreeRTOS\Source/timers.c ****         {
 664:..\..\..\..\..\..\FreeRTOS\FreeRTOS\FreeRTOS\Source/timers.c ****             xNextExpireTime = listGET_ITEM_VALUE_OF_HEAD_ENTRY( pxCurrentTimerList );
  47              		.loc 1 664 0
  48 0012 D368     		ldr	r3, [r2, #12]
  49 0014 1868     		ldr	r0, [r3]
  50              	.LVL1:
  51 0016 7047     		bx	lr
  52              	.LVL2:
  53              	.L5:
 665:..\..\..\..\..\..\FreeRTOS\FreeRTOS\FreeRTOS\Source/timers.c ****         }
 666:..\..\..\..\..\..\FreeRTOS\FreeRTOS\FreeRTOS\Source/timers.c ****         else
 667:..\..\..\..\..\..\FreeRTOS\FreeRTOS\FreeRTOS\Source/timers.c ****         {
 668:..\..\..\..\..\..\FreeRTOS\FreeRTOS\FreeRTOS\Source/timers.c ****             /* Ensure the task unblocks when the tick count rolls over. */
 669:..\..\..\..\..\..\FreeRTOS\FreeRTOS\FreeRTOS\Source/timers.c ****             xNextExpireTime = ( TickType_t ) 0U;
  54              		.loc 1 669 0
  55 0018 0020     		movs	r0, #0
  56              	.LVL3:
 670:..\..\..\..\..\..\FreeRTOS\FreeRTOS\FreeRTOS\Source/timers.c ****         }
 671:..\..\..\..\..\..\FreeRTOS\FreeRTOS\FreeRTOS\Source/timers.c **** 
 672:..\..\..\..\..\..\FreeRTOS\FreeRTOS\FreeRTOS\Source/timers.c ****         return xNextExpireTime;
 673:..\..\..\..\..\..\FreeRTOS\FreeRTOS\FreeRTOS\Source/timers.c ****     }
  57              		.loc 1 673 0
  58 001a 7047     		bx	lr
  59              	.L7:
  60              		.align	2
  61              	.L6:
  62 001c 00000000 		.word	.LANCHOR0
  63              		.cfi_endproc
  64              	.LFE17:
  65              		.size	prvGetNextExpireTime, .-prvGetNextExpireTime
  66              		.section	.text.prvInsertTimerInActiveList,"ax",%progbits
  67              		.align	2
  68              		.thumb
ARM GAS  C:\Users\u0036181\AppData\Local\Temp\cch2Rq0R.s 			page 14


  69              		.thumb_func
  70              		.type	prvInsertTimerInActiveList, %function
  71              	prvInsertTimerInActiveList:
  72              	.LFB19:
 674:..\..\..\..\..\..\FreeRTOS\FreeRTOS\FreeRTOS\Source/timers.c **** /*-----------------------------------------------------------*/
 675:..\..\..\..\..\..\FreeRTOS\FreeRTOS\FreeRTOS\Source/timers.c **** 
 676:..\..\..\..\..\..\FreeRTOS\FreeRTOS\FreeRTOS\Source/timers.c ****     static TickType_t prvSampleTimeNow( BaseType_t * const pxTimerListsWereSwitched )
 677:..\..\..\..\..\..\FreeRTOS\FreeRTOS\FreeRTOS\Source/timers.c ****     {
 678:..\..\..\..\..\..\FreeRTOS\FreeRTOS\FreeRTOS\Source/timers.c ****         TickType_t xTimeNow;
 679:..\..\..\..\..\..\FreeRTOS\FreeRTOS\FreeRTOS\Source/timers.c ****         PRIVILEGED_DATA static TickType_t xLastTime = ( TickType_t ) 0U; /*lint !e956 Variable is o
 680:..\..\..\..\..\..\FreeRTOS\FreeRTOS\FreeRTOS\Source/timers.c **** 
 681:..\..\..\..\..\..\FreeRTOS\FreeRTOS\FreeRTOS\Source/timers.c ****         xTimeNow = xTaskGetTickCount();
 682:..\..\..\..\..\..\FreeRTOS\FreeRTOS\FreeRTOS\Source/timers.c **** 
 683:..\..\..\..\..\..\FreeRTOS\FreeRTOS\FreeRTOS\Source/timers.c ****         if( xTimeNow < xLastTime )
 684:..\..\..\..\..\..\FreeRTOS\FreeRTOS\FreeRTOS\Source/timers.c ****         {
 685:..\..\..\..\..\..\FreeRTOS\FreeRTOS\FreeRTOS\Source/timers.c ****             prvSwitchTimerLists();
 686:..\..\..\..\..\..\FreeRTOS\FreeRTOS\FreeRTOS\Source/timers.c ****             *pxTimerListsWereSwitched = pdTRUE;
 687:..\..\..\..\..\..\FreeRTOS\FreeRTOS\FreeRTOS\Source/timers.c ****         }
 688:..\..\..\..\..\..\FreeRTOS\FreeRTOS\FreeRTOS\Source/timers.c ****         else
 689:..\..\..\..\..\..\FreeRTOS\FreeRTOS\FreeRTOS\Source/timers.c ****         {
 690:..\..\..\..\..\..\FreeRTOS\FreeRTOS\FreeRTOS\Source/timers.c ****             *pxTimerListsWereSwitched = pdFALSE;
 691:..\..\..\..\..\..\FreeRTOS\FreeRTOS\FreeRTOS\Source/timers.c ****         }
 692:..\..\..\..\..\..\FreeRTOS\FreeRTOS\FreeRTOS\Source/timers.c **** 
 693:..\..\..\..\..\..\FreeRTOS\FreeRTOS\FreeRTOS\Source/timers.c ****         xLastTime = xTimeNow;
 694:..\..\..\..\..\..\FreeRTOS\FreeRTOS\FreeRTOS\Source/timers.c **** 
 695:..\..\..\..\..\..\FreeRTOS\FreeRTOS\FreeRTOS\Source/timers.c ****         return xTimeNow;
 696:..\..\..\..\..\..\FreeRTOS\FreeRTOS\FreeRTOS\Source/timers.c ****     }
 697:..\..\..\..\..\..\FreeRTOS\FreeRTOS\FreeRTOS\Source/timers.c **** /*-----------------------------------------------------------*/
 698:..\..\..\..\..\..\FreeRTOS\FreeRTOS\FreeRTOS\Source/timers.c **** 
 699:..\..\..\..\..\..\FreeRTOS\FreeRTOS\FreeRTOS\Source/timers.c ****     static BaseType_t prvInsertTimerInActiveList( Timer_t * const pxTimer,
 700:..\..\..\..\..\..\FreeRTOS\FreeRTOS\FreeRTOS\Source/timers.c ****                                                   const TickType_t xNextExpiryTime,
 701:..\..\..\..\..\..\FreeRTOS\FreeRTOS\FreeRTOS\Source/timers.c ****                                                   const TickType_t xTimeNow,
 702:..\..\..\..\..\..\FreeRTOS\FreeRTOS\FreeRTOS\Source/timers.c ****                                                   const TickType_t xCommandTime )
 703:..\..\..\..\..\..\FreeRTOS\FreeRTOS\FreeRTOS\Source/timers.c ****     {
  73              		.loc 1 703 0
  74              		.cfi_startproc
  75              		@ args = 0, pretend = 0, frame = 0
  76              		@ frame_needed = 0, uses_anonymous_args = 0
  77              	.LVL4:
  78 0000 08B5     		push	{r3, lr}
  79              		.cfi_def_cfa_offset 8
  80              		.cfi_offset 3, -8
  81              		.cfi_offset 14, -4
  82              	.LVL5:
 704:..\..\..\..\..\..\FreeRTOS\FreeRTOS\FreeRTOS\Source/timers.c ****         BaseType_t xProcessTimerNow = pdFALSE;
 705:..\..\..\..\..\..\FreeRTOS\FreeRTOS\FreeRTOS\Source/timers.c **** 
 706:..\..\..\..\..\..\FreeRTOS\FreeRTOS\FreeRTOS\Source/timers.c ****         listSET_LIST_ITEM_VALUE( &( pxTimer->xTimerListItem ), xNextExpiryTime );
  83              		.loc 1 706 0
  84 0002 4160     		str	r1, [r0, #4]
 707:..\..\..\..\..\..\FreeRTOS\FreeRTOS\FreeRTOS\Source/timers.c ****         listSET_LIST_ITEM_OWNER( &( pxTimer->xTimerListItem ), pxTimer );
  85              		.loc 1 707 0
  86 0004 0061     		str	r0, [r0, #16]
 708:..\..\..\..\..\..\FreeRTOS\FreeRTOS\FreeRTOS\Source/timers.c **** 
 709:..\..\..\..\..\..\FreeRTOS\FreeRTOS\FreeRTOS\Source/timers.c ****         if( xNextExpiryTime <= xTimeNow )
  87              		.loc 1 709 0
  88 0006 9142     		cmp	r1, r2
  89 0008 0AD8     		bhi	.L9
ARM GAS  C:\Users\u0036181\AppData\Local\Temp\cch2Rq0R.s 			page 15


 710:..\..\..\..\..\..\FreeRTOS\FreeRTOS\FreeRTOS\Source/timers.c ****         {
 711:..\..\..\..\..\..\FreeRTOS\FreeRTOS\FreeRTOS\Source/timers.c ****             /* Has the expiry time elapsed between the command to start/reset a
 712:..\..\..\..\..\..\FreeRTOS\FreeRTOS\FreeRTOS\Source/timers.c ****              * timer was issued, and the time the command was processed? */
 713:..\..\..\..\..\..\FreeRTOS\FreeRTOS\FreeRTOS\Source/timers.c ****             if( ( ( TickType_t ) ( xTimeNow - xCommandTime ) ) >= pxTimer->xTimerPeriodInTicks ) /*
  90              		.loc 1 713 0
  91 000a D21A     		subs	r2, r2, r3
  92              	.LVL6:
  93 000c 8369     		ldr	r3, [r0, #24]
  94              	.LVL7:
  95 000e 9A42     		cmp	r2, r3
  96 0010 11D2     		bcs	.L12
 714:..\..\..\..\..\..\FreeRTOS\FreeRTOS\FreeRTOS\Source/timers.c ****             {
 715:..\..\..\..\..\..\FreeRTOS\FreeRTOS\FreeRTOS\Source/timers.c ****                 /* The time between a command being issued and the command being
 716:..\..\..\..\..\..\FreeRTOS\FreeRTOS\FreeRTOS\Source/timers.c ****                  * processed actually exceeds the timers period.  */
 717:..\..\..\..\..\..\FreeRTOS\FreeRTOS\FreeRTOS\Source/timers.c ****                 xProcessTimerNow = pdTRUE;
 718:..\..\..\..\..\..\FreeRTOS\FreeRTOS\FreeRTOS\Source/timers.c ****             }
 719:..\..\..\..\..\..\FreeRTOS\FreeRTOS\FreeRTOS\Source/timers.c ****             else
 720:..\..\..\..\..\..\FreeRTOS\FreeRTOS\FreeRTOS\Source/timers.c ****             {
 721:..\..\..\..\..\..\FreeRTOS\FreeRTOS\FreeRTOS\Source/timers.c ****                 vListInsert( pxOverflowTimerList, &( pxTimer->xTimerListItem ) );
  97              		.loc 1 721 0
  98 0012 011D     		adds	r1, r0, #4
  99              	.LVL8:
 100 0014 0A4B     		ldr	r3, .L15
 101 0016 5868     		ldr	r0, [r3, #4]
 102              	.LVL9:
 103 0018 FFF7FEFF 		bl	vListInsert
 104              	.LVL10:
 704:..\..\..\..\..\..\FreeRTOS\FreeRTOS\FreeRTOS\Source/timers.c **** 
 105              		.loc 1 704 0
 106 001c 0020     		movs	r0, #0
 107 001e 08BD     		pop	{r3, pc}
 108              	.LVL11:
 109              	.L9:
 722:..\..\..\..\..\..\FreeRTOS\FreeRTOS\FreeRTOS\Source/timers.c ****             }
 723:..\..\..\..\..\..\FreeRTOS\FreeRTOS\FreeRTOS\Source/timers.c ****         }
 724:..\..\..\..\..\..\FreeRTOS\FreeRTOS\FreeRTOS\Source/timers.c ****         else
 725:..\..\..\..\..\..\FreeRTOS\FreeRTOS\FreeRTOS\Source/timers.c ****         {
 726:..\..\..\..\..\..\FreeRTOS\FreeRTOS\FreeRTOS\Source/timers.c ****             if( ( xTimeNow < xCommandTime ) && ( xNextExpiryTime >= xCommandTime ) )
 110              		.loc 1 726 0
 111 0020 9A42     		cmp	r2, r3
 112 0022 01D2     		bcs	.L11
 113              		.loc 1 726 0 is_stmt 0 discriminator 1
 114 0024 9942     		cmp	r1, r3
 115 0026 08D2     		bcs	.L13
 116              	.L11:
 727:..\..\..\..\..\..\FreeRTOS\FreeRTOS\FreeRTOS\Source/timers.c ****             {
 728:..\..\..\..\..\..\FreeRTOS\FreeRTOS\FreeRTOS\Source/timers.c ****                 /* If, since the command was issued, the tick count has overflowed
 729:..\..\..\..\..\..\FreeRTOS\FreeRTOS\FreeRTOS\Source/timers.c ****                  * but the expiry time has not, then the timer must have already passed
 730:..\..\..\..\..\..\FreeRTOS\FreeRTOS\FreeRTOS\Source/timers.c ****                  * its expiry time and should be processed immediately. */
 731:..\..\..\..\..\..\FreeRTOS\FreeRTOS\FreeRTOS\Source/timers.c ****                 xProcessTimerNow = pdTRUE;
 732:..\..\..\..\..\..\FreeRTOS\FreeRTOS\FreeRTOS\Source/timers.c ****             }
 733:..\..\..\..\..\..\FreeRTOS\FreeRTOS\FreeRTOS\Source/timers.c ****             else
 734:..\..\..\..\..\..\FreeRTOS\FreeRTOS\FreeRTOS\Source/timers.c ****             {
 735:..\..\..\..\..\..\FreeRTOS\FreeRTOS\FreeRTOS\Source/timers.c ****                 vListInsert( pxCurrentTimerList, &( pxTimer->xTimerListItem ) );
 117              		.loc 1 735 0 is_stmt 1
 118 0028 011D     		adds	r1, r0, #4
 119              	.LVL12:
ARM GAS  C:\Users\u0036181\AppData\Local\Temp\cch2Rq0R.s 			page 16


 120 002a 054B     		ldr	r3, .L15
 121              	.LVL13:
 122 002c 1868     		ldr	r0, [r3]
 123              	.LVL14:
 124 002e FFF7FEFF 		bl	vListInsert
 125              	.LVL15:
 704:..\..\..\..\..\..\FreeRTOS\FreeRTOS\FreeRTOS\Source/timers.c **** 
 126              		.loc 1 704 0
 127 0032 0020     		movs	r0, #0
 128 0034 08BD     		pop	{r3, pc}
 129              	.LVL16:
 130              	.L12:
 717:..\..\..\..\..\..\FreeRTOS\FreeRTOS\FreeRTOS\Source/timers.c ****             }
 131              		.loc 1 717 0
 132 0036 0120     		movs	r0, #1
 133              	.LVL17:
 134 0038 08BD     		pop	{r3, pc}
 135              	.LVL18:
 136              	.L13:
 731:..\..\..\..\..\..\FreeRTOS\FreeRTOS\FreeRTOS\Source/timers.c ****             }
 137              		.loc 1 731 0
 138 003a 0120     		movs	r0, #1
 139              	.LVL19:
 736:..\..\..\..\..\..\FreeRTOS\FreeRTOS\FreeRTOS\Source/timers.c ****             }
 737:..\..\..\..\..\..\FreeRTOS\FreeRTOS\FreeRTOS\Source/timers.c ****         }
 738:..\..\..\..\..\..\FreeRTOS\FreeRTOS\FreeRTOS\Source/timers.c **** 
 739:..\..\..\..\..\..\FreeRTOS\FreeRTOS\FreeRTOS\Source/timers.c ****         return xProcessTimerNow;
 740:..\..\..\..\..\..\FreeRTOS\FreeRTOS\FreeRTOS\Source/timers.c ****     }
 140              		.loc 1 740 0
 141 003c 08BD     		pop	{r3, pc}
 142              	.LVL20:
 143              	.L16:
 144 003e 00BF     		.align	2
 145              	.L15:
 146 0040 00000000 		.word	.LANCHOR0
 147              		.cfi_endproc
 148              	.LFE19:
 149              		.size	prvInsertTimerInActiveList, .-prvInsertTimerInActiveList
 150              		.section	.text.prvCheckForValidListAndQueue,"ax",%progbits
 151              		.align	2
 152              		.thumb
 153              		.thumb_func
 154              		.type	prvCheckForValidListAndQueue, %function
 155              	prvCheckForValidListAndQueue:
 156              	.LFB22:
 741:..\..\..\..\..\..\FreeRTOS\FreeRTOS\FreeRTOS\Source/timers.c **** /*-----------------------------------------------------------*/
 742:..\..\..\..\..\..\FreeRTOS\FreeRTOS\FreeRTOS\Source/timers.c **** 
 743:..\..\..\..\..\..\FreeRTOS\FreeRTOS\FreeRTOS\Source/timers.c ****     static void prvProcessReceivedCommands( void )
 744:..\..\..\..\..\..\FreeRTOS\FreeRTOS\FreeRTOS\Source/timers.c ****     {
 745:..\..\..\..\..\..\FreeRTOS\FreeRTOS\FreeRTOS\Source/timers.c ****         DaemonTaskMessage_t xMessage;
 746:..\..\..\..\..\..\FreeRTOS\FreeRTOS\FreeRTOS\Source/timers.c ****         Timer_t * pxTimer;
 747:..\..\..\..\..\..\FreeRTOS\FreeRTOS\FreeRTOS\Source/timers.c ****         BaseType_t xTimerListsWereSwitched, xResult;
 748:..\..\..\..\..\..\FreeRTOS\FreeRTOS\FreeRTOS\Source/timers.c ****         TickType_t xTimeNow;
 749:..\..\..\..\..\..\FreeRTOS\FreeRTOS\FreeRTOS\Source/timers.c **** 
 750:..\..\..\..\..\..\FreeRTOS\FreeRTOS\FreeRTOS\Source/timers.c ****         while( xQueueReceive( xTimerQueue, &xMessage, tmrNO_DELAY ) != pdFAIL ) /*lint !e603 xMessa
 751:..\..\..\..\..\..\FreeRTOS\FreeRTOS\FreeRTOS\Source/timers.c ****         {
 752:..\..\..\..\..\..\FreeRTOS\FreeRTOS\FreeRTOS\Source/timers.c ****             #if ( INCLUDE_xTimerPendFunctionCall == 1 )
ARM GAS  C:\Users\u0036181\AppData\Local\Temp\cch2Rq0R.s 			page 17


 753:..\..\..\..\..\..\FreeRTOS\FreeRTOS\FreeRTOS\Source/timers.c ****                 {
 754:..\..\..\..\..\..\FreeRTOS\FreeRTOS\FreeRTOS\Source/timers.c ****                     /* Negative commands are pended function calls rather than timer
 755:..\..\..\..\..\..\FreeRTOS\FreeRTOS\FreeRTOS\Source/timers.c ****                      * commands. */
 756:..\..\..\..\..\..\FreeRTOS\FreeRTOS\FreeRTOS\Source/timers.c ****                     if( xMessage.xMessageID < ( BaseType_t ) 0 )
 757:..\..\..\..\..\..\FreeRTOS\FreeRTOS\FreeRTOS\Source/timers.c ****                     {
 758:..\..\..\..\..\..\FreeRTOS\FreeRTOS\FreeRTOS\Source/timers.c ****                         const CallbackParameters_t * const pxCallback = &( xMessage.u.xCallbackPara
 759:..\..\..\..\..\..\FreeRTOS\FreeRTOS\FreeRTOS\Source/timers.c **** 
 760:..\..\..\..\..\..\FreeRTOS\FreeRTOS\FreeRTOS\Source/timers.c ****                         /* The timer uses the xCallbackParameters member to request a
 761:..\..\..\..\..\..\FreeRTOS\FreeRTOS\FreeRTOS\Source/timers.c ****                          * callback be executed.  Check the callback is not NULL. */
 762:..\..\..\..\..\..\FreeRTOS\FreeRTOS\FreeRTOS\Source/timers.c ****                         configASSERT( pxCallback );
 763:..\..\..\..\..\..\FreeRTOS\FreeRTOS\FreeRTOS\Source/timers.c **** 
 764:..\..\..\..\..\..\FreeRTOS\FreeRTOS\FreeRTOS\Source/timers.c ****                         /* Call the function. */
 765:..\..\..\..\..\..\FreeRTOS\FreeRTOS\FreeRTOS\Source/timers.c ****                         pxCallback->pxCallbackFunction( pxCallback->pvParameter1, pxCallback->ulPar
 766:..\..\..\..\..\..\FreeRTOS\FreeRTOS\FreeRTOS\Source/timers.c ****                     }
 767:..\..\..\..\..\..\FreeRTOS\FreeRTOS\FreeRTOS\Source/timers.c ****                     else
 768:..\..\..\..\..\..\FreeRTOS\FreeRTOS\FreeRTOS\Source/timers.c ****                     {
 769:..\..\..\..\..\..\FreeRTOS\FreeRTOS\FreeRTOS\Source/timers.c ****                         mtCOVERAGE_TEST_MARKER();
 770:..\..\..\..\..\..\FreeRTOS\FreeRTOS\FreeRTOS\Source/timers.c ****                     }
 771:..\..\..\..\..\..\FreeRTOS\FreeRTOS\FreeRTOS\Source/timers.c ****                 }
 772:..\..\..\..\..\..\FreeRTOS\FreeRTOS\FreeRTOS\Source/timers.c ****             #endif /* INCLUDE_xTimerPendFunctionCall */
 773:..\..\..\..\..\..\FreeRTOS\FreeRTOS\FreeRTOS\Source/timers.c **** 
 774:..\..\..\..\..\..\FreeRTOS\FreeRTOS\FreeRTOS\Source/timers.c ****             /* Commands that are positive are timer commands rather than pended
 775:..\..\..\..\..\..\FreeRTOS\FreeRTOS\FreeRTOS\Source/timers.c ****              * function calls. */
 776:..\..\..\..\..\..\FreeRTOS\FreeRTOS\FreeRTOS\Source/timers.c ****             if( xMessage.xMessageID >= ( BaseType_t ) 0 )
 777:..\..\..\..\..\..\FreeRTOS\FreeRTOS\FreeRTOS\Source/timers.c ****             {
 778:..\..\..\..\..\..\FreeRTOS\FreeRTOS\FreeRTOS\Source/timers.c ****                 /* The messages uses the xTimerParameters member to work on a
 779:..\..\..\..\..\..\FreeRTOS\FreeRTOS\FreeRTOS\Source/timers.c ****                  * software timer. */
 780:..\..\..\..\..\..\FreeRTOS\FreeRTOS\FreeRTOS\Source/timers.c ****                 pxTimer = xMessage.u.xTimerParameters.pxTimer;
 781:..\..\..\..\..\..\FreeRTOS\FreeRTOS\FreeRTOS\Source/timers.c **** 
 782:..\..\..\..\..\..\FreeRTOS\FreeRTOS\FreeRTOS\Source/timers.c ****                 if( listIS_CONTAINED_WITHIN( NULL, &( pxTimer->xTimerListItem ) ) == pdFALSE ) /*li
 783:..\..\..\..\..\..\FreeRTOS\FreeRTOS\FreeRTOS\Source/timers.c ****                 {
 784:..\..\..\..\..\..\FreeRTOS\FreeRTOS\FreeRTOS\Source/timers.c ****                     /* The timer is in a list, remove it. */
 785:..\..\..\..\..\..\FreeRTOS\FreeRTOS\FreeRTOS\Source/timers.c ****                     ( void ) uxListRemove( &( pxTimer->xTimerListItem ) );
 786:..\..\..\..\..\..\FreeRTOS\FreeRTOS\FreeRTOS\Source/timers.c ****                 }
 787:..\..\..\..\..\..\FreeRTOS\FreeRTOS\FreeRTOS\Source/timers.c ****                 else
 788:..\..\..\..\..\..\FreeRTOS\FreeRTOS\FreeRTOS\Source/timers.c ****                 {
 789:..\..\..\..\..\..\FreeRTOS\FreeRTOS\FreeRTOS\Source/timers.c ****                     mtCOVERAGE_TEST_MARKER();
 790:..\..\..\..\..\..\FreeRTOS\FreeRTOS\FreeRTOS\Source/timers.c ****                 }
 791:..\..\..\..\..\..\FreeRTOS\FreeRTOS\FreeRTOS\Source/timers.c **** 
 792:..\..\..\..\..\..\FreeRTOS\FreeRTOS\FreeRTOS\Source/timers.c ****                 traceTIMER_COMMAND_RECEIVED( pxTimer, xMessage.xMessageID, xMessage.u.xTimerParamet
 793:..\..\..\..\..\..\FreeRTOS\FreeRTOS\FreeRTOS\Source/timers.c **** 
 794:..\..\..\..\..\..\FreeRTOS\FreeRTOS\FreeRTOS\Source/timers.c ****                 /* In this case the xTimerListsWereSwitched parameter is not used, but
 795:..\..\..\..\..\..\FreeRTOS\FreeRTOS\FreeRTOS\Source/timers.c ****                  *  it must be present in the function call.  prvSampleTimeNow() must be
 796:..\..\..\..\..\..\FreeRTOS\FreeRTOS\FreeRTOS\Source/timers.c ****                  *  called after the message is received from xTimerQueue so there is no
 797:..\..\..\..\..\..\FreeRTOS\FreeRTOS\FreeRTOS\Source/timers.c ****                  *  possibility of a higher priority task adding a message to the message
 798:..\..\..\..\..\..\FreeRTOS\FreeRTOS\FreeRTOS\Source/timers.c ****                  *  queue with a time that is ahead of the timer daemon task (because it
 799:..\..\..\..\..\..\FreeRTOS\FreeRTOS\FreeRTOS\Source/timers.c ****                  *  pre-empted the timer daemon task after the xTimeNow value was set). */
 800:..\..\..\..\..\..\FreeRTOS\FreeRTOS\FreeRTOS\Source/timers.c ****                 xTimeNow = prvSampleTimeNow( &xTimerListsWereSwitched );
 801:..\..\..\..\..\..\FreeRTOS\FreeRTOS\FreeRTOS\Source/timers.c **** 
 802:..\..\..\..\..\..\FreeRTOS\FreeRTOS\FreeRTOS\Source/timers.c ****                 switch( xMessage.xMessageID )
 803:..\..\..\..\..\..\FreeRTOS\FreeRTOS\FreeRTOS\Source/timers.c ****                 {
 804:..\..\..\..\..\..\FreeRTOS\FreeRTOS\FreeRTOS\Source/timers.c ****                     case tmrCOMMAND_START:
 805:..\..\..\..\..\..\FreeRTOS\FreeRTOS\FreeRTOS\Source/timers.c ****                     case tmrCOMMAND_START_FROM_ISR:
 806:..\..\..\..\..\..\FreeRTOS\FreeRTOS\FreeRTOS\Source/timers.c ****                     case tmrCOMMAND_RESET:
 807:..\..\..\..\..\..\FreeRTOS\FreeRTOS\FreeRTOS\Source/timers.c ****                     case tmrCOMMAND_RESET_FROM_ISR:
 808:..\..\..\..\..\..\FreeRTOS\FreeRTOS\FreeRTOS\Source/timers.c ****                     case tmrCOMMAND_START_DONT_TRACE:
 809:..\..\..\..\..\..\FreeRTOS\FreeRTOS\FreeRTOS\Source/timers.c ****                         /* Start or restart a timer. */
ARM GAS  C:\Users\u0036181\AppData\Local\Temp\cch2Rq0R.s 			page 18


 810:..\..\..\..\..\..\FreeRTOS\FreeRTOS\FreeRTOS\Source/timers.c ****                         pxTimer->ucStatus |= tmrSTATUS_IS_ACTIVE;
 811:..\..\..\..\..\..\FreeRTOS\FreeRTOS\FreeRTOS\Source/timers.c **** 
 812:..\..\..\..\..\..\FreeRTOS\FreeRTOS\FreeRTOS\Source/timers.c ****                         if( prvInsertTimerInActiveList( pxTimer, xMessage.u.xTimerParameters.xMessa
 813:..\..\..\..\..\..\FreeRTOS\FreeRTOS\FreeRTOS\Source/timers.c ****                         {
 814:..\..\..\..\..\..\FreeRTOS\FreeRTOS\FreeRTOS\Source/timers.c ****                             /* The timer expired before it was added to the active
 815:..\..\..\..\..\..\FreeRTOS\FreeRTOS\FreeRTOS\Source/timers.c ****                              * timer list.  Process it now. */
 816:..\..\..\..\..\..\FreeRTOS\FreeRTOS\FreeRTOS\Source/timers.c ****                             pxTimer->pxCallbackFunction( ( TimerHandle_t ) pxTimer );
 817:..\..\..\..\..\..\FreeRTOS\FreeRTOS\FreeRTOS\Source/timers.c ****                             traceTIMER_EXPIRED( pxTimer );
 818:..\..\..\..\..\..\FreeRTOS\FreeRTOS\FreeRTOS\Source/timers.c **** 
 819:..\..\..\..\..\..\FreeRTOS\FreeRTOS\FreeRTOS\Source/timers.c ****                             if( ( pxTimer->ucStatus & tmrSTATUS_IS_AUTORELOAD ) != 0 )
 820:..\..\..\..\..\..\FreeRTOS\FreeRTOS\FreeRTOS\Source/timers.c ****                             {
 821:..\..\..\..\..\..\FreeRTOS\FreeRTOS\FreeRTOS\Source/timers.c ****                                 xResult = xTimerGenericCommand( pxTimer, tmrCOMMAND_START_DONT_TRAC
 822:..\..\..\..\..\..\FreeRTOS\FreeRTOS\FreeRTOS\Source/timers.c ****                                 configASSERT( xResult );
 823:..\..\..\..\..\..\FreeRTOS\FreeRTOS\FreeRTOS\Source/timers.c ****                                 ( void ) xResult;
 824:..\..\..\..\..\..\FreeRTOS\FreeRTOS\FreeRTOS\Source/timers.c ****                             }
 825:..\..\..\..\..\..\FreeRTOS\FreeRTOS\FreeRTOS\Source/timers.c ****                             else
 826:..\..\..\..\..\..\FreeRTOS\FreeRTOS\FreeRTOS\Source/timers.c ****                             {
 827:..\..\..\..\..\..\FreeRTOS\FreeRTOS\FreeRTOS\Source/timers.c ****                                 mtCOVERAGE_TEST_MARKER();
 828:..\..\..\..\..\..\FreeRTOS\FreeRTOS\FreeRTOS\Source/timers.c ****                             }
 829:..\..\..\..\..\..\FreeRTOS\FreeRTOS\FreeRTOS\Source/timers.c ****                         }
 830:..\..\..\..\..\..\FreeRTOS\FreeRTOS\FreeRTOS\Source/timers.c ****                         else
 831:..\..\..\..\..\..\FreeRTOS\FreeRTOS\FreeRTOS\Source/timers.c ****                         {
 832:..\..\..\..\..\..\FreeRTOS\FreeRTOS\FreeRTOS\Source/timers.c ****                             mtCOVERAGE_TEST_MARKER();
 833:..\..\..\..\..\..\FreeRTOS\FreeRTOS\FreeRTOS\Source/timers.c ****                         }
 834:..\..\..\..\..\..\FreeRTOS\FreeRTOS\FreeRTOS\Source/timers.c **** 
 835:..\..\..\..\..\..\FreeRTOS\FreeRTOS\FreeRTOS\Source/timers.c ****                         break;
 836:..\..\..\..\..\..\FreeRTOS\FreeRTOS\FreeRTOS\Source/timers.c **** 
 837:..\..\..\..\..\..\FreeRTOS\FreeRTOS\FreeRTOS\Source/timers.c ****                     case tmrCOMMAND_STOP:
 838:..\..\..\..\..\..\FreeRTOS\FreeRTOS\FreeRTOS\Source/timers.c ****                     case tmrCOMMAND_STOP_FROM_ISR:
 839:..\..\..\..\..\..\FreeRTOS\FreeRTOS\FreeRTOS\Source/timers.c ****                         /* The timer has already been removed from the active list. */
 840:..\..\..\..\..\..\FreeRTOS\FreeRTOS\FreeRTOS\Source/timers.c ****                         pxTimer->ucStatus &= ~tmrSTATUS_IS_ACTIVE;
 841:..\..\..\..\..\..\FreeRTOS\FreeRTOS\FreeRTOS\Source/timers.c ****                         break;
 842:..\..\..\..\..\..\FreeRTOS\FreeRTOS\FreeRTOS\Source/timers.c **** 
 843:..\..\..\..\..\..\FreeRTOS\FreeRTOS\FreeRTOS\Source/timers.c ****                     case tmrCOMMAND_CHANGE_PERIOD:
 844:..\..\..\..\..\..\FreeRTOS\FreeRTOS\FreeRTOS\Source/timers.c ****                     case tmrCOMMAND_CHANGE_PERIOD_FROM_ISR:
 845:..\..\..\..\..\..\FreeRTOS\FreeRTOS\FreeRTOS\Source/timers.c ****                         pxTimer->ucStatus |= tmrSTATUS_IS_ACTIVE;
 846:..\..\..\..\..\..\FreeRTOS\FreeRTOS\FreeRTOS\Source/timers.c ****                         pxTimer->xTimerPeriodInTicks = xMessage.u.xTimerParameters.xMessageValue;
 847:..\..\..\..\..\..\FreeRTOS\FreeRTOS\FreeRTOS\Source/timers.c ****                         configASSERT( ( pxTimer->xTimerPeriodInTicks > 0 ) );
 848:..\..\..\..\..\..\FreeRTOS\FreeRTOS\FreeRTOS\Source/timers.c **** 
 849:..\..\..\..\..\..\FreeRTOS\FreeRTOS\FreeRTOS\Source/timers.c ****                         /* The new period does not really have a reference, and can
 850:..\..\..\..\..\..\FreeRTOS\FreeRTOS\FreeRTOS\Source/timers.c ****                          * be longer or shorter than the old one.  The command time is
 851:..\..\..\..\..\..\FreeRTOS\FreeRTOS\FreeRTOS\Source/timers.c ****                          * therefore set to the current time, and as the period cannot
 852:..\..\..\..\..\..\FreeRTOS\FreeRTOS\FreeRTOS\Source/timers.c ****                          * be zero the next expiry time can only be in the future,
 853:..\..\..\..\..\..\FreeRTOS\FreeRTOS\FreeRTOS\Source/timers.c ****                          * meaning (unlike for the xTimerStart() case above) there is
 854:..\..\..\..\..\..\FreeRTOS\FreeRTOS\FreeRTOS\Source/timers.c ****                          * no fail case that needs to be handled here. */
 855:..\..\..\..\..\..\FreeRTOS\FreeRTOS\FreeRTOS\Source/timers.c ****                         ( void ) prvInsertTimerInActiveList( pxTimer, ( xTimeNow + pxTimer->xTimerP
 856:..\..\..\..\..\..\FreeRTOS\FreeRTOS\FreeRTOS\Source/timers.c ****                         break;
 857:..\..\..\..\..\..\FreeRTOS\FreeRTOS\FreeRTOS\Source/timers.c **** 
 858:..\..\..\..\..\..\FreeRTOS\FreeRTOS\FreeRTOS\Source/timers.c ****                     case tmrCOMMAND_DELETE:
 859:..\..\..\..\..\..\FreeRTOS\FreeRTOS\FreeRTOS\Source/timers.c ****                         #if ( configSUPPORT_DYNAMIC_ALLOCATION == 1 )
 860:..\..\..\..\..\..\FreeRTOS\FreeRTOS\FreeRTOS\Source/timers.c ****                             {
 861:..\..\..\..\..\..\FreeRTOS\FreeRTOS\FreeRTOS\Source/timers.c ****                                 /* The timer has already been removed from the active list,
 862:..\..\..\..\..\..\FreeRTOS\FreeRTOS\FreeRTOS\Source/timers.c ****                                  * just free up the memory if the memory was dynamically
 863:..\..\..\..\..\..\FreeRTOS\FreeRTOS\FreeRTOS\Source/timers.c ****                                  * allocated. */
 864:..\..\..\..\..\..\FreeRTOS\FreeRTOS\FreeRTOS\Source/timers.c ****                                 if( ( pxTimer->ucStatus & tmrSTATUS_IS_STATICALLY_ALLOCATED ) == ( 
 865:..\..\..\..\..\..\FreeRTOS\FreeRTOS\FreeRTOS\Source/timers.c ****                                 {
 866:..\..\..\..\..\..\FreeRTOS\FreeRTOS\FreeRTOS\Source/timers.c ****                                     vPortFree( pxTimer );
ARM GAS  C:\Users\u0036181\AppData\Local\Temp\cch2Rq0R.s 			page 19


 867:..\..\..\..\..\..\FreeRTOS\FreeRTOS\FreeRTOS\Source/timers.c ****                                 }
 868:..\..\..\..\..\..\FreeRTOS\FreeRTOS\FreeRTOS\Source/timers.c ****                                 else
 869:..\..\..\..\..\..\FreeRTOS\FreeRTOS\FreeRTOS\Source/timers.c ****                                 {
 870:..\..\..\..\..\..\FreeRTOS\FreeRTOS\FreeRTOS\Source/timers.c ****                                     pxTimer->ucStatus &= ~tmrSTATUS_IS_ACTIVE;
 871:..\..\..\..\..\..\FreeRTOS\FreeRTOS\FreeRTOS\Source/timers.c ****                                 }
 872:..\..\..\..\..\..\FreeRTOS\FreeRTOS\FreeRTOS\Source/timers.c ****                             }
 873:..\..\..\..\..\..\FreeRTOS\FreeRTOS\FreeRTOS\Source/timers.c ****                         #else /* if ( configSUPPORT_DYNAMIC_ALLOCATION == 1 ) */
 874:..\..\..\..\..\..\FreeRTOS\FreeRTOS\FreeRTOS\Source/timers.c ****                             {
 875:..\..\..\..\..\..\FreeRTOS\FreeRTOS\FreeRTOS\Source/timers.c ****                                 /* If dynamic allocation is not enabled, the memory
 876:..\..\..\..\..\..\FreeRTOS\FreeRTOS\FreeRTOS\Source/timers.c ****                                  * could not have been dynamically allocated. So there is
 877:..\..\..\..\..\..\FreeRTOS\FreeRTOS\FreeRTOS\Source/timers.c ****                                  * no need to free the memory - just mark the timer as
 878:..\..\..\..\..\..\FreeRTOS\FreeRTOS\FreeRTOS\Source/timers.c ****                                  * "not active". */
 879:..\..\..\..\..\..\FreeRTOS\FreeRTOS\FreeRTOS\Source/timers.c ****                                 pxTimer->ucStatus &= ~tmrSTATUS_IS_ACTIVE;
 880:..\..\..\..\..\..\FreeRTOS\FreeRTOS\FreeRTOS\Source/timers.c ****                             }
 881:..\..\..\..\..\..\FreeRTOS\FreeRTOS\FreeRTOS\Source/timers.c ****                         #endif /* configSUPPORT_DYNAMIC_ALLOCATION */
 882:..\..\..\..\..\..\FreeRTOS\FreeRTOS\FreeRTOS\Source/timers.c ****                         break;
 883:..\..\..\..\..\..\FreeRTOS\FreeRTOS\FreeRTOS\Source/timers.c **** 
 884:..\..\..\..\..\..\FreeRTOS\FreeRTOS\FreeRTOS\Source/timers.c ****                     default:
 885:..\..\..\..\..\..\FreeRTOS\FreeRTOS\FreeRTOS\Source/timers.c ****                         /* Don't expect to get here. */
 886:..\..\..\..\..\..\FreeRTOS\FreeRTOS\FreeRTOS\Source/timers.c ****                         break;
 887:..\..\..\..\..\..\FreeRTOS\FreeRTOS\FreeRTOS\Source/timers.c ****                 }
 888:..\..\..\..\..\..\FreeRTOS\FreeRTOS\FreeRTOS\Source/timers.c ****             }
 889:..\..\..\..\..\..\FreeRTOS\FreeRTOS\FreeRTOS\Source/timers.c ****         }
 890:..\..\..\..\..\..\FreeRTOS\FreeRTOS\FreeRTOS\Source/timers.c ****     }
 891:..\..\..\..\..\..\FreeRTOS\FreeRTOS\FreeRTOS\Source/timers.c **** /*-----------------------------------------------------------*/
 892:..\..\..\..\..\..\FreeRTOS\FreeRTOS\FreeRTOS\Source/timers.c **** 
 893:..\..\..\..\..\..\FreeRTOS\FreeRTOS\FreeRTOS\Source/timers.c ****     static void prvSwitchTimerLists( void )
 894:..\..\..\..\..\..\FreeRTOS\FreeRTOS\FreeRTOS\Source/timers.c ****     {
 895:..\..\..\..\..\..\FreeRTOS\FreeRTOS\FreeRTOS\Source/timers.c ****         TickType_t xNextExpireTime, xReloadTime;
 896:..\..\..\..\..\..\FreeRTOS\FreeRTOS\FreeRTOS\Source/timers.c ****         List_t * pxTemp;
 897:..\..\..\..\..\..\FreeRTOS\FreeRTOS\FreeRTOS\Source/timers.c ****         Timer_t * pxTimer;
 898:..\..\..\..\..\..\FreeRTOS\FreeRTOS\FreeRTOS\Source/timers.c ****         BaseType_t xResult;
 899:..\..\..\..\..\..\FreeRTOS\FreeRTOS\FreeRTOS\Source/timers.c **** 
 900:..\..\..\..\..\..\FreeRTOS\FreeRTOS\FreeRTOS\Source/timers.c ****         /* The tick count has overflowed.  The timer lists must be switched.
 901:..\..\..\..\..\..\FreeRTOS\FreeRTOS\FreeRTOS\Source/timers.c ****          * If there are any timers still referenced from the current timer list
 902:..\..\..\..\..\..\FreeRTOS\FreeRTOS\FreeRTOS\Source/timers.c ****          * then they must have expired and should be processed before the lists
 903:..\..\..\..\..\..\FreeRTOS\FreeRTOS\FreeRTOS\Source/timers.c ****          * are switched. */
 904:..\..\..\..\..\..\FreeRTOS\FreeRTOS\FreeRTOS\Source/timers.c ****         while( listLIST_IS_EMPTY( pxCurrentTimerList ) == pdFALSE )
 905:..\..\..\..\..\..\FreeRTOS\FreeRTOS\FreeRTOS\Source/timers.c ****         {
 906:..\..\..\..\..\..\FreeRTOS\FreeRTOS\FreeRTOS\Source/timers.c ****             xNextExpireTime = listGET_ITEM_VALUE_OF_HEAD_ENTRY( pxCurrentTimerList );
 907:..\..\..\..\..\..\FreeRTOS\FreeRTOS\FreeRTOS\Source/timers.c **** 
 908:..\..\..\..\..\..\FreeRTOS\FreeRTOS\FreeRTOS\Source/timers.c ****             /* Remove the timer from the list. */
 909:..\..\..\..\..\..\FreeRTOS\FreeRTOS\FreeRTOS\Source/timers.c ****             pxTimer = ( Timer_t * ) listGET_OWNER_OF_HEAD_ENTRY( pxCurrentTimerList ); /*lint !e908
 910:..\..\..\..\..\..\FreeRTOS\FreeRTOS\FreeRTOS\Source/timers.c ****             ( void ) uxListRemove( &( pxTimer->xTimerListItem ) );
 911:..\..\..\..\..\..\FreeRTOS\FreeRTOS\FreeRTOS\Source/timers.c ****             traceTIMER_EXPIRED( pxTimer );
 912:..\..\..\..\..\..\FreeRTOS\FreeRTOS\FreeRTOS\Source/timers.c **** 
 913:..\..\..\..\..\..\FreeRTOS\FreeRTOS\FreeRTOS\Source/timers.c ****             /* Execute its callback, then send a command to restart the timer if
 914:..\..\..\..\..\..\FreeRTOS\FreeRTOS\FreeRTOS\Source/timers.c ****              * it is an auto-reload timer.  It cannot be restarted here as the lists
 915:..\..\..\..\..\..\FreeRTOS\FreeRTOS\FreeRTOS\Source/timers.c ****              * have not yet been switched. */
 916:..\..\..\..\..\..\FreeRTOS\FreeRTOS\FreeRTOS\Source/timers.c ****             pxTimer->pxCallbackFunction( ( TimerHandle_t ) pxTimer );
 917:..\..\..\..\..\..\FreeRTOS\FreeRTOS\FreeRTOS\Source/timers.c **** 
 918:..\..\..\..\..\..\FreeRTOS\FreeRTOS\FreeRTOS\Source/timers.c ****             if( ( pxTimer->ucStatus & tmrSTATUS_IS_AUTORELOAD ) != 0 )
 919:..\..\..\..\..\..\FreeRTOS\FreeRTOS\FreeRTOS\Source/timers.c ****             {
 920:..\..\..\..\..\..\FreeRTOS\FreeRTOS\FreeRTOS\Source/timers.c ****                 /* Calculate the reload value, and if the reload value results in
 921:..\..\..\..\..\..\FreeRTOS\FreeRTOS\FreeRTOS\Source/timers.c ****                  * the timer going into the same timer list then it has already expired
 922:..\..\..\..\..\..\FreeRTOS\FreeRTOS\FreeRTOS\Source/timers.c ****                  * and the timer should be re-inserted into the current list so it is
 923:..\..\..\..\..\..\FreeRTOS\FreeRTOS\FreeRTOS\Source/timers.c ****                  * processed again within this loop.  Otherwise a command should be sent
ARM GAS  C:\Users\u0036181\AppData\Local\Temp\cch2Rq0R.s 			page 20


 924:..\..\..\..\..\..\FreeRTOS\FreeRTOS\FreeRTOS\Source/timers.c ****                  * to restart the timer to ensure it is only inserted into a list after
 925:..\..\..\..\..\..\FreeRTOS\FreeRTOS\FreeRTOS\Source/timers.c ****                  * the lists have been swapped. */
 926:..\..\..\..\..\..\FreeRTOS\FreeRTOS\FreeRTOS\Source/timers.c ****                 xReloadTime = ( xNextExpireTime + pxTimer->xTimerPeriodInTicks );
 927:..\..\..\..\..\..\FreeRTOS\FreeRTOS\FreeRTOS\Source/timers.c **** 
 928:..\..\..\..\..\..\FreeRTOS\FreeRTOS\FreeRTOS\Source/timers.c ****                 if( xReloadTime > xNextExpireTime )
 929:..\..\..\..\..\..\FreeRTOS\FreeRTOS\FreeRTOS\Source/timers.c ****                 {
 930:..\..\..\..\..\..\FreeRTOS\FreeRTOS\FreeRTOS\Source/timers.c ****                     listSET_LIST_ITEM_VALUE( &( pxTimer->xTimerListItem ), xReloadTime );
 931:..\..\..\..\..\..\FreeRTOS\FreeRTOS\FreeRTOS\Source/timers.c ****                     listSET_LIST_ITEM_OWNER( &( pxTimer->xTimerListItem ), pxTimer );
 932:..\..\..\..\..\..\FreeRTOS\FreeRTOS\FreeRTOS\Source/timers.c ****                     vListInsert( pxCurrentTimerList, &( pxTimer->xTimerListItem ) );
 933:..\..\..\..\..\..\FreeRTOS\FreeRTOS\FreeRTOS\Source/timers.c ****                 }
 934:..\..\..\..\..\..\FreeRTOS\FreeRTOS\FreeRTOS\Source/timers.c ****                 else
 935:..\..\..\..\..\..\FreeRTOS\FreeRTOS\FreeRTOS\Source/timers.c ****                 {
 936:..\..\..\..\..\..\FreeRTOS\FreeRTOS\FreeRTOS\Source/timers.c ****                     xResult = xTimerGenericCommand( pxTimer, tmrCOMMAND_START_DONT_TRACE, xNextExpi
 937:..\..\..\..\..\..\FreeRTOS\FreeRTOS\FreeRTOS\Source/timers.c ****                     configASSERT( xResult );
 938:..\..\..\..\..\..\FreeRTOS\FreeRTOS\FreeRTOS\Source/timers.c ****                     ( void ) xResult;
 939:..\..\..\..\..\..\FreeRTOS\FreeRTOS\FreeRTOS\Source/timers.c ****                 }
 940:..\..\..\..\..\..\FreeRTOS\FreeRTOS\FreeRTOS\Source/timers.c ****             }
 941:..\..\..\..\..\..\FreeRTOS\FreeRTOS\FreeRTOS\Source/timers.c ****             else
 942:..\..\..\..\..\..\FreeRTOS\FreeRTOS\FreeRTOS\Source/timers.c ****             {
 943:..\..\..\..\..\..\FreeRTOS\FreeRTOS\FreeRTOS\Source/timers.c ****                 mtCOVERAGE_TEST_MARKER();
 944:..\..\..\..\..\..\FreeRTOS\FreeRTOS\FreeRTOS\Source/timers.c ****             }
 945:..\..\..\..\..\..\FreeRTOS\FreeRTOS\FreeRTOS\Source/timers.c ****         }
 946:..\..\..\..\..\..\FreeRTOS\FreeRTOS\FreeRTOS\Source/timers.c **** 
 947:..\..\..\..\..\..\FreeRTOS\FreeRTOS\FreeRTOS\Source/timers.c ****         pxTemp = pxCurrentTimerList;
 948:..\..\..\..\..\..\FreeRTOS\FreeRTOS\FreeRTOS\Source/timers.c ****         pxCurrentTimerList = pxOverflowTimerList;
 949:..\..\..\..\..\..\FreeRTOS\FreeRTOS\FreeRTOS\Source/timers.c ****         pxOverflowTimerList = pxTemp;
 950:..\..\..\..\..\..\FreeRTOS\FreeRTOS\FreeRTOS\Source/timers.c ****     }
 951:..\..\..\..\..\..\FreeRTOS\FreeRTOS\FreeRTOS\Source/timers.c **** /*-----------------------------------------------------------*/
 952:..\..\..\..\..\..\FreeRTOS\FreeRTOS\FreeRTOS\Source/timers.c **** 
 953:..\..\..\..\..\..\FreeRTOS\FreeRTOS\FreeRTOS\Source/timers.c ****     static void prvCheckForValidListAndQueue( void )
 954:..\..\..\..\..\..\FreeRTOS\FreeRTOS\FreeRTOS\Source/timers.c ****     {
 157              		.loc 1 954 0
 158              		.cfi_startproc
 159              		@ args = 0, pretend = 0, frame = 0
 160              		@ frame_needed = 0, uses_anonymous_args = 0
 161 0000 70B5     		push	{r4, r5, r6, lr}
 162              		.cfi_def_cfa_offset 16
 163              		.cfi_offset 4, -16
 164              		.cfi_offset 5, -12
 165              		.cfi_offset 6, -8
 166              		.cfi_offset 14, -4
 955:..\..\..\..\..\..\FreeRTOS\FreeRTOS\FreeRTOS\Source/timers.c ****         /* Check that the list from which active timers are referenced, and the
 956:..\..\..\..\..\..\FreeRTOS\FreeRTOS\FreeRTOS\Source/timers.c ****          * queue used to communicate with the timer service, have been
 957:..\..\..\..\..\..\FreeRTOS\FreeRTOS\FreeRTOS\Source/timers.c ****          * initialised. */
 958:..\..\..\..\..\..\FreeRTOS\FreeRTOS\FreeRTOS\Source/timers.c ****         taskENTER_CRITICAL();
 167              		.loc 1 958 0
 168 0002 FFF7FEFF 		bl	vPortEnterCritical
 169              	.LVL21:
 959:..\..\..\..\..\..\FreeRTOS\FreeRTOS\FreeRTOS\Source/timers.c ****         {
 960:..\..\..\..\..\..\FreeRTOS\FreeRTOS\FreeRTOS\Source/timers.c ****             if( xTimerQueue == NULL )
 170              		.loc 1 960 0
 171 0006 0E4B     		ldr	r3, .L20
 172 0008 9B68     		ldr	r3, [r3, #8]
 173 000a B3B9     		cbnz	r3, .L18
 961:..\..\..\..\..\..\FreeRTOS\FreeRTOS\FreeRTOS\Source/timers.c ****             {
 962:..\..\..\..\..\..\FreeRTOS\FreeRTOS\FreeRTOS\Source/timers.c ****                 vListInitialise( &xActiveTimerList1 );
 174              		.loc 1 962 0
ARM GAS  C:\Users\u0036181\AppData\Local\Temp\cch2Rq0R.s 			page 21


 175 000c 0C4C     		ldr	r4, .L20
 176 000e 04F10C06 		add	r6, r4, #12
 177 0012 3046     		mov	r0, r6
 178 0014 FFF7FEFF 		bl	vListInitialise
 179              	.LVL22:
 963:..\..\..\..\..\..\FreeRTOS\FreeRTOS\FreeRTOS\Source/timers.c ****                 vListInitialise( &xActiveTimerList2 );
 180              		.loc 1 963 0
 181 0018 04F12005 		add	r5, r4, #32
 182 001c 2846     		mov	r0, r5
 183 001e FFF7FEFF 		bl	vListInitialise
 184              	.LVL23:
 964:..\..\..\..\..\..\FreeRTOS\FreeRTOS\FreeRTOS\Source/timers.c ****                 pxCurrentTimerList = &xActiveTimerList1;
 185              		.loc 1 964 0
 186 0022 2660     		str	r6, [r4]
 965:..\..\..\..\..\..\FreeRTOS\FreeRTOS\FreeRTOS\Source/timers.c ****                 pxOverflowTimerList = &xActiveTimerList2;
 187              		.loc 1 965 0
 188 0024 6560     		str	r5, [r4, #4]
 966:..\..\..\..\..\..\FreeRTOS\FreeRTOS\FreeRTOS\Source/timers.c **** 
 967:..\..\..\..\..\..\FreeRTOS\FreeRTOS\FreeRTOS\Source/timers.c ****                 #if ( configSUPPORT_STATIC_ALLOCATION == 1 )
 968:..\..\..\..\..\..\FreeRTOS\FreeRTOS\FreeRTOS\Source/timers.c ****                     {
 969:..\..\..\..\..\..\FreeRTOS\FreeRTOS\FreeRTOS\Source/timers.c ****                         /* The timer queue is allocated statically in case
 970:..\..\..\..\..\..\FreeRTOS\FreeRTOS\FreeRTOS\Source/timers.c ****                          * configSUPPORT_DYNAMIC_ALLOCATION is 0. */
 971:..\..\..\..\..\..\FreeRTOS\FreeRTOS\FreeRTOS\Source/timers.c ****                         PRIVILEGED_DATA static StaticQueue_t xStaticTimerQueue;                    
 972:..\..\..\..\..\..\FreeRTOS\FreeRTOS\FreeRTOS\Source/timers.c ****                         PRIVILEGED_DATA static uint8_t ucStaticTimerQueueStorage[ ( size_t ) config
 973:..\..\..\..\..\..\FreeRTOS\FreeRTOS\FreeRTOS\Source/timers.c **** 
 974:..\..\..\..\..\..\FreeRTOS\FreeRTOS\FreeRTOS\Source/timers.c ****                         xTimerQueue = xQueueCreateStatic( ( UBaseType_t ) configTIMER_QUEUE_LENGTH,
 975:..\..\..\..\..\..\FreeRTOS\FreeRTOS\FreeRTOS\Source/timers.c ****                     }
 976:..\..\..\..\..\..\FreeRTOS\FreeRTOS\FreeRTOS\Source/timers.c ****                 #else
 977:..\..\..\..\..\..\FreeRTOS\FreeRTOS\FreeRTOS\Source/timers.c ****                     {
 978:..\..\..\..\..\..\FreeRTOS\FreeRTOS\FreeRTOS\Source/timers.c ****                         xTimerQueue = xQueueCreate( ( UBaseType_t ) configTIMER_QUEUE_LENGTH, sizeo
 189              		.loc 1 978 0
 190 0026 0022     		movs	r2, #0
 191 0028 0C21     		movs	r1, #12
 192 002a 0A20     		movs	r0, #10
 193 002c FFF7FEFF 		bl	xQueueGenericCreate
 194              	.LVL24:
 195 0030 A060     		str	r0, [r4, #8]
 979:..\..\..\..\..\..\FreeRTOS\FreeRTOS\FreeRTOS\Source/timers.c ****                     }
 980:..\..\..\..\..\..\FreeRTOS\FreeRTOS\FreeRTOS\Source/timers.c ****                 #endif /* if ( configSUPPORT_STATIC_ALLOCATION == 1 ) */
 981:..\..\..\..\..\..\FreeRTOS\FreeRTOS\FreeRTOS\Source/timers.c **** 
 982:..\..\..\..\..\..\FreeRTOS\FreeRTOS\FreeRTOS\Source/timers.c ****                 #if ( configQUEUE_REGISTRY_SIZE > 0 )
 983:..\..\..\..\..\..\FreeRTOS\FreeRTOS\FreeRTOS\Source/timers.c ****                     {
 984:..\..\..\..\..\..\FreeRTOS\FreeRTOS\FreeRTOS\Source/timers.c ****                         if( xTimerQueue != NULL )
 196              		.loc 1 984 0
 197 0032 10B1     		cbz	r0, .L18
 985:..\..\..\..\..\..\FreeRTOS\FreeRTOS\FreeRTOS\Source/timers.c ****                         {
 986:..\..\..\..\..\..\FreeRTOS\FreeRTOS\FreeRTOS\Source/timers.c ****                             vQueueAddToRegistry( xTimerQueue, "TmrQ" );
 198              		.loc 1 986 0
 199 0034 0349     		ldr	r1, .L20+4
 200 0036 FFF7FEFF 		bl	vQueueAddToRegistry
 201              	.LVL25:
 202              	.L18:
 987:..\..\..\..\..\..\FreeRTOS\FreeRTOS\FreeRTOS\Source/timers.c ****                         }
 988:..\..\..\..\..\..\FreeRTOS\FreeRTOS\FreeRTOS\Source/timers.c ****                         else
 989:..\..\..\..\..\..\FreeRTOS\FreeRTOS\FreeRTOS\Source/timers.c ****                         {
 990:..\..\..\..\..\..\FreeRTOS\FreeRTOS\FreeRTOS\Source/timers.c ****                             mtCOVERAGE_TEST_MARKER();
 991:..\..\..\..\..\..\FreeRTOS\FreeRTOS\FreeRTOS\Source/timers.c ****                         }
ARM GAS  C:\Users\u0036181\AppData\Local\Temp\cch2Rq0R.s 			page 22


 992:..\..\..\..\..\..\FreeRTOS\FreeRTOS\FreeRTOS\Source/timers.c ****                     }
 993:..\..\..\..\..\..\FreeRTOS\FreeRTOS\FreeRTOS\Source/timers.c ****                 #endif /* configQUEUE_REGISTRY_SIZE */
 994:..\..\..\..\..\..\FreeRTOS\FreeRTOS\FreeRTOS\Source/timers.c ****             }
 995:..\..\..\..\..\..\FreeRTOS\FreeRTOS\FreeRTOS\Source/timers.c ****             else
 996:..\..\..\..\..\..\FreeRTOS\FreeRTOS\FreeRTOS\Source/timers.c ****             {
 997:..\..\..\..\..\..\FreeRTOS\FreeRTOS\FreeRTOS\Source/timers.c ****                 mtCOVERAGE_TEST_MARKER();
 998:..\..\..\..\..\..\FreeRTOS\FreeRTOS\FreeRTOS\Source/timers.c ****             }
 999:..\..\..\..\..\..\FreeRTOS\FreeRTOS\FreeRTOS\Source/timers.c ****         }
1000:..\..\..\..\..\..\FreeRTOS\FreeRTOS\FreeRTOS\Source/timers.c ****         taskEXIT_CRITICAL();
 203              		.loc 1 1000 0
 204 003a FFF7FEFF 		bl	vPortExitCritical
 205              	.LVL26:
 206 003e 70BD     		pop	{r4, r5, r6, pc}
 207              	.L21:
 208              		.align	2
 209              	.L20:
 210 0040 00000000 		.word	.LANCHOR0
 211 0044 00000000 		.word	.LC0
 212              		.cfi_endproc
 213              	.LFE22:
 214              		.size	prvCheckForValidListAndQueue, .-prvCheckForValidListAndQueue
 215              		.section	.text.prvInitialiseNewTimer,"ax",%progbits
 216              		.align	2
 217              		.thumb
 218              		.thumb_func
 219              		.type	prvInitialiseNewTimer, %function
 220              	prvInitialiseNewTimer:
 221              	.LFB6:
 349:..\..\..\..\..\..\FreeRTOS\FreeRTOS\FreeRTOS\Source/timers.c ****         /* 0 is not a valid value for xTimerPeriodInTicks. */
 222              		.loc 1 349 0
 223              		.cfi_startproc
 224              		@ args = 8, pretend = 0, frame = 0
 225              		@ frame_needed = 0, uses_anonymous_args = 0
 226              	.LVL27:
 227 0000 2DE9F041 		push	{r4, r5, r6, r7, r8, lr}
 228              		.cfi_def_cfa_offset 24
 229              		.cfi_offset 4, -24
 230              		.cfi_offset 5, -20
 231              		.cfi_offset 6, -16
 232              		.cfi_offset 7, -12
 233              		.cfi_offset 8, -8
 234              		.cfi_offset 14, -4
 235 0004 079C     		ldr	r4, [sp, #28]
 353:..\..\..\..\..\..\FreeRTOS\FreeRTOS\FreeRTOS\Source/timers.c ****         {
 236              		.loc 1 353 0
 237 0006 ACB1     		cbz	r4, .L22
 238 0008 1E46     		mov	r6, r3
 239 000a 1546     		mov	r5, r2
 240 000c 0F46     		mov	r7, r1
 241 000e 8046     		mov	r8, r0
 357:..\..\..\..\..\..\FreeRTOS\FreeRTOS\FreeRTOS\Source/timers.c **** 
 242              		.loc 1 357 0
 243 0010 FFF7FEFF 		bl	prvCheckForValidListAndQueue
 244              	.LVL28:
 361:..\..\..\..\..\..\FreeRTOS\FreeRTOS\FreeRTOS\Source/timers.c ****             pxNewTimer->xTimerPeriodInTicks = xTimerPeriodInTicks;
 245              		.loc 1 361 0
 246 0014 C4F80080 		str	r8, [r4]
ARM GAS  C:\Users\u0036181\AppData\Local\Temp\cch2Rq0R.s 			page 23


 362:..\..\..\..\..\..\FreeRTOS\FreeRTOS\FreeRTOS\Source/timers.c ****             pxNewTimer->pvTimerID = pvTimerID;
 247              		.loc 1 362 0
 248 0018 A761     		str	r7, [r4, #24]
 363:..\..\..\..\..\..\FreeRTOS\FreeRTOS\FreeRTOS\Source/timers.c ****             pxNewTimer->pxCallbackFunction = pxCallbackFunction;
 249              		.loc 1 363 0
 250 001a E661     		str	r6, [r4, #28]
 364:..\..\..\..\..\..\FreeRTOS\FreeRTOS\FreeRTOS\Source/timers.c ****             vListInitialiseItem( &( pxNewTimer->xTimerListItem ) );
 251              		.loc 1 364 0
 252 001c 069B     		ldr	r3, [sp, #24]
 253 001e 2362     		str	r3, [r4, #32]
 365:..\..\..\..\..\..\FreeRTOS\FreeRTOS\FreeRTOS\Source/timers.c **** 
 254              		.loc 1 365 0
 255 0020 201D     		adds	r0, r4, #4
 256 0022 FFF7FEFF 		bl	vListInitialiseItem
 257              	.LVL29:
 367:..\..\..\..\..\..\FreeRTOS\FreeRTOS\FreeRTOS\Source/timers.c ****             {
 258              		.loc 1 367 0
 259 0026 2DB1     		cbz	r5, .L22
 369:..\..\..\..\..\..\FreeRTOS\FreeRTOS\FreeRTOS\Source/timers.c ****             }
 260              		.loc 1 369 0
 261 0028 94F82430 		ldrb	r3, [r4, #36]	@ zero_extendqisi2
 262 002c 43F00403 		orr	r3, r3, #4
 263 0030 84F82430 		strb	r3, [r4, #36]
 264              	.LVL30:
 265              	.L22:
 266 0034 BDE8F081 		pop	{r4, r5, r6, r7, r8, pc}
 267              		.cfi_endproc
 268              	.LFE6:
 269              		.size	prvInitialiseNewTimer, .-prvInitialiseNewTimer
 270              		.section	.text.xTimerCreateTimerTask,"ax",%progbits
 271              		.align	2
 272              		.global	xTimerCreateTimerTask
 273              		.thumb
 274              		.thumb_func
 275              		.type	xTimerCreateTimerTask, %function
 276              	xTimerCreateTimerTask:
 277              	.LFB4:
 222:..\..\..\..\..\..\FreeRTOS\FreeRTOS\FreeRTOS\Source/timers.c ****         BaseType_t xReturn = pdFAIL;
 278              		.loc 1 222 0
 279              		.cfi_startproc
 280              		@ args = 0, pretend = 0, frame = 0
 281              		@ frame_needed = 0, uses_anonymous_args = 0
 282 0000 00B5     		push	{lr}
 283              		.cfi_def_cfa_offset 4
 284              		.cfi_offset 14, -4
 285 0002 83B0     		sub	sp, sp, #12
 286              		.cfi_def_cfa_offset 16
 287              	.LVL31:
 229:..\..\..\..\..\..\FreeRTOS\FreeRTOS\FreeRTOS\Source/timers.c **** 
 288              		.loc 1 229 0
 289 0004 FFF7FEFF 		bl	prvCheckForValidListAndQueue
 290              	.LVL32:
 231:..\..\..\..\..\..\FreeRTOS\FreeRTOS\FreeRTOS\Source/timers.c ****         {
 291              		.loc 1 231 0
 292 0008 084B     		ldr	r3, .L29
 293 000a 9B68     		ldr	r3, [r3, #8]
 294 000c 53B1     		cbz	r3, .L27
ARM GAS  C:\Users\u0036181\AppData\Local\Temp\cch2Rq0R.s 			page 24


 255:..\..\..\..\..\..\FreeRTOS\FreeRTOS\FreeRTOS\Source/timers.c ****                                            configTIMER_SERVICE_TASK_NAME,
 295              		.loc 1 255 0
 296 000e 084B     		ldr	r3, .L29+4
 297 0010 0193     		str	r3, [sp, #4]
 298 0012 0323     		movs	r3, #3
 299 0014 0093     		str	r3, [sp]
 300 0016 0023     		movs	r3, #0
 301 0018 8022     		movs	r2, #128
 302 001a 0649     		ldr	r1, .L29+8
 303 001c 0648     		ldr	r0, .L29+12
 304 001e FFF7FEFF 		bl	xTaskCreate
 305              	.LVL33:
 306 0022 00E0     		b	.L26
 307              	.LVL34:
 308              	.L27:
 223:..\..\..\..\..\..\FreeRTOS\FreeRTOS\FreeRTOS\Source/timers.c **** 
 309              		.loc 1 223 0
 310 0024 0020     		movs	r0, #0
 311              	.LVL35:
 312              	.L26:
 271:..\..\..\..\..\..\FreeRTOS\FreeRTOS\FreeRTOS\Source/timers.c **** /*-----------------------------------------------------------*/
 313              		.loc 1 271 0
 314 0026 03B0     		add	sp, sp, #12
 315              		.cfi_def_cfa_offset 4
 316              		@ sp needed
 317 0028 5DF804FB 		ldr	pc, [sp], #4
 318              	.L30:
 319              		.align	2
 320              	.L29:
 321 002c 00000000 		.word	.LANCHOR0
 322 0030 34000000 		.word	.LANCHOR0+52
 323 0034 08000000 		.word	.LC1
 324 0038 00000000 		.word	prvTimerTask
 325              		.cfi_endproc
 326              	.LFE4:
 327              		.size	xTimerCreateTimerTask, .-xTimerCreateTimerTask
 328              		.section	.text.xTimerCreate,"ax",%progbits
 329              		.align	2
 330              		.global	xTimerCreate
 331              		.thumb
 332              		.thumb_func
 333              		.type	xTimerCreate, %function
 334              	xTimerCreate:
 335              	.LFB5:
 281:..\..\..\..\..\..\FreeRTOS\FreeRTOS\FreeRTOS\Source/timers.c ****             Timer_t * pxNewTimer;
 336              		.loc 1 281 0
 337              		.cfi_startproc
 338              		@ args = 4, pretend = 0, frame = 0
 339              		@ frame_needed = 0, uses_anonymous_args = 0
 340              	.LVL36:
 341 0000 2DE9F041 		push	{r4, r5, r6, r7, r8, lr}
 342              		.cfi_def_cfa_offset 24
 343              		.cfi_offset 4, -24
 344              		.cfi_offset 5, -20
 345              		.cfi_offset 6, -16
 346              		.cfi_offset 7, -12
 347              		.cfi_offset 8, -8
ARM GAS  C:\Users\u0036181\AppData\Local\Temp\cch2Rq0R.s 			page 25


 348              		.cfi_offset 14, -4
 349 0004 82B0     		sub	sp, sp, #8
 350              		.cfi_def_cfa_offset 32
 351 0006 0546     		mov	r5, r0
 352 0008 0E46     		mov	r6, r1
 353 000a 1746     		mov	r7, r2
 354 000c 9846     		mov	r8, r3
 284:..\..\..\..\..\..\FreeRTOS\FreeRTOS\FreeRTOS\Source/timers.c **** 
 355              		.loc 1 284 0
 356 000e 2820     		movs	r0, #40
 357              	.LVL37:
 358 0010 FFF7FEFF 		bl	pvPortMalloc
 359              	.LVL38:
 286:..\..\..\..\..\..\FreeRTOS\FreeRTOS\FreeRTOS\Source/timers.c ****             {
 360              		.loc 1 286 0
 361 0014 0446     		mov	r4, r0
 362 0016 58B1     		cbz	r0, .L32
 291:..\..\..\..\..\..\FreeRTOS\FreeRTOS\FreeRTOS\Source/timers.c ****                 prvInitialiseNewTimer( pcTimerName, xTimerPeriodInTicks, uxAutoReload, pvTimerID, p
 363              		.loc 1 291 0
 364 0018 0023     		movs	r3, #0
 365 001a 80F82430 		strb	r3, [r0, #36]
 292:..\..\..\..\..\..\FreeRTOS\FreeRTOS\FreeRTOS\Source/timers.c ****             }
 366              		.loc 1 292 0
 367 001e 0190     		str	r0, [sp, #4]
 368 0020 089B     		ldr	r3, [sp, #32]
 369 0022 0093     		str	r3, [sp]
 370 0024 4346     		mov	r3, r8
 371 0026 3A46     		mov	r2, r7
 372 0028 3146     		mov	r1, r6
 373 002a 2846     		mov	r0, r5
 374              	.LVL39:
 375 002c FFF7FEFF 		bl	prvInitialiseNewTimer
 376              	.LVL40:
 377              	.L32:
 296:..\..\..\..\..\..\FreeRTOS\FreeRTOS\FreeRTOS\Source/timers.c **** 
 378              		.loc 1 296 0
 379 0030 2046     		mov	r0, r4
 380 0032 02B0     		add	sp, sp, #8
 381              		.cfi_def_cfa_offset 24
 382              		@ sp needed
 383 0034 BDE8F081 		pop	{r4, r5, r6, r7, r8, pc}
 384              		.cfi_endproc
 385              	.LFE5:
 386              		.size	xTimerCreate, .-xTimerCreate
 387              		.section	.text.xTimerGenericCommand,"ax",%progbits
 388              		.align	2
 389              		.global	xTimerGenericCommand
 390              		.thumb
 391              		.thumb_func
 392              		.type	xTimerGenericCommand, %function
 393              	xTimerGenericCommand:
 394              	.LFB7:
 382:..\..\..\..\..\..\FreeRTOS\FreeRTOS\FreeRTOS\Source/timers.c ****         BaseType_t xReturn = pdFAIL;
 395              		.loc 1 382 0
 396              		.cfi_startproc
 397              		@ args = 4, pretend = 0, frame = 16
 398              		@ frame_needed = 0, uses_anonymous_args = 0
ARM GAS  C:\Users\u0036181\AppData\Local\Temp\cch2Rq0R.s 			page 26


 399              	.LVL41:
 400 0000 30B5     		push	{r4, r5, lr}
 401              		.cfi_def_cfa_offset 12
 402              		.cfi_offset 4, -12
 403              		.cfi_offset 5, -8
 404              		.cfi_offset 14, -4
 405 0002 85B0     		sub	sp, sp, #20
 406              		.cfi_def_cfa_offset 32
 407              	.LVL42:
 390:..\..\..\..\..\..\FreeRTOS\FreeRTOS\FreeRTOS\Source/timers.c ****         {
 408              		.loc 1 390 0
 409 0004 134C     		ldr	r4, .L40
 410 0006 A568     		ldr	r5, [r4, #8]
 411 0008 05B3     		cbz	r5, .L38
 412 000a 1C46     		mov	r4, r3
 393:..\..\..\..\..\..\FreeRTOS\FreeRTOS\FreeRTOS\Source/timers.c ****             xMessage.u.xTimerParameters.xMessageValue = xOptionalValue;
 413              		.loc 1 393 0
 414 000c 0191     		str	r1, [sp, #4]
 394:..\..\..\..\..\..\FreeRTOS\FreeRTOS\FreeRTOS\Source/timers.c ****             xMessage.u.xTimerParameters.pxTimer = xTimer;
 415              		.loc 1 394 0
 416 000e 0292     		str	r2, [sp, #8]
 395:..\..\..\..\..\..\FreeRTOS\FreeRTOS\FreeRTOS\Source/timers.c **** 
 417              		.loc 1 395 0
 418 0010 0390     		str	r0, [sp, #12]
 397:..\..\..\..\..\..\FreeRTOS\FreeRTOS\FreeRTOS\Source/timers.c ****             {
 419              		.loc 1 397 0
 420 0012 0529     		cmp	r1, #5
 421 0014 13DC     		bgt	.L36
 399:..\..\..\..\..\..\FreeRTOS\FreeRTOS\FreeRTOS\Source/timers.c ****                 {
 422              		.loc 1 399 0
 423 0016 FFF7FEFF 		bl	xTaskGetSchedulerState
 424              	.LVL43:
 425 001a 0228     		cmp	r0, #2
 426 001c 07D1     		bne	.L37
 401:..\..\..\..\..\..\FreeRTOS\FreeRTOS\FreeRTOS\Source/timers.c ****                 }
 427              		.loc 1 401 0
 428 001e 0023     		movs	r3, #0
 429 0020 089A     		ldr	r2, [sp, #32]
 430 0022 01A9     		add	r1, sp, #4
 431 0024 0B48     		ldr	r0, .L40
 432 0026 8068     		ldr	r0, [r0, #8]
 433 0028 FFF7FEFF 		bl	xQueueGenericSend
 434              	.LVL44:
 435 002c 0FE0     		b	.L35
 436              	.LVL45:
 437              	.L37:
 405:..\..\..\..\..\..\FreeRTOS\FreeRTOS\FreeRTOS\Source/timers.c ****                 }
 438              		.loc 1 405 0
 439 002e 0023     		movs	r3, #0
 440 0030 1A46     		mov	r2, r3
 441 0032 01A9     		add	r1, sp, #4
 442 0034 0748     		ldr	r0, .L40
 443 0036 8068     		ldr	r0, [r0, #8]
 444 0038 FFF7FEFF 		bl	xQueueGenericSend
 445              	.LVL46:
 446 003c 07E0     		b	.L35
 447              	.LVL47:
ARM GAS  C:\Users\u0036181\AppData\Local\Temp\cch2Rq0R.s 			page 27


 448              	.L36:
 410:..\..\..\..\..\..\FreeRTOS\FreeRTOS\FreeRTOS\Source/timers.c ****             }
 449              		.loc 1 410 0
 450 003e 0023     		movs	r3, #0
 451              	.LVL48:
 452 0040 2246     		mov	r2, r4
 453              	.LVL49:
 454 0042 01A9     		add	r1, sp, #4
 455              	.LVL50:
 456 0044 2846     		mov	r0, r5
 457              	.LVL51:
 458 0046 FFF7FEFF 		bl	xQueueGenericSendFromISR
 459              	.LVL52:
 460 004a 00E0     		b	.L35
 461              	.LVL53:
 462              	.L38:
 383:..\..\..\..\..\..\FreeRTOS\FreeRTOS\FreeRTOS\Source/timers.c ****         DaemonTaskMessage_t xMessage;
 463              		.loc 1 383 0
 464 004c 0020     		movs	r0, #0
 465              	.LVL54:
 466              	.L35:
 421:..\..\..\..\..\..\FreeRTOS\FreeRTOS\FreeRTOS\Source/timers.c **** /*-----------------------------------------------------------*/
 467              		.loc 1 421 0
 468 004e 05B0     		add	sp, sp, #20
 469              		.cfi_def_cfa_offset 12
 470              		@ sp needed
 471 0050 30BD     		pop	{r4, r5, pc}
 472              	.LVL55:
 473              	.L41:
 474 0052 00BF     		.align	2
 475              	.L40:
 476 0054 00000000 		.word	.LANCHOR0
 477              		.cfi_endproc
 478              	.LFE7:
 479              		.size	xTimerGenericCommand, .-xTimerGenericCommand
 480              		.section	.text.prvSwitchTimerLists,"ax",%progbits
 481              		.align	2
 482              		.thumb
 483              		.thumb_func
 484              		.type	prvSwitchTimerLists, %function
 485              	prvSwitchTimerLists:
 486              	.LFB21:
 894:..\..\..\..\..\..\FreeRTOS\FreeRTOS\FreeRTOS\Source/timers.c ****         TickType_t xNextExpireTime, xReloadTime;
 487              		.loc 1 894 0
 488              		.cfi_startproc
 489              		@ args = 0, pretend = 0, frame = 0
 490              		@ frame_needed = 0, uses_anonymous_args = 0
 491 0000 70B5     		push	{r4, r5, r6, lr}
 492              		.cfi_def_cfa_offset 16
 493              		.cfi_offset 4, -16
 494              		.cfi_offset 5, -12
 495              		.cfi_offset 6, -8
 496              		.cfi_offset 14, -4
 497 0002 82B0     		sub	sp, sp, #8
 498              		.cfi_def_cfa_offset 24
 904:..\..\..\..\..\..\FreeRTOS\FreeRTOS\FreeRTOS\Source/timers.c ****         {
 499              		.loc 1 904 0
ARM GAS  C:\Users\u0036181\AppData\Local\Temp\cch2Rq0R.s 			page 28


 500 0004 21E0     		b	.L44
 501              	.L47:
 906:..\..\..\..\..\..\FreeRTOS\FreeRTOS\FreeRTOS\Source/timers.c **** 
 502              		.loc 1 906 0
 503 0006 DB68     		ldr	r3, [r3, #12]
 504 0008 1E68     		ldr	r6, [r3]
 505              	.LVL56:
 909:..\..\..\..\..\..\FreeRTOS\FreeRTOS\FreeRTOS\Source/timers.c ****             ( void ) uxListRemove( &( pxTimer->xTimerListItem ) );
 506              		.loc 1 909 0
 507 000a DC68     		ldr	r4, [r3, #12]
 508              	.LVL57:
 910:..\..\..\..\..\..\FreeRTOS\FreeRTOS\FreeRTOS\Source/timers.c ****             traceTIMER_EXPIRED( pxTimer );
 509              		.loc 1 910 0
 510 000c 251D     		adds	r5, r4, #4
 511 000e 2846     		mov	r0, r5
 512 0010 FFF7FEFF 		bl	uxListRemove
 513              	.LVL58:
 916:..\..\..\..\..\..\FreeRTOS\FreeRTOS\FreeRTOS\Source/timers.c **** 
 514              		.loc 1 916 0
 515 0014 236A     		ldr	r3, [r4, #32]
 516 0016 2046     		mov	r0, r4
 517 0018 9847     		blx	r3
 518              	.LVL59:
 918:..\..\..\..\..\..\FreeRTOS\FreeRTOS\FreeRTOS\Source/timers.c ****             {
 519              		.loc 1 918 0
 520 001a 94F82430 		ldrb	r3, [r4, #36]	@ zero_extendqisi2
 521 001e 13F0040F 		tst	r3, #4
 522 0022 12D0     		beq	.L44
 926:..\..\..\..\..\..\FreeRTOS\FreeRTOS\FreeRTOS\Source/timers.c **** 
 523              		.loc 1 926 0
 524 0024 A369     		ldr	r3, [r4, #24]
 525 0026 3344     		add	r3, r3, r6
 526              	.LVL60:
 928:..\..\..\..\..\..\FreeRTOS\FreeRTOS\FreeRTOS\Source/timers.c ****                 {
 527              		.loc 1 928 0
 528 0028 9E42     		cmp	r6, r3
 529 002a 07D2     		bcs	.L45
 930:..\..\..\..\..\..\FreeRTOS\FreeRTOS\FreeRTOS\Source/timers.c ****                     listSET_LIST_ITEM_OWNER( &( pxTimer->xTimerListItem ), pxTimer );
 530              		.loc 1 930 0
 531 002c 6360     		str	r3, [r4, #4]
 931:..\..\..\..\..\..\FreeRTOS\FreeRTOS\FreeRTOS\Source/timers.c ****                     vListInsert( pxCurrentTimerList, &( pxTimer->xTimerListItem ) );
 532              		.loc 1 931 0
 533 002e 2461     		str	r4, [r4, #16]
 932:..\..\..\..\..\..\FreeRTOS\FreeRTOS\FreeRTOS\Source/timers.c ****                 }
 534              		.loc 1 932 0
 535 0030 2946     		mov	r1, r5
 536 0032 0B4B     		ldr	r3, .L49
 537              	.LVL61:
 538 0034 1868     		ldr	r0, [r3]
 539 0036 FFF7FEFF 		bl	vListInsert
 540              	.LVL62:
 541 003a 06E0     		b	.L44
 542              	.LVL63:
 543              	.L45:
 936:..\..\..\..\..\..\FreeRTOS\FreeRTOS\FreeRTOS\Source/timers.c ****                     configASSERT( xResult );
 544              		.loc 1 936 0
 545 003c 0021     		movs	r1, #0
ARM GAS  C:\Users\u0036181\AppData\Local\Temp\cch2Rq0R.s 			page 29


 546 003e 0091     		str	r1, [sp]
 547 0040 0B46     		mov	r3, r1
 548              	.LVL64:
 549 0042 3246     		mov	r2, r6
 550 0044 2046     		mov	r0, r4
 551 0046 FFF7FEFF 		bl	xTimerGenericCommand
 552              	.LVL65:
 553              	.L44:
 904:..\..\..\..\..\..\FreeRTOS\FreeRTOS\FreeRTOS\Source/timers.c ****         {
 554              		.loc 1 904 0
 555 004a 054B     		ldr	r3, .L49
 556 004c 1B68     		ldr	r3, [r3]
 557 004e 1A68     		ldr	r2, [r3]
 558 0050 002A     		cmp	r2, #0
 559 0052 D8D1     		bne	.L47
 560              	.LVL66:
 948:..\..\..\..\..\..\FreeRTOS\FreeRTOS\FreeRTOS\Source/timers.c ****         pxOverflowTimerList = pxTemp;
 561              		.loc 1 948 0
 562 0054 024A     		ldr	r2, .L49
 563 0056 5168     		ldr	r1, [r2, #4]
 564 0058 1160     		str	r1, [r2]
 949:..\..\..\..\..\..\FreeRTOS\FreeRTOS\FreeRTOS\Source/timers.c ****     }
 565              		.loc 1 949 0
 566 005a 5360     		str	r3, [r2, #4]
 950:..\..\..\..\..\..\FreeRTOS\FreeRTOS\FreeRTOS\Source/timers.c **** /*-----------------------------------------------------------*/
 567              		.loc 1 950 0
 568 005c 02B0     		add	sp, sp, #8
 569              		.cfi_def_cfa_offset 16
 570              		@ sp needed
 571 005e 70BD     		pop	{r4, r5, r6, pc}
 572              	.L50:
 573              		.align	2
 574              	.L49:
 575 0060 00000000 		.word	.LANCHOR0
 576              		.cfi_endproc
 577              	.LFE21:
 578              		.size	prvSwitchTimerLists, .-prvSwitchTimerLists
 579              		.section	.text.prvSampleTimeNow,"ax",%progbits
 580              		.align	2
 581              		.thumb
 582              		.thumb_func
 583              		.type	prvSampleTimeNow, %function
 584              	prvSampleTimeNow:
 585              	.LFB18:
 677:..\..\..\..\..\..\FreeRTOS\FreeRTOS\FreeRTOS\Source/timers.c ****         TickType_t xTimeNow;
 586              		.loc 1 677 0
 587              		.cfi_startproc
 588              		@ args = 0, pretend = 0, frame = 0
 589              		@ frame_needed = 0, uses_anonymous_args = 0
 590              	.LVL67:
 591 0000 38B5     		push	{r3, r4, r5, lr}
 592              		.cfi_def_cfa_offset 16
 593              		.cfi_offset 3, -16
 594              		.cfi_offset 4, -12
 595              		.cfi_offset 5, -8
 596              		.cfi_offset 14, -4
 597 0002 0546     		mov	r5, r0
ARM GAS  C:\Users\u0036181\AppData\Local\Temp\cch2Rq0R.s 			page 30


 681:..\..\..\..\..\..\FreeRTOS\FreeRTOS\FreeRTOS\Source/timers.c **** 
 598              		.loc 1 681 0
 599 0004 FFF7FEFF 		bl	xTaskGetTickCount
 600              	.LVL68:
 601 0008 0446     		mov	r4, r0
 602              	.LVL69:
 683:..\..\..\..\..\..\FreeRTOS\FreeRTOS\FreeRTOS\Source/timers.c ****         {
 603              		.loc 1 683 0
 604 000a 074B     		ldr	r3, .L55
 605 000c 9B6B     		ldr	r3, [r3, #56]
 606 000e 9842     		cmp	r0, r3
 607 0010 04D2     		bcs	.L52
 685:..\..\..\..\..\..\FreeRTOS\FreeRTOS\FreeRTOS\Source/timers.c ****             *pxTimerListsWereSwitched = pdTRUE;
 608              		.loc 1 685 0
 609 0012 FFF7FEFF 		bl	prvSwitchTimerLists
 610              	.LVL70:
 686:..\..\..\..\..\..\FreeRTOS\FreeRTOS\FreeRTOS\Source/timers.c ****         }
 611              		.loc 1 686 0
 612 0016 0123     		movs	r3, #1
 613 0018 2B60     		str	r3, [r5]
 614 001a 01E0     		b	.L53
 615              	.LVL71:
 616              	.L52:
 690:..\..\..\..\..\..\FreeRTOS\FreeRTOS\FreeRTOS\Source/timers.c ****         }
 617              		.loc 1 690 0
 618 001c 0023     		movs	r3, #0
 619 001e 2B60     		str	r3, [r5]
 620              	.LVL72:
 621              	.L53:
 693:..\..\..\..\..\..\FreeRTOS\FreeRTOS\FreeRTOS\Source/timers.c **** 
 622              		.loc 1 693 0
 623 0020 014B     		ldr	r3, .L55
 624 0022 9C63     		str	r4, [r3, #56]
 696:..\..\..\..\..\..\FreeRTOS\FreeRTOS\FreeRTOS\Source/timers.c **** /*-----------------------------------------------------------*/
 625              		.loc 1 696 0
 626 0024 2046     		mov	r0, r4
 627 0026 38BD     		pop	{r3, r4, r5, pc}
 628              	.LVL73:
 629              	.L56:
 630              		.align	2
 631              	.L55:
 632 0028 00000000 		.word	.LANCHOR0
 633              		.cfi_endproc
 634              	.LFE18:
 635              		.size	prvSampleTimeNow, .-prvSampleTimeNow
 636              		.section	.text.prvProcessExpiredTimer,"ax",%progbits
 637              		.align	2
 638              		.thumb
 639              		.thumb_func
 640              		.type	prvProcessExpiredTimer, %function
 641              	prvProcessExpiredTimer:
 642              	.LFB14:
 510:..\..\..\..\..\..\FreeRTOS\FreeRTOS\FreeRTOS\Source/timers.c ****         BaseType_t xResult;
 643              		.loc 1 510 0
 644              		.cfi_startproc
 645              		@ args = 0, pretend = 0, frame = 0
 646              		@ frame_needed = 0, uses_anonymous_args = 0
ARM GAS  C:\Users\u0036181\AppData\Local\Temp\cch2Rq0R.s 			page 31


 647              	.LVL74:
 648 0000 70B5     		push	{r4, r5, r6, lr}
 649              		.cfi_def_cfa_offset 16
 650              		.cfi_offset 4, -16
 651              		.cfi_offset 5, -12
 652              		.cfi_offset 6, -8
 653              		.cfi_offset 14, -4
 654 0002 82B0     		sub	sp, sp, #8
 655              		.cfi_def_cfa_offset 24
 656 0004 0546     		mov	r5, r0
 657 0006 0E46     		mov	r6, r1
 512:..\..\..\..\..\..\FreeRTOS\FreeRTOS\FreeRTOS\Source/timers.c **** 
 658              		.loc 1 512 0
 659 0008 124B     		ldr	r3, .L61
 660 000a 1B68     		ldr	r3, [r3]
 661 000c DB68     		ldr	r3, [r3, #12]
 662 000e DC68     		ldr	r4, [r3, #12]
 663              	.LVL75:
 517:..\..\..\..\..\..\FreeRTOS\FreeRTOS\FreeRTOS\Source/timers.c ****         traceTIMER_EXPIRED( pxTimer );
 664              		.loc 1 517 0
 665 0010 201D     		adds	r0, r4, #4
 666              	.LVL76:
 667 0012 FFF7FEFF 		bl	uxListRemove
 668              	.LVL77:
 522:..\..\..\..\..\..\FreeRTOS\FreeRTOS\FreeRTOS\Source/timers.c ****         {
 669              		.loc 1 522 0
 670 0016 94F82430 		ldrb	r3, [r4, #36]	@ zero_extendqisi2
 671 001a 13F0040F 		tst	r3, #4
 672 001e 0FD0     		beq	.L58
 527:..\..\..\..\..\..\FreeRTOS\FreeRTOS\FreeRTOS\Source/timers.c ****             {
 673              		.loc 1 527 0
 674 0020 A169     		ldr	r1, [r4, #24]
 675 0022 2B46     		mov	r3, r5
 676 0024 3246     		mov	r2, r6
 677 0026 2944     		add	r1, r1, r5
 678 0028 2046     		mov	r0, r4
 679 002a FFF7FEFF 		bl	prvInsertTimerInActiveList
 680              	.LVL78:
 681 002e 58B1     		cbz	r0, .L59
 531:..\..\..\..\..\..\FreeRTOS\FreeRTOS\FreeRTOS\Source/timers.c ****                 configASSERT( xResult );
 682              		.loc 1 531 0
 683 0030 0021     		movs	r1, #0
 684 0032 0091     		str	r1, [sp]
 685 0034 0B46     		mov	r3, r1
 686 0036 2A46     		mov	r2, r5
 687 0038 2046     		mov	r0, r4
 688 003a FFF7FEFF 		bl	xTimerGenericCommand
 689              	.LVL79:
 690 003e 03E0     		b	.L59
 691              	.L58:
 542:..\..\..\..\..\..\FreeRTOS\FreeRTOS\FreeRTOS\Source/timers.c ****             mtCOVERAGE_TEST_MARKER();
 692              		.loc 1 542 0
 693 0040 23F00103 		bic	r3, r3, #1
 694 0044 84F82430 		strb	r3, [r4, #36]
 695              	.L59:
 547:..\..\..\..\..\..\FreeRTOS\FreeRTOS\FreeRTOS\Source/timers.c ****     }
 696              		.loc 1 547 0
ARM GAS  C:\Users\u0036181\AppData\Local\Temp\cch2Rq0R.s 			page 32


 697 0048 236A     		ldr	r3, [r4, #32]
 698 004a 2046     		mov	r0, r4
 699 004c 9847     		blx	r3
 700              	.LVL80:
 548:..\..\..\..\..\..\FreeRTOS\FreeRTOS\FreeRTOS\Source/timers.c **** /*-----------------------------------------------------------*/
 701              		.loc 1 548 0
 702 004e 02B0     		add	sp, sp, #8
 703              		.cfi_def_cfa_offset 16
 704              		@ sp needed
 705 0050 70BD     		pop	{r4, r5, r6, pc}
 706              	.LVL81:
 707              	.L62:
 708 0052 00BF     		.align	2
 709              	.L61:
 710 0054 00000000 		.word	.LANCHOR0
 711              		.cfi_endproc
 712              	.LFE14:
 713              		.size	prvProcessExpiredTimer, .-prvProcessExpiredTimer
 714              		.section	.text.prvProcessTimerOrBlockTask,"ax",%progbits
 715              		.align	2
 716              		.thumb
 717              		.thumb_func
 718              		.type	prvProcessTimerOrBlockTask, %function
 719              	prvProcessTimerOrBlockTask:
 720              	.LFB16:
 589:..\..\..\..\..\..\FreeRTOS\FreeRTOS\FreeRTOS\Source/timers.c ****         TickType_t xTimeNow;
 721              		.loc 1 589 0
 722              		.cfi_startproc
 723              		@ args = 0, pretend = 0, frame = 8
 724              		@ frame_needed = 0, uses_anonymous_args = 0
 725              	.LVL82:
 726 0000 70B5     		push	{r4, r5, r6, lr}
 727              		.cfi_def_cfa_offset 16
 728              		.cfi_offset 4, -16
 729              		.cfi_offset 5, -12
 730              		.cfi_offset 6, -8
 731              		.cfi_offset 14, -4
 732 0002 82B0     		sub	sp, sp, #8
 733              		.cfi_def_cfa_offset 24
 734 0004 0646     		mov	r6, r0
 735 0006 0C46     		mov	r4, r1
 593:..\..\..\..\..\..\FreeRTOS\FreeRTOS\FreeRTOS\Source/timers.c ****         {
 736              		.loc 1 593 0
 737 0008 FFF7FEFF 		bl	vTaskSuspendAll
 738              	.LVL83:
 600:..\..\..\..\..\..\FreeRTOS\FreeRTOS\FreeRTOS\Source/timers.c **** 
 739              		.loc 1 600 0
 740 000c 01A8     		add	r0, sp, #4
 741 000e FFF7FEFF 		bl	prvSampleTimeNow
 742              	.LVL84:
 602:..\..\..\..\..\..\FreeRTOS\FreeRTOS\FreeRTOS\Source/timers.c ****             {
 743              		.loc 1 602 0
 744 0012 019B     		ldr	r3, [sp, #4]
 745 0014 23BB     		cbnz	r3, .L64
 746 0016 0546     		mov	r5, r0
 605:..\..\..\..\..\..\FreeRTOS\FreeRTOS\FreeRTOS\Source/timers.c ****                 {
 747              		.loc 1 605 0
ARM GAS  C:\Users\u0036181\AppData\Local\Temp\cch2Rq0R.s 			page 33


 748 0018 44B9     		cbnz	r4, .L65
 605:..\..\..\..\..\..\FreeRTOS\FreeRTOS\FreeRTOS\Source/timers.c ****                 {
 749              		.loc 1 605 0 is_stmt 0 discriminator 1
 750 001a B042     		cmp	r0, r6
 751 001c 06D3     		bcc	.L65
 607:..\..\..\..\..\..\FreeRTOS\FreeRTOS\FreeRTOS\Source/timers.c ****                     prvProcessExpiredTimer( xNextExpireTime, xTimeNow );
 752              		.loc 1 607 0 is_stmt 1
 753 001e FFF7FEFF 		bl	xTaskResumeAll
 754              	.LVL85:
 608:..\..\..\..\..\..\FreeRTOS\FreeRTOS\FreeRTOS\Source/timers.c ****                 }
 755              		.loc 1 608 0
 756 0022 2946     		mov	r1, r5
 757 0024 3046     		mov	r0, r6
 758 0026 FFF7FEFF 		bl	prvProcessExpiredTimer
 759              	.LVL86:
 760 002a 1BE0     		b	.L63
 761              	.LVL87:
 762              	.L65:
 618:..\..\..\..\..\..\FreeRTOS\FreeRTOS\FreeRTOS\Source/timers.c ****                     {
 763              		.loc 1 618 0
 764 002c 34B1     		cbz	r4, .L67
 622:..\..\..\..\..\..\FreeRTOS\FreeRTOS\FreeRTOS\Source/timers.c ****                     }
 765              		.loc 1 622 0
 766 002e 0E4B     		ldr	r3, .L70
 767 0030 5B68     		ldr	r3, [r3, #4]
 768 0032 1B68     		ldr	r3, [r3]
 769 0034 0BB9     		cbnz	r3, .L68
 770 0036 0124     		movs	r4, #1
 771              	.LVL88:
 772 0038 00E0     		b	.L67
 773              	.LVL89:
 774              	.L68:
 775 003a 0024     		movs	r4, #0
 776              	.LVL90:
 777              	.L67:
 625:..\..\..\..\..\..\FreeRTOS\FreeRTOS\FreeRTOS\Source/timers.c **** 
 778              		.loc 1 625 0
 779 003c 2246     		mov	r2, r4
 780 003e 711B     		subs	r1, r6, r5
 781 0040 094B     		ldr	r3, .L70
 782 0042 9868     		ldr	r0, [r3, #8]
 783              	.LVL91:
 784 0044 FFF7FEFF 		bl	vQueueWaitForMessageRestricted
 785              	.LVL92:
 627:..\..\..\..\..\..\FreeRTOS\FreeRTOS\FreeRTOS\Source/timers.c ****                     {
 786              		.loc 1 627 0
 787 0048 FFF7FEFF 		bl	xTaskResumeAll
 788              	.LVL93:
 789 004c 50B9     		cbnz	r0, .L63
 633:..\..\..\..\..\..\FreeRTOS\FreeRTOS\FreeRTOS\Source/timers.c ****                     }
 790              		.loc 1 633 0
 791 004e 4FF08052 		mov	r2, #268435456
 792 0052 064B     		ldr	r3, .L70+4
 793 0054 1A60     		str	r2, [r3]
 794              		.syntax unified
 795              	@ 633 "..\..\..\..\..\..\FreeRTOS\FreeRTOS\FreeRTOS\Source\timers.c" 1
 796 0056 BFF34F8F 		dsb
ARM GAS  C:\Users\u0036181\AppData\Local\Temp\cch2Rq0R.s 			page 34


 797              	@ 0 "" 2
 798              	@ 633 "..\..\..\..\..\..\FreeRTOS\FreeRTOS\FreeRTOS\Source\timers.c" 1
 799 005a BFF36F8F 		isb
 800              	@ 0 "" 2
 801              		.thumb
 802              		.syntax unified
 803 005e 01E0     		b	.L63
 804              	.LVL94:
 805              	.L64:
 643:..\..\..\..\..\..\FreeRTOS\FreeRTOS\FreeRTOS\Source/timers.c ****             }
 806              		.loc 1 643 0
 807 0060 FFF7FEFF 		bl	xTaskResumeAll
 808              	.LVL95:
 809              	.L63:
 646:..\..\..\..\..\..\FreeRTOS\FreeRTOS\FreeRTOS\Source/timers.c **** /*-----------------------------------------------------------*/
 810              		.loc 1 646 0
 811 0064 02B0     		add	sp, sp, #8
 812              		.cfi_def_cfa_offset 16
 813              		@ sp needed
 814 0066 70BD     		pop	{r4, r5, r6, pc}
 815              	.LVL96:
 816              	.L71:
 817              		.align	2
 818              	.L70:
 819 0068 00000000 		.word	.LANCHOR0
 820 006c 04ED00E0 		.word	-536810236
 821              		.cfi_endproc
 822              	.LFE16:
 823              		.size	prvProcessTimerOrBlockTask, .-prvProcessTimerOrBlockTask
 824              		.section	.text.prvProcessReceivedCommands,"ax",%progbits
 825              		.align	2
 826              		.thumb
 827              		.thumb_func
 828              		.type	prvProcessReceivedCommands, %function
 829              	prvProcessReceivedCommands:
 830              	.LFB20:
 744:..\..\..\..\..\..\FreeRTOS\FreeRTOS\FreeRTOS\Source/timers.c ****         DaemonTaskMessage_t xMessage;
 831              		.loc 1 744 0
 832              		.cfi_startproc
 833              		@ args = 0, pretend = 0, frame = 16
 834              		@ frame_needed = 0, uses_anonymous_args = 0
 835 0000 30B5     		push	{r4, r5, lr}
 836              		.cfi_def_cfa_offset 12
 837              		.cfi_offset 4, -12
 838              		.cfi_offset 5, -8
 839              		.cfi_offset 14, -4
 840 0002 87B0     		sub	sp, sp, #28
 841              		.cfi_def_cfa_offset 40
 750:..\..\..\..\..\..\FreeRTOS\FreeRTOS\FreeRTOS\Source/timers.c ****         {
 842              		.loc 1 750 0
 843 0004 59E0     		b	.L74
 844              	.L84:
 776:..\..\..\..\..\..\FreeRTOS\FreeRTOS\FreeRTOS\Source/timers.c ****             {
 845              		.loc 1 776 0
 846 0006 039B     		ldr	r3, [sp, #12]
 847 0008 002B     		cmp	r3, #0
 848 000a 56DB     		blt	.L74
ARM GAS  C:\Users\u0036181\AppData\Local\Temp\cch2Rq0R.s 			page 35


 780:..\..\..\..\..\..\FreeRTOS\FreeRTOS\FreeRTOS\Source/timers.c **** 
 849              		.loc 1 780 0
 850 000c 059C     		ldr	r4, [sp, #20]
 851              	.LVL97:
 782:..\..\..\..\..\..\FreeRTOS\FreeRTOS\FreeRTOS\Source/timers.c ****                 {
 852              		.loc 1 782 0
 853 000e 6369     		ldr	r3, [r4, #20]
 854 0010 13B1     		cbz	r3, .L75
 785:..\..\..\..\..\..\FreeRTOS\FreeRTOS\FreeRTOS\Source/timers.c ****                 }
 855              		.loc 1 785 0
 856 0012 201D     		adds	r0, r4, #4
 857 0014 FFF7FEFF 		bl	uxListRemove
 858              	.LVL98:
 859              	.L75:
 800:..\..\..\..\..\..\FreeRTOS\FreeRTOS\FreeRTOS\Source/timers.c **** 
 860              		.loc 1 800 0
 861 0018 02A8     		add	r0, sp, #8
 862 001a FFF7FEFF 		bl	prvSampleTimeNow
 863              	.LVL99:
 802:..\..\..\..\..\..\FreeRTOS\FreeRTOS\FreeRTOS\Source/timers.c ****                 {
 864              		.loc 1 802 0
 865 001e 039B     		ldr	r3, [sp, #12]
 866 0020 092B     		cmp	r3, #9
 867 0022 4AD8     		bhi	.L74
 868 0024 DFE803F0 		tbb	[pc, r3]
 869              	.L78:
 870 0028 05       		.byte	(.L77-.L78)/2
 871 0029 05       		.byte	(.L77-.L78)/2
 872 002a 05       		.byte	(.L77-.L78)/2
 873 002b 26       		.byte	(.L79-.L78)/2
 874 002c 2D       		.byte	(.L80-.L78)/2
 875 002d 3C       		.byte	(.L81-.L78)/2
 876 002e 05       		.byte	(.L77-.L78)/2
 877 002f 05       		.byte	(.L77-.L78)/2
 878 0030 26       		.byte	(.L79-.L78)/2
 879 0031 2D       		.byte	(.L80-.L78)/2
 880              		.p2align 1
 881              	.L77:
 810:..\..\..\..\..\..\FreeRTOS\FreeRTOS\FreeRTOS\Source/timers.c **** 
 882              		.loc 1 810 0
 883 0032 94F82430 		ldrb	r3, [r4, #36]	@ zero_extendqisi2
 884 0036 43F00103 		orr	r3, r3, #1
 885 003a 84F82430 		strb	r3, [r4, #36]
 812:..\..\..\..\..\..\FreeRTOS\FreeRTOS\FreeRTOS\Source/timers.c ****                         {
 886              		.loc 1 812 0
 887 003e 0499     		ldr	r1, [sp, #16]
 888 0040 A569     		ldr	r5, [r4, #24]
 889 0042 0B46     		mov	r3, r1
 890 0044 0246     		mov	r2, r0
 891 0046 2944     		add	r1, r1, r5
 892 0048 2046     		mov	r0, r4
 893              	.LVL100:
 894 004a FFF7FEFF 		bl	prvInsertTimerInActiveList
 895              	.LVL101:
 896 004e A0B3     		cbz	r0, .L74
 816:..\..\..\..\..\..\FreeRTOS\FreeRTOS\FreeRTOS\Source/timers.c ****                             traceTIMER_EXPIRED( pxTimer );
 897              		.loc 1 816 0
ARM GAS  C:\Users\u0036181\AppData\Local\Temp\cch2Rq0R.s 			page 36


 898 0050 236A     		ldr	r3, [r4, #32]
 899 0052 2046     		mov	r0, r4
 900 0054 9847     		blx	r3
 901              	.LVL102:
 819:..\..\..\..\..\..\FreeRTOS\FreeRTOS\FreeRTOS\Source/timers.c ****                             {
 902              		.loc 1 819 0
 903 0056 94F82430 		ldrb	r3, [r4, #36]	@ zero_extendqisi2
 904 005a 13F0040F 		tst	r3, #4
 905 005e 2CD0     		beq	.L74
 821:..\..\..\..\..\..\FreeRTOS\FreeRTOS\FreeRTOS\Source/timers.c ****                                 configASSERT( xResult );
 906              		.loc 1 821 0
 907 0060 A269     		ldr	r2, [r4, #24]
 908 0062 0021     		movs	r1, #0
 909 0064 0091     		str	r1, [sp]
 910 0066 0B46     		mov	r3, r1
 911 0068 0498     		ldr	r0, [sp, #16]
 912 006a 0244     		add	r2, r2, r0
 913 006c 2046     		mov	r0, r4
 914 006e FFF7FEFF 		bl	xTimerGenericCommand
 915              	.LVL103:
 916 0072 22E0     		b	.L74
 917              	.LVL104:
 918              	.L79:
 840:..\..\..\..\..\..\FreeRTOS\FreeRTOS\FreeRTOS\Source/timers.c ****                         break;
 919              		.loc 1 840 0
 920 0074 94F82430 		ldrb	r3, [r4, #36]	@ zero_extendqisi2
 921 0078 23F00103 		bic	r3, r3, #1
 922 007c 84F82430 		strb	r3, [r4, #36]
 841:..\..\..\..\..\..\FreeRTOS\FreeRTOS\FreeRTOS\Source/timers.c **** 
 923              		.loc 1 841 0
 924 0080 1BE0     		b	.L74
 925              	.L80:
 845:..\..\..\..\..\..\FreeRTOS\FreeRTOS\FreeRTOS\Source/timers.c ****                         pxTimer->xTimerPeriodInTicks = xMessage.u.xTimerParameters.xMessageValue;
 926              		.loc 1 845 0
 927 0082 94F82430 		ldrb	r3, [r4, #36]	@ zero_extendqisi2
 928 0086 43F00103 		orr	r3, r3, #1
 929 008a 84F82430 		strb	r3, [r4, #36]
 846:..\..\..\..\..\..\FreeRTOS\FreeRTOS\FreeRTOS\Source/timers.c ****                         configASSERT( ( pxTimer->xTimerPeriodInTicks > 0 ) );
 930              		.loc 1 846 0
 931 008e 0499     		ldr	r1, [sp, #16]
 932 0090 A161     		str	r1, [r4, #24]
 855:..\..\..\..\..\..\FreeRTOS\FreeRTOS\FreeRTOS\Source/timers.c ****                         break;
 933              		.loc 1 855 0
 934 0092 0346     		mov	r3, r0
 935 0094 0246     		mov	r2, r0
 936 0096 0144     		add	r1, r1, r0
 937 0098 2046     		mov	r0, r4
 938              	.LVL105:
 939 009a FFF7FEFF 		bl	prvInsertTimerInActiveList
 940              	.LVL106:
 856:..\..\..\..\..\..\FreeRTOS\FreeRTOS\FreeRTOS\Source/timers.c **** 
 941              		.loc 1 856 0
 942 009e 0CE0     		b	.L74
 943              	.LVL107:
 944              	.L81:
 864:..\..\..\..\..\..\FreeRTOS\FreeRTOS\FreeRTOS\Source/timers.c ****                                 {
 945              		.loc 1 864 0
ARM GAS  C:\Users\u0036181\AppData\Local\Temp\cch2Rq0R.s 			page 37


 946 00a0 94F82430 		ldrb	r3, [r4, #36]	@ zero_extendqisi2
 947 00a4 13F0020F 		tst	r3, #2
 948 00a8 03D1     		bne	.L83
 866:..\..\..\..\..\..\FreeRTOS\FreeRTOS\FreeRTOS\Source/timers.c ****                                 }
 949              		.loc 1 866 0
 950 00aa 2046     		mov	r0, r4
 951              	.LVL108:
 952 00ac FFF7FEFF 		bl	vPortFree
 953              	.LVL109:
 954 00b0 03E0     		b	.L74
 955              	.LVL110:
 956              	.L83:
 870:..\..\..\..\..\..\FreeRTOS\FreeRTOS\FreeRTOS\Source/timers.c ****                                 }
 957              		.loc 1 870 0
 958 00b2 23F00103 		bic	r3, r3, #1
 959 00b6 84F82430 		strb	r3, [r4, #36]
 960              	.LVL111:
 961              	.L74:
 750:..\..\..\..\..\..\FreeRTOS\FreeRTOS\FreeRTOS\Source/timers.c ****         {
 962              		.loc 1 750 0
 963 00ba 0022     		movs	r2, #0
 964 00bc 03A9     		add	r1, sp, #12
 965 00be 044B     		ldr	r3, .L86
 966 00c0 9868     		ldr	r0, [r3, #8]
 967 00c2 FFF7FEFF 		bl	xQueueReceive
 968              	.LVL112:
 969 00c6 0028     		cmp	r0, #0
 970 00c8 9DD1     		bne	.L84
 890:..\..\..\..\..\..\FreeRTOS\FreeRTOS\FreeRTOS\Source/timers.c **** /*-----------------------------------------------------------*/
 971              		.loc 1 890 0
 972 00ca 07B0     		add	sp, sp, #28
 973              		.cfi_def_cfa_offset 12
 974              		@ sp needed
 975 00cc 30BD     		pop	{r4, r5, pc}
 976              	.L87:
 977 00ce 00BF     		.align	2
 978              	.L86:
 979 00d0 00000000 		.word	.LANCHOR0
 980              		.cfi_endproc
 981              	.LFE20:
 982              		.size	prvProcessReceivedCommands, .-prvProcessReceivedCommands
 983              		.section	.text.prvTimerTask,"ax",%progbits
 984              		.align	2
 985              		.thumb
 986              		.thumb_func
 987              		.type	prvTimerTask, %function
 988              	prvTimerTask:
 989              	.LFB15:
 552:..\..\..\..\..\..\FreeRTOS\FreeRTOS\FreeRTOS\Source/timers.c ****         TickType_t xNextExpireTime;
 990              		.loc 1 552 0
 991              		.cfi_startproc
 992              		@ args = 0, pretend = 0, frame = 8
 993              		@ frame_needed = 0, uses_anonymous_args = 0
 994              	.LVL113:
 995 0000 00B5     		push	{lr}
 996              		.cfi_def_cfa_offset 4
 997              		.cfi_offset 14, -4
ARM GAS  C:\Users\u0036181\AppData\Local\Temp\cch2Rq0R.s 			page 38


 998 0002 83B0     		sub	sp, sp, #12
 999              		.cfi_def_cfa_offset 16
 1000              	.LVL114:
 1001              	.L89:
 575:..\..\..\..\..\..\FreeRTOS\FreeRTOS\FreeRTOS\Source/timers.c **** 
 1002              		.loc 1 575 0 discriminator 1
 1003 0004 01A8     		add	r0, sp, #4
 1004 0006 FFF7FEFF 		bl	prvGetNextExpireTime
 1005              	.LVL115:
 579:..\..\..\..\..\..\FreeRTOS\FreeRTOS\FreeRTOS\Source/timers.c **** 
 1006              		.loc 1 579 0 discriminator 1
 1007 000a 0199     		ldr	r1, [sp, #4]
 1008 000c FFF7FEFF 		bl	prvProcessTimerOrBlockTask
 1009              	.LVL116:
 582:..\..\..\..\..\..\FreeRTOS\FreeRTOS\FreeRTOS\Source/timers.c ****         }
 1010              		.loc 1 582 0 discriminator 1
 1011 0010 FFF7FEFF 		bl	prvProcessReceivedCommands
 1012              	.LVL117:
 1013 0014 F6E7     		b	.L89
 1014              		.cfi_endproc
 1015              	.LFE15:
 1016              		.size	prvTimerTask, .-prvTimerTask
 1017 0016 00BF     		.section	.text.xTimerGetTimerDaemonTaskHandle,"ax",%progbits
 1018              		.align	2
 1019              		.global	xTimerGetTimerDaemonTaskHandle
 1020              		.thumb
 1021              		.thumb_func
 1022              		.type	xTimerGetTimerDaemonTaskHandle, %function
 1023              	xTimerGetTimerDaemonTaskHandle:
 1024              	.LFB8:
 425:..\..\..\..\..\..\FreeRTOS\FreeRTOS\FreeRTOS\Source/timers.c ****         /* If xTimerGetTimerDaemonTaskHandle() is called before the scheduler has been
 1025              		.loc 1 425 0
 1026              		.cfi_startproc
 1027              		@ args = 0, pretend = 0, frame = 0
 1028              		@ frame_needed = 0, uses_anonymous_args = 0
 1029              		@ link register save eliminated.
 430:..\..\..\..\..\..\FreeRTOS\FreeRTOS\FreeRTOS\Source/timers.c **** /*-----------------------------------------------------------*/
 1030              		.loc 1 430 0
 1031 0000 014B     		ldr	r3, .L92
 1032 0002 586B     		ldr	r0, [r3, #52]
 1033 0004 7047     		bx	lr
 1034              	.L93:
 1035 0006 00BF     		.align	2
 1036              	.L92:
 1037 0008 00000000 		.word	.LANCHOR0
 1038              		.cfi_endproc
 1039              	.LFE8:
 1040              		.size	xTimerGetTimerDaemonTaskHandle, .-xTimerGetTimerDaemonTaskHandle
 1041              		.section	.text.xTimerGetPeriod,"ax",%progbits
 1042              		.align	2
 1043              		.global	xTimerGetPeriod
 1044              		.thumb
 1045              		.thumb_func
 1046              		.type	xTimerGetPeriod, %function
 1047              	xTimerGetPeriod:
 1048              	.LFB9:
 434:..\..\..\..\..\..\FreeRTOS\FreeRTOS\FreeRTOS\Source/timers.c ****         Timer_t * pxTimer = xTimer;
ARM GAS  C:\Users\u0036181\AppData\Local\Temp\cch2Rq0R.s 			page 39


 1049              		.loc 1 434 0
 1050              		.cfi_startproc
 1051              		@ args = 0, pretend = 0, frame = 0
 1052              		@ frame_needed = 0, uses_anonymous_args = 0
 1053              		@ link register save eliminated.
 1054              	.LVL118:
 439:..\..\..\..\..\..\FreeRTOS\FreeRTOS\FreeRTOS\Source/timers.c **** /*-----------------------------------------------------------*/
 1055              		.loc 1 439 0
 1056 0000 8069     		ldr	r0, [r0, #24]
 1057              	.LVL119:
 1058 0002 7047     		bx	lr
 1059              		.cfi_endproc
 1060              	.LFE9:
 1061              		.size	xTimerGetPeriod, .-xTimerGetPeriod
 1062              		.section	.text.vTimerSetReloadMode,"ax",%progbits
 1063              		.align	2
 1064              		.global	vTimerSetReloadMode
 1065              		.thumb
 1066              		.thumb_func
 1067              		.type	vTimerSetReloadMode, %function
 1068              	vTimerSetReloadMode:
 1069              	.LFB10:
 444:..\..\..\..\..\..\FreeRTOS\FreeRTOS\FreeRTOS\Source/timers.c ****         Timer_t * pxTimer = xTimer;
 1070              		.loc 1 444 0
 1071              		.cfi_startproc
 1072              		@ args = 0, pretend = 0, frame = 0
 1073              		@ frame_needed = 0, uses_anonymous_args = 0
 1074              	.LVL120:
 1075 0000 38B5     		push	{r3, r4, r5, lr}
 1076              		.cfi_def_cfa_offset 16
 1077              		.cfi_offset 3, -16
 1078              		.cfi_offset 4, -12
 1079              		.cfi_offset 5, -8
 1080              		.cfi_offset 14, -4
 1081 0002 0446     		mov	r4, r0
 1082 0004 0D46     		mov	r5, r1
 1083              	.LVL121:
 448:..\..\..\..\..\..\FreeRTOS\FreeRTOS\FreeRTOS\Source/timers.c ****         {
 1084              		.loc 1 448 0
 1085 0006 FFF7FEFF 		bl	vPortEnterCritical
 1086              	.LVL122:
 450:..\..\..\..\..\..\FreeRTOS\FreeRTOS\FreeRTOS\Source/timers.c ****             {
 1087              		.loc 1 450 0
 1088 000a 35B1     		cbz	r5, .L96
 452:..\..\..\..\..\..\FreeRTOS\FreeRTOS\FreeRTOS\Source/timers.c ****             }
 1089              		.loc 1 452 0
 1090 000c 94F82430 		ldrb	r3, [r4, #36]	@ zero_extendqisi2
 1091 0010 43F00403 		orr	r3, r3, #4
 1092 0014 84F82430 		strb	r3, [r4, #36]
 1093 0018 05E0     		b	.L97
 1094              	.L96:
 456:..\..\..\..\..\..\FreeRTOS\FreeRTOS\FreeRTOS\Source/timers.c ****             }
 1095              		.loc 1 456 0
 1096 001a 94F82430 		ldrb	r3, [r4, #36]	@ zero_extendqisi2
 1097 001e 23F00403 		bic	r3, r3, #4
 1098 0022 84F82430 		strb	r3, [r4, #36]
 1099              	.L97:
ARM GAS  C:\Users\u0036181\AppData\Local\Temp\cch2Rq0R.s 			page 40


 459:..\..\..\..\..\..\FreeRTOS\FreeRTOS\FreeRTOS\Source/timers.c ****     }
 1100              		.loc 1 459 0
 1101 0026 FFF7FEFF 		bl	vPortExitCritical
 1102              	.LVL123:
 1103 002a 38BD     		pop	{r3, r4, r5, pc}
 1104              		.cfi_endproc
 1105              	.LFE10:
 1106              		.size	vTimerSetReloadMode, .-vTimerSetReloadMode
 1107              		.section	.text.uxTimerGetReloadMode,"ax",%progbits
 1108              		.align	2
 1109              		.global	uxTimerGetReloadMode
 1110              		.thumb
 1111              		.thumb_func
 1112              		.type	uxTimerGetReloadMode, %function
 1113              	uxTimerGetReloadMode:
 1114              	.LFB11:
 464:..\..\..\..\..\..\FreeRTOS\FreeRTOS\FreeRTOS\Source/timers.c ****         Timer_t * pxTimer = xTimer;
 1115              		.loc 1 464 0
 1116              		.cfi_startproc
 1117              		@ args = 0, pretend = 0, frame = 0
 1118              		@ frame_needed = 0, uses_anonymous_args = 0
 1119              	.LVL124:
 1120 0000 10B5     		push	{r4, lr}
 1121              		.cfi_def_cfa_offset 8
 1122              		.cfi_offset 4, -8
 1123              		.cfi_offset 14, -4
 1124 0002 0446     		mov	r4, r0
 1125              	.LVL125:
 469:..\..\..\..\..\..\FreeRTOS\FreeRTOS\FreeRTOS\Source/timers.c ****         {
 1126              		.loc 1 469 0
 1127 0004 FFF7FEFF 		bl	vPortEnterCritical
 1128              	.LVL126:
 471:..\..\..\..\..\..\FreeRTOS\FreeRTOS\FreeRTOS\Source/timers.c ****             {
 1129              		.loc 1 471 0
 1130 0008 94F82430 		ldrb	r3, [r4, #36]	@ zero_extendqisi2
 1131 000c 13F0040F 		tst	r3, #4
 1132 0010 01D1     		bne	.L101
 474:..\..\..\..\..\..\FreeRTOS\FreeRTOS\FreeRTOS\Source/timers.c ****             }
 1133              		.loc 1 474 0
 1134 0012 0024     		movs	r4, #0
 1135              	.LVL127:
 1136 0014 00E0     		b	.L100
 1137              	.LVL128:
 1138              	.L101:
 479:..\..\..\..\..\..\FreeRTOS\FreeRTOS\FreeRTOS\Source/timers.c ****             }
 1139              		.loc 1 479 0
 1140 0016 0124     		movs	r4, #1
 1141              	.LVL129:
 1142              	.L100:
 482:..\..\..\..\..\..\FreeRTOS\FreeRTOS\FreeRTOS\Source/timers.c **** 
 1143              		.loc 1 482 0
 1144 0018 FFF7FEFF 		bl	vPortExitCritical
 1145              	.LVL130:
 485:..\..\..\..\..\..\FreeRTOS\FreeRTOS\FreeRTOS\Source/timers.c **** /*-----------------------------------------------------------*/
 1146              		.loc 1 485 0
 1147 001c 2046     		mov	r0, r4
 1148 001e 10BD     		pop	{r4, pc}
ARM GAS  C:\Users\u0036181\AppData\Local\Temp\cch2Rq0R.s 			page 41


 1149              		.cfi_endproc
 1150              	.LFE11:
 1151              		.size	uxTimerGetReloadMode, .-uxTimerGetReloadMode
 1152              		.section	.text.xTimerGetExpiryTime,"ax",%progbits
 1153              		.align	2
 1154              		.global	xTimerGetExpiryTime
 1155              		.thumb
 1156              		.thumb_func
 1157              		.type	xTimerGetExpiryTime, %function
 1158              	xTimerGetExpiryTime:
 1159              	.LFB12:
 489:..\..\..\..\..\..\FreeRTOS\FreeRTOS\FreeRTOS\Source/timers.c ****         Timer_t * pxTimer = xTimer;
 1160              		.loc 1 489 0
 1161              		.cfi_startproc
 1162              		@ args = 0, pretend = 0, frame = 0
 1163              		@ frame_needed = 0, uses_anonymous_args = 0
 1164              		@ link register save eliminated.
 1165              	.LVL131:
 496:..\..\..\..\..\..\FreeRTOS\FreeRTOS\FreeRTOS\Source/timers.c **** /*-----------------------------------------------------------*/
 1166              		.loc 1 496 0
 1167 0000 4068     		ldr	r0, [r0, #4]
 1168              	.LVL132:
 1169 0002 7047     		bx	lr
 1170              		.cfi_endproc
 1171              	.LFE12:
 1172              		.size	xTimerGetExpiryTime, .-xTimerGetExpiryTime
 1173              		.section	.text.pcTimerGetName,"ax",%progbits
 1174              		.align	2
 1175              		.global	pcTimerGetName
 1176              		.thumb
 1177              		.thumb_func
 1178              		.type	pcTimerGetName, %function
 1179              	pcTimerGetName:
 1180              	.LFB13:
 500:..\..\..\..\..\..\FreeRTOS\FreeRTOS\FreeRTOS\Source/timers.c ****         Timer_t * pxTimer = xTimer;
 1181              		.loc 1 500 0
 1182              		.cfi_startproc
 1183              		@ args = 0, pretend = 0, frame = 0
 1184              		@ frame_needed = 0, uses_anonymous_args = 0
 1185              		@ link register save eliminated.
 1186              	.LVL133:
 505:..\..\..\..\..\..\FreeRTOS\FreeRTOS\FreeRTOS\Source/timers.c **** /*-----------------------------------------------------------*/
 1187              		.loc 1 505 0
 1188 0000 0068     		ldr	r0, [r0]
 1189              	.LVL134:
 1190 0002 7047     		bx	lr
 1191              		.cfi_endproc
 1192              	.LFE13:
 1193              		.size	pcTimerGetName, .-pcTimerGetName
 1194              		.section	.text.xTimerIsTimerActive,"ax",%progbits
 1195              		.align	2
 1196              		.global	xTimerIsTimerActive
 1197              		.thumb
 1198              		.thumb_func
 1199              		.type	xTimerIsTimerActive, %function
 1200              	xTimerIsTimerActive:
 1201              	.LFB23:
ARM GAS  C:\Users\u0036181\AppData\Local\Temp\cch2Rq0R.s 			page 42


1001:..\..\..\..\..\..\FreeRTOS\FreeRTOS\FreeRTOS\Source/timers.c ****     }
1002:..\..\..\..\..\..\FreeRTOS\FreeRTOS\FreeRTOS\Source/timers.c **** /*-----------------------------------------------------------*/
1003:..\..\..\..\..\..\FreeRTOS\FreeRTOS\FreeRTOS\Source/timers.c **** 
1004:..\..\..\..\..\..\FreeRTOS\FreeRTOS\FreeRTOS\Source/timers.c ****     BaseType_t xTimerIsTimerActive( TimerHandle_t xTimer )
1005:..\..\..\..\..\..\FreeRTOS\FreeRTOS\FreeRTOS\Source/timers.c ****     {
 1202              		.loc 1 1005 0
 1203              		.cfi_startproc
 1204              		@ args = 0, pretend = 0, frame = 0
 1205              		@ frame_needed = 0, uses_anonymous_args = 0
 1206              	.LVL135:
 1207 0000 10B5     		push	{r4, lr}
 1208              		.cfi_def_cfa_offset 8
 1209              		.cfi_offset 4, -8
 1210              		.cfi_offset 14, -4
 1211 0002 0446     		mov	r4, r0
 1212              	.LVL136:
1006:..\..\..\..\..\..\FreeRTOS\FreeRTOS\FreeRTOS\Source/timers.c ****         BaseType_t xReturn;
1007:..\..\..\..\..\..\FreeRTOS\FreeRTOS\FreeRTOS\Source/timers.c ****         Timer_t * pxTimer = xTimer;
1008:..\..\..\..\..\..\FreeRTOS\FreeRTOS\FreeRTOS\Source/timers.c **** 
1009:..\..\..\..\..\..\FreeRTOS\FreeRTOS\FreeRTOS\Source/timers.c ****         configASSERT( xTimer );
1010:..\..\..\..\..\..\FreeRTOS\FreeRTOS\FreeRTOS\Source/timers.c **** 
1011:..\..\..\..\..\..\FreeRTOS\FreeRTOS\FreeRTOS\Source/timers.c ****         /* Is the timer in the list of active timers? */
1012:..\..\..\..\..\..\FreeRTOS\FreeRTOS\FreeRTOS\Source/timers.c ****         taskENTER_CRITICAL();
 1213              		.loc 1 1012 0
 1214 0004 FFF7FEFF 		bl	vPortEnterCritical
 1215              	.LVL137:
1013:..\..\..\..\..\..\FreeRTOS\FreeRTOS\FreeRTOS\Source/timers.c ****         {
1014:..\..\..\..\..\..\FreeRTOS\FreeRTOS\FreeRTOS\Source/timers.c ****             if( ( pxTimer->ucStatus & tmrSTATUS_IS_ACTIVE ) == 0 )
 1216              		.loc 1 1014 0
 1217 0008 94F82430 		ldrb	r3, [r4, #36]	@ zero_extendqisi2
 1218 000c 13F0010F 		tst	r3, #1
 1219 0010 01D1     		bne	.L107
1015:..\..\..\..\..\..\FreeRTOS\FreeRTOS\FreeRTOS\Source/timers.c ****             {
1016:..\..\..\..\..\..\FreeRTOS\FreeRTOS\FreeRTOS\Source/timers.c ****                 xReturn = pdFALSE;
 1220              		.loc 1 1016 0
 1221 0012 0024     		movs	r4, #0
 1222              	.LVL138:
 1223 0014 00E0     		b	.L106
 1224              	.LVL139:
 1225              	.L107:
1017:..\..\..\..\..\..\FreeRTOS\FreeRTOS\FreeRTOS\Source/timers.c ****             }
1018:..\..\..\..\..\..\FreeRTOS\FreeRTOS\FreeRTOS\Source/timers.c ****             else
1019:..\..\..\..\..\..\FreeRTOS\FreeRTOS\FreeRTOS\Source/timers.c ****             {
1020:..\..\..\..\..\..\FreeRTOS\FreeRTOS\FreeRTOS\Source/timers.c ****                 xReturn = pdTRUE;
 1226              		.loc 1 1020 0
 1227 0016 0124     		movs	r4, #1
 1228              	.LVL140:
 1229              	.L106:
1021:..\..\..\..\..\..\FreeRTOS\FreeRTOS\FreeRTOS\Source/timers.c ****             }
1022:..\..\..\..\..\..\FreeRTOS\FreeRTOS\FreeRTOS\Source/timers.c ****         }
1023:..\..\..\..\..\..\FreeRTOS\FreeRTOS\FreeRTOS\Source/timers.c ****         taskEXIT_CRITICAL();
 1230              		.loc 1 1023 0
 1231 0018 FFF7FEFF 		bl	vPortExitCritical
 1232              	.LVL141:
1024:..\..\..\..\..\..\FreeRTOS\FreeRTOS\FreeRTOS\Source/timers.c **** 
1025:..\..\..\..\..\..\FreeRTOS\FreeRTOS\FreeRTOS\Source/timers.c ****         return xReturn;
1026:..\..\..\..\..\..\FreeRTOS\FreeRTOS\FreeRTOS\Source/timers.c ****     } /*lint !e818 Can't be pointer to const due to the typedef. */
ARM GAS  C:\Users\u0036181\AppData\Local\Temp\cch2Rq0R.s 			page 43


 1233              		.loc 1 1026 0
 1234 001c 2046     		mov	r0, r4
 1235 001e 10BD     		pop	{r4, pc}
 1236              		.cfi_endproc
 1237              	.LFE23:
 1238              		.size	xTimerIsTimerActive, .-xTimerIsTimerActive
 1239              		.section	.text.pvTimerGetTimerID,"ax",%progbits
 1240              		.align	2
 1241              		.global	pvTimerGetTimerID
 1242              		.thumb
 1243              		.thumb_func
 1244              		.type	pvTimerGetTimerID, %function
 1245              	pvTimerGetTimerID:
 1246              	.LFB24:
1027:..\..\..\..\..\..\FreeRTOS\FreeRTOS\FreeRTOS\Source/timers.c **** /*-----------------------------------------------------------*/
1028:..\..\..\..\..\..\FreeRTOS\FreeRTOS\FreeRTOS\Source/timers.c **** 
1029:..\..\..\..\..\..\FreeRTOS\FreeRTOS\FreeRTOS\Source/timers.c ****     void * pvTimerGetTimerID( const TimerHandle_t xTimer )
1030:..\..\..\..\..\..\FreeRTOS\FreeRTOS\FreeRTOS\Source/timers.c ****     {
 1247              		.loc 1 1030 0
 1248              		.cfi_startproc
 1249              		@ args = 0, pretend = 0, frame = 0
 1250              		@ frame_needed = 0, uses_anonymous_args = 0
 1251              	.LVL142:
 1252 0000 10B5     		push	{r4, lr}
 1253              		.cfi_def_cfa_offset 8
 1254              		.cfi_offset 4, -8
 1255              		.cfi_offset 14, -4
 1256 0002 0446     		mov	r4, r0
 1257              	.LVL143:
1031:..\..\..\..\..\..\FreeRTOS\FreeRTOS\FreeRTOS\Source/timers.c ****         Timer_t * const pxTimer = xTimer;
1032:..\..\..\..\..\..\FreeRTOS\FreeRTOS\FreeRTOS\Source/timers.c ****         void * pvReturn;
1033:..\..\..\..\..\..\FreeRTOS\FreeRTOS\FreeRTOS\Source/timers.c **** 
1034:..\..\..\..\..\..\FreeRTOS\FreeRTOS\FreeRTOS\Source/timers.c ****         configASSERT( xTimer );
1035:..\..\..\..\..\..\FreeRTOS\FreeRTOS\FreeRTOS\Source/timers.c **** 
1036:..\..\..\..\..\..\FreeRTOS\FreeRTOS\FreeRTOS\Source/timers.c ****         taskENTER_CRITICAL();
 1258              		.loc 1 1036 0
 1259 0004 FFF7FEFF 		bl	vPortEnterCritical
 1260              	.LVL144:
1037:..\..\..\..\..\..\FreeRTOS\FreeRTOS\FreeRTOS\Source/timers.c ****         {
1038:..\..\..\..\..\..\FreeRTOS\FreeRTOS\FreeRTOS\Source/timers.c ****             pvReturn = pxTimer->pvTimerID;
 1261              		.loc 1 1038 0
 1262 0008 E469     		ldr	r4, [r4, #28]
 1263              	.LVL145:
1039:..\..\..\..\..\..\FreeRTOS\FreeRTOS\FreeRTOS\Source/timers.c ****         }
1040:..\..\..\..\..\..\FreeRTOS\FreeRTOS\FreeRTOS\Source/timers.c ****         taskEXIT_CRITICAL();
 1264              		.loc 1 1040 0
 1265 000a FFF7FEFF 		bl	vPortExitCritical
 1266              	.LVL146:
1041:..\..\..\..\..\..\FreeRTOS\FreeRTOS\FreeRTOS\Source/timers.c **** 
1042:..\..\..\..\..\..\FreeRTOS\FreeRTOS\FreeRTOS\Source/timers.c ****         return pvReturn;
1043:..\..\..\..\..\..\FreeRTOS\FreeRTOS\FreeRTOS\Source/timers.c ****     }
 1267              		.loc 1 1043 0
 1268 000e 2046     		mov	r0, r4
 1269 0010 10BD     		pop	{r4, pc}
 1270              		.cfi_endproc
 1271              	.LFE24:
 1272              		.size	pvTimerGetTimerID, .-pvTimerGetTimerID
ARM GAS  C:\Users\u0036181\AppData\Local\Temp\cch2Rq0R.s 			page 44


 1273 0012 00BF     		.section	.text.vTimerSetTimerID,"ax",%progbits
 1274              		.align	2
 1275              		.global	vTimerSetTimerID
 1276              		.thumb
 1277              		.thumb_func
 1278              		.type	vTimerSetTimerID, %function
 1279              	vTimerSetTimerID:
 1280              	.LFB25:
1044:..\..\..\..\..\..\FreeRTOS\FreeRTOS\FreeRTOS\Source/timers.c **** /*-----------------------------------------------------------*/
1045:..\..\..\..\..\..\FreeRTOS\FreeRTOS\FreeRTOS\Source/timers.c **** 
1046:..\..\..\..\..\..\FreeRTOS\FreeRTOS\FreeRTOS\Source/timers.c ****     void vTimerSetTimerID( TimerHandle_t xTimer,
1047:..\..\..\..\..\..\FreeRTOS\FreeRTOS\FreeRTOS\Source/timers.c ****                            void * pvNewID )
1048:..\..\..\..\..\..\FreeRTOS\FreeRTOS\FreeRTOS\Source/timers.c ****     {
 1281              		.loc 1 1048 0
 1282              		.cfi_startproc
 1283              		@ args = 0, pretend = 0, frame = 0
 1284              		@ frame_needed = 0, uses_anonymous_args = 0
 1285              	.LVL147:
 1286 0000 38B5     		push	{r3, r4, r5, lr}
 1287              		.cfi_def_cfa_offset 16
 1288              		.cfi_offset 3, -16
 1289              		.cfi_offset 4, -12
 1290              		.cfi_offset 5, -8
 1291              		.cfi_offset 14, -4
 1292 0002 0446     		mov	r4, r0
 1293 0004 0D46     		mov	r5, r1
 1294              	.LVL148:
1049:..\..\..\..\..\..\FreeRTOS\FreeRTOS\FreeRTOS\Source/timers.c ****         Timer_t * const pxTimer = xTimer;
1050:..\..\..\..\..\..\FreeRTOS\FreeRTOS\FreeRTOS\Source/timers.c **** 
1051:..\..\..\..\..\..\FreeRTOS\FreeRTOS\FreeRTOS\Source/timers.c ****         configASSERT( xTimer );
1052:..\..\..\..\..\..\FreeRTOS\FreeRTOS\FreeRTOS\Source/timers.c **** 
1053:..\..\..\..\..\..\FreeRTOS\FreeRTOS\FreeRTOS\Source/timers.c ****         taskENTER_CRITICAL();
 1295              		.loc 1 1053 0
 1296 0006 FFF7FEFF 		bl	vPortEnterCritical
 1297              	.LVL149:
1054:..\..\..\..\..\..\FreeRTOS\FreeRTOS\FreeRTOS\Source/timers.c ****         {
1055:..\..\..\..\..\..\FreeRTOS\FreeRTOS\FreeRTOS\Source/timers.c ****             pxTimer->pvTimerID = pvNewID;
 1298              		.loc 1 1055 0
 1299 000a E561     		str	r5, [r4, #28]
1056:..\..\..\..\..\..\FreeRTOS\FreeRTOS\FreeRTOS\Source/timers.c ****         }
1057:..\..\..\..\..\..\FreeRTOS\FreeRTOS\FreeRTOS\Source/timers.c ****         taskEXIT_CRITICAL();
 1300              		.loc 1 1057 0
 1301 000c FFF7FEFF 		bl	vPortExitCritical
 1302              	.LVL150:
 1303 0010 38BD     		pop	{r3, r4, r5, pc}
 1304              		.cfi_endproc
 1305              	.LFE25:
 1306              		.size	vTimerSetTimerID, .-vTimerSetTimerID
 1307 0012 00BF     		.section	.rodata.str1.4,"aMS",%progbits,1
 1308              		.align	2
 1309              	.LC0:
 1310 0000 546D7251 		.ascii	"TmrQ\000"
 1310      00
 1311 0005 000000   		.space	3
 1312              	.LC1:
 1313 0008 546D7220 		.ascii	"Tmr Svc\000"
 1313      53766300 
ARM GAS  C:\Users\u0036181\AppData\Local\Temp\cch2Rq0R.s 			page 45


 1314              		.bss
 1315              		.align	2
 1316              		.set	.LANCHOR0,. + 0
 1317              		.type	pxCurrentTimerList, %object
 1318              		.size	pxCurrentTimerList, 4
 1319              	pxCurrentTimerList:
 1320 0000 00000000 		.space	4
 1321              		.type	pxOverflowTimerList, %object
 1322              		.size	pxOverflowTimerList, 4
 1323              	pxOverflowTimerList:
 1324 0004 00000000 		.space	4
 1325              		.type	xTimerQueue, %object
 1326              		.size	xTimerQueue, 4
 1327              	xTimerQueue:
 1328 0008 00000000 		.space	4
 1329              		.type	xActiveTimerList1, %object
 1330              		.size	xActiveTimerList1, 20
 1331              	xActiveTimerList1:
 1332 000c 00000000 		.space	20
 1332      00000000 
 1332      00000000 
 1332      00000000 
 1332      00000000 
 1333              		.type	xActiveTimerList2, %object
 1334              		.size	xActiveTimerList2, 20
 1335              	xActiveTimerList2:
 1336 0020 00000000 		.space	20
 1336      00000000 
 1336      00000000 
 1336      00000000 
 1336      00000000 
 1337              		.type	xTimerTaskHandle, %object
 1338              		.size	xTimerTaskHandle, 4
 1339              	xTimerTaskHandle:
 1340 0034 00000000 		.space	4
 1341              		.type	xLastTime.5488, %object
 1342              		.size	xLastTime.5488, 4
 1343              	xLastTime.5488:
 1344 0038 00000000 		.space	4
 1345              		.text
 1346              	.Letext0:
 1347              		.file 2 "c:\\program files (x86)\\cypress\\psoc creator\\4.4\\psoc creator\\import\\gnu\\arm\\5.4.
 1348              		.file 3 "c:\\program files (x86)\\cypress\\psoc creator\\4.4\\psoc creator\\import\\gnu\\arm\\5.4.
 1349              		.file 4 "C:\\FreeRTOS\\FreeRTOS\\FreeRTOS\\Source\\portable\\GCC\\ARM_CM3/portmacro.h"
 1350              		.file 5 "C:\\FreeRTOS\\FreeRTOS\\FreeRTOS\\Source\\include/list.h"
 1351              		.file 6 "C:\\FreeRTOS\\FreeRTOS\\FreeRTOS\\Source\\include/task.h"
 1352              		.file 7 "C:\\FreeRTOS\\FreeRTOS\\FreeRTOS\\Source\\include/queue.h"
 1353              		.file 8 "C:\\FreeRTOS\\FreeRTOS\\FreeRTOS\\Source\\include/timers.h"
 1354              		.file 9 "C:\\FreeRTOS\\FreeRTOS\\FreeRTOS\\Source\\include/portable.h"
 1355              		.section	.debug_info,"",%progbits
 1356              	.Ldebug_info0:
 1357 0000 210F0000 		.4byte	0xf21
 1358 0004 0400     		.2byte	0x4
 1359 0006 00000000 		.4byte	.Ldebug_abbrev0
 1360 000a 04       		.byte	0x4
 1361 000b 01       		.uleb128 0x1
 1362 000c 82020000 		.4byte	.LASF127
ARM GAS  C:\Users\u0036181\AppData\Local\Temp\cch2Rq0R.s 			page 46


 1363 0010 0C       		.byte	0xc
 1364 0011 55080000 		.4byte	.LASF128
 1365 0015 65030000 		.4byte	.LASF129
 1366 0019 00000000 		.4byte	.Ldebug_ranges0+0
 1367 001d 00000000 		.4byte	0
 1368 0021 00000000 		.4byte	.Ldebug_line0
 1369 0025 02       		.uleb128 0x2
 1370 0026 04       		.byte	0x4
 1371 0027 07       		.byte	0x7
 1372 0028 F5000000 		.4byte	.LASF0
 1373 002c 03       		.uleb128 0x3
 1374 002d 04       		.byte	0x4
 1375 002e 05       		.byte	0x5
 1376 002f 696E7400 		.ascii	"int\000"
 1377 0033 02       		.uleb128 0x2
 1378 0034 08       		.byte	0x8
 1379 0035 05       		.byte	0x5
 1380 0036 16050000 		.4byte	.LASF1
 1381 003a 02       		.uleb128 0x2
 1382 003b 08       		.byte	0x8
 1383 003c 04       		.byte	0x4
 1384 003d 94050000 		.4byte	.LASF2
 1385 0041 02       		.uleb128 0x2
 1386 0042 01       		.byte	0x1
 1387 0043 06       		.byte	0x6
 1388 0044 13080000 		.4byte	.LASF3
 1389 0048 04       		.uleb128 0x4
 1390 0049 BC060000 		.4byte	.LASF8
 1391 004d 02       		.byte	0x2
 1392 004e 1D       		.byte	0x1d
 1393 004f 53000000 		.4byte	0x53
 1394 0053 02       		.uleb128 0x2
 1395 0054 01       		.byte	0x1
 1396 0055 08       		.byte	0x8
 1397 0056 5C070000 		.4byte	.LASF4
 1398 005a 02       		.uleb128 0x2
 1399 005b 02       		.byte	0x2
 1400 005c 05       		.byte	0x5
 1401 005d 02060000 		.4byte	.LASF5
 1402 0061 02       		.uleb128 0x2
 1403 0062 02       		.byte	0x2
 1404 0063 07       		.byte	0x7
 1405 0064 2F080000 		.4byte	.LASF6
 1406 0068 02       		.uleb128 0x2
 1407 0069 04       		.byte	0x4
 1408 006a 05       		.byte	0x5
 1409 006b 4F060000 		.4byte	.LASF7
 1410 006f 04       		.uleb128 0x4
 1411 0070 78070000 		.4byte	.LASF9
 1412 0074 02       		.byte	0x2
 1413 0075 41       		.byte	0x41
 1414 0076 7A000000 		.4byte	0x7a
 1415 007a 02       		.uleb128 0x2
 1416 007b 04       		.byte	0x4
 1417 007c 07       		.byte	0x7
 1418 007d 0A070000 		.4byte	.LASF10
 1419 0081 02       		.uleb128 0x2
ARM GAS  C:\Users\u0036181\AppData\Local\Temp\cch2Rq0R.s 			page 47


 1420 0082 08       		.byte	0x8
 1421 0083 07       		.byte	0x7
 1422 0084 0C020000 		.4byte	.LASF11
 1423 0088 02       		.uleb128 0x2
 1424 0089 04       		.byte	0x4
 1425 008a 07       		.byte	0x7
 1426 008b 01070000 		.4byte	.LASF12
 1427 008f 05       		.uleb128 0x5
 1428 0090 04       		.byte	0x4
 1429 0091 02       		.uleb128 0x2
 1430 0092 01       		.byte	0x1
 1431 0093 08       		.byte	0x8
 1432 0094 3F040000 		.4byte	.LASF13
 1433 0098 06       		.uleb128 0x6
 1434 0099 04       		.byte	0x4
 1435 009a 9E000000 		.4byte	0x9e
 1436 009e 07       		.uleb128 0x7
 1437 009f 91000000 		.4byte	0x91
 1438 00a3 04       		.uleb128 0x4
 1439 00a4 BF040000 		.4byte	.LASF14
 1440 00a8 03       		.byte	0x3
 1441 00a9 18       		.byte	0x18
 1442 00aa 48000000 		.4byte	0x48
 1443 00ae 04       		.uleb128 0x4
 1444 00af B1010000 		.4byte	.LASF15
 1445 00b3 03       		.byte	0x3
 1446 00b4 30       		.byte	0x30
 1447 00b5 6F000000 		.4byte	0x6f
 1448 00b9 04       		.uleb128 0x4
 1449 00ba 2C050000 		.4byte	.LASF16
 1450 00be 04       		.byte	0x4
 1451 00bf 38       		.byte	0x38
 1452 00c0 68000000 		.4byte	0x68
 1453 00c4 04       		.uleb128 0x4
 1454 00c5 4F040000 		.4byte	.LASF17
 1455 00c9 04       		.byte	0x4
 1456 00ca 39       		.byte	0x39
 1457 00cb 7A000000 		.4byte	0x7a
 1458 00cf 04       		.uleb128 0x4
 1459 00d0 7A050000 		.4byte	.LASF18
 1460 00d4 04       		.byte	0x4
 1461 00d5 3F       		.byte	0x3f
 1462 00d6 AE000000 		.4byte	0xae
 1463 00da 08       		.uleb128 0x8
 1464 00db 16010000 		.4byte	.LASF24
 1465 00df 14       		.byte	0x14
 1466 00e0 05       		.byte	0x5
 1467 00e1 8E       		.byte	0x8e
 1468 00e2 23010000 		.4byte	0x123
 1469 00e6 09       		.uleb128 0x9
 1470 00e7 29060000 		.4byte	.LASF19
 1471 00eb 05       		.byte	0x5
 1472 00ec 91       		.byte	0x91
 1473 00ed CF000000 		.4byte	0xcf
 1474 00f1 00       		.byte	0
 1475 00f2 09       		.uleb128 0x9
 1476 00f3 5F050000 		.4byte	.LASF20
ARM GAS  C:\Users\u0036181\AppData\Local\Temp\cch2Rq0R.s 			page 48


 1477 00f7 05       		.byte	0x5
 1478 00f8 92       		.byte	0x92
 1479 00f9 23010000 		.4byte	0x123
 1480 00fd 04       		.byte	0x4
 1481 00fe 09       		.uleb128 0x9
 1482 00ff 2E020000 		.4byte	.LASF21
 1483 0103 05       		.byte	0x5
 1484 0104 93       		.byte	0x93
 1485 0105 23010000 		.4byte	0x123
 1486 0109 08       		.byte	0x8
 1487 010a 09       		.uleb128 0x9
 1488 010b DC070000 		.4byte	.LASF22
 1489 010f 05       		.byte	0x5
 1490 0110 94       		.byte	0x94
 1491 0111 8F000000 		.4byte	0x8f
 1492 0115 0C       		.byte	0xc
 1493 0116 09       		.uleb128 0x9
 1494 0117 49070000 		.4byte	.LASF23
 1495 011b 05       		.byte	0x5
 1496 011c 95       		.byte	0x95
 1497 011d 5A010000 		.4byte	0x15a
 1498 0121 10       		.byte	0x10
 1499 0122 00       		.byte	0
 1500 0123 06       		.uleb128 0x6
 1501 0124 04       		.byte	0x4
 1502 0125 DA000000 		.4byte	0xda
 1503 0129 08       		.uleb128 0x8
 1504 012a 46030000 		.4byte	.LASF25
 1505 012e 14       		.byte	0x14
 1506 012f 05       		.byte	0x5
 1507 0130 A6       		.byte	0xa6
 1508 0131 5A010000 		.4byte	0x15a
 1509 0135 09       		.uleb128 0x9
 1510 0136 30000000 		.4byte	.LASF26
 1511 013a 05       		.byte	0x5
 1512 013b A9       		.byte	0xa9
 1513 013c A7010000 		.4byte	0x1a7
 1514 0140 00       		.byte	0
 1515 0141 09       		.uleb128 0x9
 1516 0142 02010000 		.4byte	.LASF27
 1517 0146 05       		.byte	0x5
 1518 0147 AA       		.byte	0xaa
 1519 0148 AC010000 		.4byte	0x1ac
 1520 014c 04       		.byte	0x4
 1521 014d 09       		.uleb128 0x9
 1522 014e 9B040000 		.4byte	.LASF28
 1523 0152 05       		.byte	0x5
 1524 0153 AB       		.byte	0xab
 1525 0154 9C010000 		.4byte	0x19c
 1526 0158 08       		.byte	0x8
 1527 0159 00       		.byte	0
 1528 015a 06       		.uleb128 0x6
 1529 015b 04       		.byte	0x4
 1530 015c 29010000 		.4byte	0x129
 1531 0160 04       		.uleb128 0x4
 1532 0161 44040000 		.4byte	.LASF29
 1533 0165 05       		.byte	0x5
ARM GAS  C:\Users\u0036181\AppData\Local\Temp\cch2Rq0R.s 			page 49


 1534 0166 98       		.byte	0x98
 1535 0167 DA000000 		.4byte	0xda
 1536 016b 08       		.uleb128 0x8
 1537 016c 22030000 		.4byte	.LASF30
 1538 0170 0C       		.byte	0xc
 1539 0171 05       		.byte	0x5
 1540 0172 9A       		.byte	0x9a
 1541 0173 9C010000 		.4byte	0x19c
 1542 0177 09       		.uleb128 0x9
 1543 0178 29060000 		.4byte	.LASF19
 1544 017c 05       		.byte	0x5
 1545 017d 9D       		.byte	0x9d
 1546 017e CF000000 		.4byte	0xcf
 1547 0182 00       		.byte	0
 1548 0183 09       		.uleb128 0x9
 1549 0184 5F050000 		.4byte	.LASF20
 1550 0188 05       		.byte	0x5
 1551 0189 9E       		.byte	0x9e
 1552 018a 23010000 		.4byte	0x123
 1553 018e 04       		.byte	0x4
 1554 018f 09       		.uleb128 0x9
 1555 0190 2E020000 		.4byte	.LASF21
 1556 0194 05       		.byte	0x5
 1557 0195 9F       		.byte	0x9f
 1558 0196 23010000 		.4byte	0x123
 1559 019a 08       		.byte	0x8
 1560 019b 00       		.byte	0
 1561 019c 04       		.uleb128 0x4
 1562 019d A4040000 		.4byte	.LASF31
 1563 01a1 05       		.byte	0x5
 1564 01a2 A1       		.byte	0xa1
 1565 01a3 6B010000 		.4byte	0x16b
 1566 01a7 0A       		.uleb128 0xa
 1567 01a8 C4000000 		.4byte	0xc4
 1568 01ac 06       		.uleb128 0x6
 1569 01ad 04       		.byte	0x4
 1570 01ae 60010000 		.4byte	0x160
 1571 01b2 04       		.uleb128 0x4
 1572 01b3 73050000 		.4byte	.LASF32
 1573 01b7 05       		.byte	0x5
 1574 01b8 AD       		.byte	0xad
 1575 01b9 29010000 		.4byte	0x129
 1576 01bd 04       		.uleb128 0x4
 1577 01be 66050000 		.4byte	.LASF33
 1578 01c2 06       		.byte	0x6
 1579 01c3 4E       		.byte	0x4e
 1580 01c4 C8010000 		.4byte	0x1c8
 1581 01c8 06       		.uleb128 0x6
 1582 01c9 04       		.byte	0x4
 1583 01ca CE010000 		.4byte	0x1ce
 1584 01ce 0B       		.uleb128 0xb
 1585 01cf 91000000 		.4byte	.LASF35
 1586 01d3 07       		.uleb128 0x7
 1587 01d4 98000000 		.4byte	0x98
 1588 01d8 04       		.uleb128 0x4
 1589 01d9 6F040000 		.4byte	.LASF34
 1590 01dd 07       		.byte	0x7
ARM GAS  C:\Users\u0036181\AppData\Local\Temp\cch2Rq0R.s 			page 50


 1591 01de 31       		.byte	0x31
 1592 01df E3010000 		.4byte	0x1e3
 1593 01e3 06       		.uleb128 0x6
 1594 01e4 04       		.byte	0x4
 1595 01e5 E9010000 		.4byte	0x1e9
 1596 01e9 0B       		.uleb128 0xb
 1597 01ea FC010000 		.4byte	.LASF36
 1598 01ee 04       		.uleb128 0x4
 1599 01ef EE010000 		.4byte	.LASF37
 1600 01f3 08       		.byte	0x8
 1601 01f4 4E       		.byte	0x4e
 1602 01f5 F9010000 		.4byte	0x1f9
 1603 01f9 06       		.uleb128 0x6
 1604 01fa 04       		.byte	0x4
 1605 01fb FF010000 		.4byte	0x1ff
 1606 01ff 08       		.uleb128 0x8
 1607 0200 B0070000 		.4byte	.LASF38
 1608 0204 28       		.byte	0x28
 1609 0205 01       		.byte	0x1
 1610 0206 48       		.byte	0x48
 1611 0207 54020000 		.4byte	0x254
 1612 020b 09       		.uleb128 0x9
 1613 020c 0A010000 		.4byte	.LASF39
 1614 0210 01       		.byte	0x1
 1615 0211 4A       		.byte	0x4a
 1616 0212 98000000 		.4byte	0x98
 1617 0216 00       		.byte	0
 1618 0217 09       		.uleb128 0x9
 1619 0218 85050000 		.4byte	.LASF40
 1620 021c 01       		.byte	0x1
 1621 021d 4B       		.byte	0x4b
 1622 021e 60010000 		.4byte	0x160
 1623 0222 04       		.byte	0x4
 1624 0223 09       		.uleb128 0x9
 1625 0224 40000000 		.4byte	.LASF41
 1626 0228 01       		.byte	0x1
 1627 0229 4C       		.byte	0x4c
 1628 022a CF000000 		.4byte	0xcf
 1629 022e 18       		.byte	0x18
 1630 022f 09       		.uleb128 0x9
 1631 0230 A5060000 		.4byte	.LASF42
 1632 0234 01       		.byte	0x1
 1633 0235 4D       		.byte	0x4d
 1634 0236 8F000000 		.4byte	0x8f
 1635 023a 1C       		.byte	0x1c
 1636 023b 09       		.uleb128 0x9
 1637 023c 66000000 		.4byte	.LASF43
 1638 0240 01       		.byte	0x1
 1639 0241 4E       		.byte	0x4e
 1640 0242 54020000 		.4byte	0x254
 1641 0246 20       		.byte	0x20
 1642 0247 09       		.uleb128 0x9
 1643 0248 20060000 		.4byte	.LASF44
 1644 024c 01       		.byte	0x1
 1645 024d 52       		.byte	0x52
 1646 024e A3000000 		.4byte	0xa3
 1647 0252 24       		.byte	0x24
ARM GAS  C:\Users\u0036181\AppData\Local\Temp\cch2Rq0R.s 			page 51


 1648 0253 00       		.byte	0
 1649 0254 04       		.uleb128 0x4
 1650 0255 5E010000 		.4byte	.LASF45
 1651 0259 08       		.byte	0x8
 1652 025a 53       		.byte	0x53
 1653 025b 5F020000 		.4byte	0x25f
 1654 025f 06       		.uleb128 0x6
 1655 0260 04       		.byte	0x4
 1656 0261 65020000 		.4byte	0x265
 1657 0265 0C       		.uleb128 0xc
 1658 0266 70020000 		.4byte	0x270
 1659 026a 0D       		.uleb128 0xd
 1660 026b EE010000 		.4byte	0x1ee
 1661 026f 00       		.byte	0
 1662 0270 04       		.uleb128 0x4
 1663 0271 F9030000 		.4byte	.LASF46
 1664 0275 01       		.byte	0x1
 1665 0276 53       		.byte	0x53
 1666 0277 FF010000 		.4byte	0x1ff
 1667 027b 04       		.uleb128 0x4
 1668 027c C6060000 		.4byte	.LASF47
 1669 0280 01       		.byte	0x1
 1670 0281 57       		.byte	0x57
 1671 0282 70020000 		.4byte	0x270
 1672 0286 08       		.uleb128 0x8
 1673 0287 42080000 		.4byte	.LASF48
 1674 028b 08       		.byte	0x8
 1675 028c 01       		.byte	0x1
 1676 028d 5E       		.byte	0x5e
 1677 028e AB020000 		.4byte	0x2ab
 1678 0292 09       		.uleb128 0x9
 1679 0293 6A070000 		.4byte	.LASF49
 1680 0297 01       		.byte	0x1
 1681 0298 60       		.byte	0x60
 1682 0299 CF000000 		.4byte	0xcf
 1683 029d 00       		.byte	0
 1684 029e 09       		.uleb128 0x9
 1685 029f 41070000 		.4byte	.LASF50
 1686 02a3 01       		.byte	0x1
 1687 02a4 61       		.byte	0x61
 1688 02a5 AB020000 		.4byte	0x2ab
 1689 02a9 04       		.byte	0x4
 1690 02aa 00       		.byte	0
 1691 02ab 06       		.uleb128 0x6
 1692 02ac 04       		.byte	0x4
 1693 02ad 7B020000 		.4byte	0x27b
 1694 02b1 04       		.uleb128 0x4
 1695 02b2 2E010000 		.4byte	.LASF51
 1696 02b6 01       		.byte	0x1
 1697 02b7 62       		.byte	0x62
 1698 02b8 86020000 		.4byte	0x286
 1699 02bc 0E       		.uleb128 0xe
 1700 02bd 08       		.byte	0x8
 1701 02be 01       		.byte	0x1
 1702 02bf 71       		.byte	0x71
 1703 02c0 D0020000 		.4byte	0x2d0
 1704 02c4 0F       		.uleb128 0xf
ARM GAS  C:\Users\u0036181\AppData\Local\Temp\cch2Rq0R.s 			page 52


 1705 02c5 A5000000 		.4byte	.LASF130
 1706 02c9 01       		.byte	0x1
 1707 02ca 73       		.byte	0x73
 1708 02cb B1020000 		.4byte	0x2b1
 1709 02cf 00       		.byte	0
 1710 02d0 08       		.uleb128 0x8
 1711 02d1 CB030000 		.4byte	.LASF52
 1712 02d5 0C       		.byte	0xc
 1713 02d6 01       		.byte	0x1
 1714 02d7 6E       		.byte	0x6e
 1715 02d8 F3020000 		.4byte	0x2f3
 1716 02dc 09       		.uleb128 0x9
 1717 02dd CE060000 		.4byte	.LASF53
 1718 02e1 01       		.byte	0x1
 1719 02e2 70       		.byte	0x70
 1720 02e3 B9000000 		.4byte	0xb9
 1721 02e7 00       		.byte	0
 1722 02e8 10       		.uleb128 0x10
 1723 02e9 7500     		.ascii	"u\000"
 1724 02eb 01       		.byte	0x1
 1725 02ec 7A       		.byte	0x7a
 1726 02ed BC020000 		.4byte	0x2bc
 1727 02f1 04       		.byte	0x4
 1728 02f2 00       		.byte	0
 1729 02f3 04       		.uleb128 0x4
 1730 02f4 D9060000 		.4byte	.LASF54
 1731 02f8 01       		.byte	0x1
 1732 02f9 7B       		.byte	0x7b
 1733 02fa D0020000 		.4byte	0x2d0
 1734 02fe 11       		.uleb128 0x11
 1735 02ff 92080000 		.4byte	.LASF55
 1736 0303 01       		.byte	0x1
 1737 0304 8902     		.2byte	0x289
 1738 0306 CF000000 		.4byte	0xcf
 1739 030a 00000000 		.4byte	.LFB17
 1740 030e 20000000 		.4byte	.LFE17-.LFB17
 1741 0312 01       		.uleb128 0x1
 1742 0313 9C       		.byte	0x9c
 1743 0314 39030000 		.4byte	0x339
 1744 0318 12       		.uleb128 0x12
 1745 0319 79000000 		.4byte	.LASF57
 1746 031d 01       		.byte	0x1
 1747 031e 8902     		.2byte	0x289
 1748 0320 3F030000 		.4byte	0x33f
 1749 0324 00000000 		.4byte	.LLST0
 1750 0328 13       		.uleb128 0x13
 1751 0329 D3050000 		.4byte	.LASF61
 1752 032d 01       		.byte	0x1
 1753 032e 8B02     		.2byte	0x28b
 1754 0330 CF000000 		.4byte	0xcf
 1755 0334 3A000000 		.4byte	.LLST1
 1756 0338 00       		.byte	0
 1757 0339 06       		.uleb128 0x6
 1758 033a 04       		.byte	0x4
 1759 033b B9000000 		.4byte	0xb9
 1760 033f 07       		.uleb128 0x7
 1761 0340 39030000 		.4byte	0x339
ARM GAS  C:\Users\u0036181\AppData\Local\Temp\cch2Rq0R.s 			page 53


 1762 0344 11       		.uleb128 0x11
 1763 0345 24040000 		.4byte	.LASF56
 1764 0349 01       		.byte	0x1
 1765 034a BB02     		.2byte	0x2bb
 1766 034c B9000000 		.4byte	0xb9
 1767 0350 00000000 		.4byte	.LFB19
 1768 0354 44000000 		.4byte	.LFE19-.LFB19
 1769 0358 01       		.uleb128 0x1
 1770 0359 9C       		.byte	0x9c
 1771 035a D9030000 		.4byte	0x3d9
 1772 035e 12       		.uleb128 0x12
 1773 035f 41070000 		.4byte	.LASF50
 1774 0363 01       		.byte	0x1
 1775 0364 BB02     		.2byte	0x2bb
 1776 0366 D9030000 		.4byte	0x3d9
 1777 036a 58000000 		.4byte	.LLST2
 1778 036e 12       		.uleb128 0x12
 1779 036f 1F080000 		.4byte	.LASF58
 1780 0373 01       		.byte	0x1
 1781 0374 BC02     		.2byte	0x2bc
 1782 0376 DE030000 		.4byte	0x3de
 1783 037a DE000000 		.4byte	.LLST3
 1784 037e 12       		.uleb128 0x12
 1785 037f 88000000 		.4byte	.LASF59
 1786 0383 01       		.byte	0x1
 1787 0384 BD02     		.2byte	0x2bd
 1788 0386 DE030000 		.4byte	0x3de
 1789 038a 47010000 		.4byte	.LLST4
 1790 038e 12       		.uleb128 0x12
 1791 038f 23000000 		.4byte	.LASF60
 1792 0393 01       		.byte	0x1
 1793 0394 BE02     		.2byte	0x2be
 1794 0396 DE030000 		.4byte	0x3de
 1795 039a 8C010000 		.4byte	.LLST5
 1796 039e 13       		.uleb128 0x13
 1797 039f A0010000 		.4byte	.LASF62
 1798 03a3 01       		.byte	0x1
 1799 03a4 C002     		.2byte	0x2c0
 1800 03a6 B9000000 		.4byte	0xb9
 1801 03aa DF010000 		.4byte	.LLST6
 1802 03ae 14       		.uleb128 0x14
 1803 03af 1C000000 		.4byte	.LVL10
 1804 03b3 440E0000 		.4byte	0xe44
 1805 03b7 C5030000 		.4byte	0x3c5
 1806 03bb 15       		.uleb128 0x15
 1807 03bc 01       		.uleb128 0x1
 1808 03bd 51       		.byte	0x51
 1809 03be 05       		.uleb128 0x5
 1810 03bf F3       		.byte	0xf3
 1811 03c0 01       		.uleb128 0x1
 1812 03c1 50       		.byte	0x50
 1813 03c2 23       		.byte	0x23
 1814 03c3 04       		.uleb128 0x4
 1815 03c4 00       		.byte	0
 1816 03c5 16       		.uleb128 0x16
 1817 03c6 32000000 		.4byte	.LVL15
 1818 03ca 440E0000 		.4byte	0xe44
ARM GAS  C:\Users\u0036181\AppData\Local\Temp\cch2Rq0R.s 			page 54


 1819 03ce 15       		.uleb128 0x15
 1820 03cf 01       		.uleb128 0x1
 1821 03d0 51       		.byte	0x51
 1822 03d1 05       		.uleb128 0x5
 1823 03d2 F3       		.byte	0xf3
 1824 03d3 01       		.uleb128 0x1
 1825 03d4 50       		.byte	0x50
 1826 03d5 23       		.byte	0x23
 1827 03d6 04       		.uleb128 0x4
 1828 03d7 00       		.byte	0
 1829 03d8 00       		.byte	0
 1830 03d9 07       		.uleb128 0x7
 1831 03da AB020000 		.4byte	0x2ab
 1832 03de 07       		.uleb128 0x7
 1833 03df CF000000 		.4byte	0xcf
 1834 03e3 17       		.uleb128 0x17
 1835 03e4 83070000 		.4byte	.LASF63
 1836 03e8 01       		.byte	0x1
 1837 03e9 B903     		.2byte	0x3b9
 1838 03eb 00000000 		.4byte	.LFB22
 1839 03ef 48000000 		.4byte	.LFE22-.LFB22
 1840 03f3 01       		.uleb128 0x1
 1841 03f4 9C       		.byte	0x9c
 1842 03f5 68040000 		.4byte	0x468
 1843 03f9 18       		.uleb128 0x18
 1844 03fa 06000000 		.4byte	.LVL21
 1845 03fe 500E0000 		.4byte	0xe50
 1846 0402 14       		.uleb128 0x14
 1847 0403 18000000 		.4byte	.LVL22
 1848 0407 5B0E0000 		.4byte	0xe5b
 1849 040b 16040000 		.4byte	0x416
 1850 040f 15       		.uleb128 0x15
 1851 0410 01       		.uleb128 0x1
 1852 0411 50       		.byte	0x50
 1853 0412 02       		.uleb128 0x2
 1854 0413 76       		.byte	0x76
 1855 0414 00       		.sleb128 0
 1856 0415 00       		.byte	0
 1857 0416 14       		.uleb128 0x14
 1858 0417 22000000 		.4byte	.LVL23
 1859 041b 5B0E0000 		.4byte	0xe5b
 1860 041f 2A040000 		.4byte	0x42a
 1861 0423 15       		.uleb128 0x15
 1862 0424 01       		.uleb128 0x1
 1863 0425 50       		.byte	0x50
 1864 0426 02       		.uleb128 0x2
 1865 0427 75       		.byte	0x75
 1866 0428 00       		.sleb128 0
 1867 0429 00       		.byte	0
 1868 042a 14       		.uleb128 0x14
 1869 042b 30000000 		.4byte	.LVL24
 1870 042f 670E0000 		.4byte	0xe67
 1871 0433 47040000 		.4byte	0x447
 1872 0437 15       		.uleb128 0x15
 1873 0438 01       		.uleb128 0x1
 1874 0439 50       		.byte	0x50
 1875 043a 01       		.uleb128 0x1
ARM GAS  C:\Users\u0036181\AppData\Local\Temp\cch2Rq0R.s 			page 55


 1876 043b 3A       		.byte	0x3a
 1877 043c 15       		.uleb128 0x15
 1878 043d 01       		.uleb128 0x1
 1879 043e 51       		.byte	0x51
 1880 043f 01       		.uleb128 0x1
 1881 0440 3C       		.byte	0x3c
 1882 0441 15       		.uleb128 0x15
 1883 0442 01       		.uleb128 0x1
 1884 0443 52       		.byte	0x52
 1885 0444 01       		.uleb128 0x1
 1886 0445 30       		.byte	0x30
 1887 0446 00       		.byte	0
 1888 0447 14       		.uleb128 0x14
 1889 0448 3A000000 		.4byte	.LVL25
 1890 044c 730E0000 		.4byte	0xe73
 1891 0450 5E040000 		.4byte	0x45e
 1892 0454 15       		.uleb128 0x15
 1893 0455 01       		.uleb128 0x1
 1894 0456 51       		.byte	0x51
 1895 0457 05       		.uleb128 0x5
 1896 0458 03       		.byte	0x3
 1897 0459 00000000 		.4byte	.LC0
 1898 045d 00       		.byte	0
 1899 045e 18       		.uleb128 0x18
 1900 045f 3E000000 		.4byte	.LVL26
 1901 0463 7F0E0000 		.4byte	0xe7f
 1902 0467 00       		.byte	0
 1903 0468 17       		.uleb128 0x17
 1904 0469 B5030000 		.4byte	.LASF64
 1905 046d 01       		.byte	0x1
 1906 046e 5701     		.2byte	0x157
 1907 0470 00000000 		.4byte	.LFB6
 1908 0474 38000000 		.4byte	.LFE6-.LFB6
 1909 0478 01       		.uleb128 0x1
 1910 0479 9C       		.byte	0x9c
 1911 047a F6040000 		.4byte	0x4f6
 1912 047e 12       		.uleb128 0x12
 1913 047f 0A010000 		.4byte	.LASF39
 1914 0483 01       		.byte	0x1
 1915 0484 5701     		.2byte	0x157
 1916 0486 D3010000 		.4byte	0x1d3
 1917 048a FE010000 		.4byte	.LLST7
 1918 048e 12       		.uleb128 0x12
 1919 048f 40000000 		.4byte	.LASF41
 1920 0493 01       		.byte	0x1
 1921 0494 5801     		.2byte	0x158
 1922 0496 DE030000 		.4byte	0x3de
 1923 049a 2A020000 		.4byte	.LLST8
 1924 049e 12       		.uleb128 0x12
 1925 049f AF060000 		.4byte	.LASF65
 1926 04a3 01       		.byte	0x1
 1927 04a4 5901     		.2byte	0x159
 1928 04a6 F6040000 		.4byte	0x4f6
 1929 04aa 56020000 		.4byte	.LLST9
 1930 04ae 12       		.uleb128 0x12
 1931 04af A5060000 		.4byte	.LASF42
 1932 04b3 01       		.byte	0x1
ARM GAS  C:\Users\u0036181\AppData\Local\Temp\cch2Rq0R.s 			page 56


 1933 04b4 5A01     		.2byte	0x15a
 1934 04b6 FB040000 		.4byte	0x4fb
 1935 04ba 82020000 		.4byte	.LLST10
 1936 04be 19       		.uleb128 0x19
 1937 04bf 66000000 		.4byte	.LASF43
 1938 04c3 01       		.byte	0x1
 1939 04c4 5B01     		.2byte	0x15b
 1940 04c6 54020000 		.4byte	0x254
 1941 04ca 02       		.uleb128 0x2
 1942 04cb 91       		.byte	0x91
 1943 04cc 00       		.sleb128 0
 1944 04cd 19       		.uleb128 0x19
 1945 04ce 23020000 		.4byte	.LASF66
 1946 04d2 01       		.byte	0x1
 1947 04d3 5C01     		.2byte	0x15c
 1948 04d5 AB020000 		.4byte	0x2ab
 1949 04d9 02       		.uleb128 0x2
 1950 04da 91       		.byte	0x91
 1951 04db 04       		.sleb128 4
 1952 04dc 18       		.uleb128 0x18
 1953 04dd 14000000 		.4byte	.LVL28
 1954 04e1 E3030000 		.4byte	0x3e3
 1955 04e5 16       		.uleb128 0x16
 1956 04e6 26000000 		.4byte	.LVL29
 1957 04ea 8A0E0000 		.4byte	0xe8a
 1958 04ee 15       		.uleb128 0x15
 1959 04ef 01       		.uleb128 0x1
 1960 04f0 50       		.byte	0x50
 1961 04f1 02       		.uleb128 0x2
 1962 04f2 74       		.byte	0x74
 1963 04f3 04       		.sleb128 4
 1964 04f4 00       		.byte	0
 1965 04f5 00       		.byte	0
 1966 04f6 07       		.uleb128 0x7
 1967 04f7 C4000000 		.4byte	0xc4
 1968 04fb 07       		.uleb128 0x7
 1969 04fc 8F000000 		.4byte	0x8f
 1970 0500 1A       		.uleb128 0x1a
 1971 0501 8A010000 		.4byte	.LASF68
 1972 0505 01       		.byte	0x1
 1973 0506 DD       		.byte	0xdd
 1974 0507 B9000000 		.4byte	0xb9
 1975 050b 00000000 		.4byte	.LFB4
 1976 050f 3C000000 		.4byte	.LFE4-.LFB4
 1977 0513 01       		.uleb128 0x1
 1978 0514 9C       		.byte	0x9c
 1979 0515 69050000 		.4byte	0x569
 1980 0519 1B       		.uleb128 0x1b
 1981 051a F9060000 		.4byte	.LASF67
 1982 051e 01       		.byte	0x1
 1983 051f DF       		.byte	0xdf
 1984 0520 B9000000 		.4byte	0xb9
 1985 0524 AE020000 		.4byte	.LLST11
 1986 0528 18       		.uleb128 0x18
 1987 0529 08000000 		.4byte	.LVL32
 1988 052d E3030000 		.4byte	0x3e3
 1989 0531 16       		.uleb128 0x16
ARM GAS  C:\Users\u0036181\AppData\Local\Temp\cch2Rq0R.s 			page 57


 1990 0532 22000000 		.4byte	.LVL33
 1991 0536 960E0000 		.4byte	0xe96
 1992 053a 15       		.uleb128 0x15
 1993 053b 01       		.uleb128 0x1
 1994 053c 50       		.byte	0x50
 1995 053d 05       		.uleb128 0x5
 1996 053e 03       		.byte	0x3
 1997 053f 00000000 		.4byte	prvTimerTask
 1998 0543 15       		.uleb128 0x15
 1999 0544 01       		.uleb128 0x1
 2000 0545 51       		.byte	0x51
 2001 0546 05       		.uleb128 0x5
 2002 0547 03       		.byte	0x3
 2003 0548 08000000 		.4byte	.LC1
 2004 054c 15       		.uleb128 0x15
 2005 054d 01       		.uleb128 0x1
 2006 054e 52       		.byte	0x52
 2007 054f 02       		.uleb128 0x2
 2008 0550 08       		.byte	0x8
 2009 0551 80       		.byte	0x80
 2010 0552 15       		.uleb128 0x15
 2011 0553 01       		.uleb128 0x1
 2012 0554 53       		.byte	0x53
 2013 0555 01       		.uleb128 0x1
 2014 0556 30       		.byte	0x30
 2015 0557 15       		.uleb128 0x15
 2016 0558 02       		.uleb128 0x2
 2017 0559 7D       		.byte	0x7d
 2018 055a 00       		.sleb128 0
 2019 055b 01       		.uleb128 0x1
 2020 055c 33       		.byte	0x33
 2021 055d 15       		.uleb128 0x15
 2022 055e 02       		.uleb128 0x2
 2023 055f 7D       		.byte	0x7d
 2024 0560 04       		.sleb128 4
 2025 0561 05       		.uleb128 0x5
 2026 0562 03       		.byte	0x3
 2027 0563 34000000 		.4byte	.LANCHOR0+52
 2028 0567 00       		.byte	0
 2029 0568 00       		.byte	0
 2030 0569 1C       		.uleb128 0x1c
 2031 056a 7D040000 		.4byte	.LASF69
 2032 056e 01       		.byte	0x1
 2033 056f 1401     		.2byte	0x114
 2034 0571 EE010000 		.4byte	0x1ee
 2035 0575 00000000 		.4byte	.LFB5
 2036 0579 38000000 		.4byte	.LFE5-.LFB5
 2037 057d 01       		.uleb128 0x1
 2038 057e 9C       		.byte	0x9c
 2039 057f 28060000 		.4byte	0x628
 2040 0583 12       		.uleb128 0x12
 2041 0584 0A010000 		.4byte	.LASF39
 2042 0588 01       		.byte	0x1
 2043 0589 1401     		.2byte	0x114
 2044 058b D3010000 		.4byte	0x1d3
 2045 058f E4020000 		.4byte	.LLST12
 2046 0593 12       		.uleb128 0x12
ARM GAS  C:\Users\u0036181\AppData\Local\Temp\cch2Rq0R.s 			page 58


 2047 0594 40000000 		.4byte	.LASF41
 2048 0598 01       		.byte	0x1
 2049 0599 1501     		.2byte	0x115
 2050 059b DE030000 		.4byte	0x3de
 2051 059f 02030000 		.4byte	.LLST13
 2052 05a3 12       		.uleb128 0x12
 2053 05a4 AF060000 		.4byte	.LASF65
 2054 05a8 01       		.byte	0x1
 2055 05a9 1601     		.2byte	0x116
 2056 05ab F6040000 		.4byte	0x4f6
 2057 05af 20030000 		.4byte	.LLST14
 2058 05b3 12       		.uleb128 0x12
 2059 05b4 A5060000 		.4byte	.LASF42
 2060 05b8 01       		.byte	0x1
 2061 05b9 1701     		.2byte	0x117
 2062 05bb FB040000 		.4byte	0x4fb
 2063 05bf 3E030000 		.4byte	.LLST15
 2064 05c3 19       		.uleb128 0x19
 2065 05c4 66000000 		.4byte	.LASF43
 2066 05c8 01       		.byte	0x1
 2067 05c9 1801     		.2byte	0x118
 2068 05cb 54020000 		.4byte	0x254
 2069 05cf 02       		.uleb128 0x2
 2070 05d0 91       		.byte	0x91
 2071 05d1 00       		.sleb128 0
 2072 05d2 13       		.uleb128 0x13
 2073 05d3 23020000 		.4byte	.LASF66
 2074 05d7 01       		.byte	0x1
 2075 05d8 1A01     		.2byte	0x11a
 2076 05da AB020000 		.4byte	0x2ab
 2077 05de 5C030000 		.4byte	.LLST16
 2078 05e2 14       		.uleb128 0x14
 2079 05e3 14000000 		.4byte	.LVL38
 2080 05e7 A20E0000 		.4byte	0xea2
 2081 05eb F6050000 		.4byte	0x5f6
 2082 05ef 15       		.uleb128 0x15
 2083 05f0 01       		.uleb128 0x1
 2084 05f1 50       		.byte	0x50
 2085 05f2 02       		.uleb128 0x2
 2086 05f3 08       		.byte	0x8
 2087 05f4 28       		.byte	0x28
 2088 05f5 00       		.byte	0
 2089 05f6 16       		.uleb128 0x16
 2090 05f7 30000000 		.4byte	.LVL40
 2091 05fb 68040000 		.4byte	0x468
 2092 05ff 15       		.uleb128 0x15
 2093 0600 01       		.uleb128 0x1
 2094 0601 50       		.byte	0x50
 2095 0602 02       		.uleb128 0x2
 2096 0603 75       		.byte	0x75
 2097 0604 00       		.sleb128 0
 2098 0605 15       		.uleb128 0x15
 2099 0606 01       		.uleb128 0x1
 2100 0607 51       		.byte	0x51
 2101 0608 02       		.uleb128 0x2
 2102 0609 76       		.byte	0x76
 2103 060a 00       		.sleb128 0
ARM GAS  C:\Users\u0036181\AppData\Local\Temp\cch2Rq0R.s 			page 59


 2104 060b 15       		.uleb128 0x15
 2105 060c 01       		.uleb128 0x1
 2106 060d 52       		.byte	0x52
 2107 060e 02       		.uleb128 0x2
 2108 060f 77       		.byte	0x77
 2109 0610 00       		.sleb128 0
 2110 0611 15       		.uleb128 0x15
 2111 0612 01       		.uleb128 0x1
 2112 0613 53       		.byte	0x53
 2113 0614 02       		.uleb128 0x2
 2114 0615 78       		.byte	0x78
 2115 0616 00       		.sleb128 0
 2116 0617 15       		.uleb128 0x15
 2117 0618 02       		.uleb128 0x2
 2118 0619 7D       		.byte	0x7d
 2119 061a 00       		.sleb128 0
 2120 061b 03       		.uleb128 0x3
 2121 061c 91       		.byte	0x91
 2122 061d 00       		.sleb128 0
 2123 061e 06       		.byte	0x6
 2124 061f 15       		.uleb128 0x15
 2125 0620 02       		.uleb128 0x2
 2126 0621 7D       		.byte	0x7d
 2127 0622 04       		.sleb128 4
 2128 0623 02       		.uleb128 0x2
 2129 0624 74       		.byte	0x74
 2130 0625 00       		.sleb128 0
 2131 0626 00       		.byte	0
 2132 0627 00       		.byte	0
 2133 0628 1C       		.uleb128 0x1c
 2134 0629 A0050000 		.4byte	.LASF70
 2135 062d 01       		.byte	0x1
 2136 062e 7901     		.2byte	0x179
 2137 0630 B9000000 		.4byte	0xb9
 2138 0634 00000000 		.4byte	.LFB7
 2139 0638 58000000 		.4byte	.LFE7-.LFB7
 2140 063c 01       		.uleb128 0x1
 2141 063d 9C       		.byte	0x9c
 2142 063e 1A070000 		.4byte	0x71a
 2143 0642 12       		.uleb128 0x12
 2144 0643 F2030000 		.4byte	.LASF71
 2145 0647 01       		.byte	0x1
 2146 0648 7901     		.2byte	0x179
 2147 064a EE010000 		.4byte	0x1ee
 2148 064e 7A030000 		.4byte	.LLST17
 2149 0652 12       		.uleb128 0x12
 2150 0653 76010000 		.4byte	.LASF72
 2151 0657 01       		.byte	0x1
 2152 0658 7A01     		.2byte	0x17a
 2153 065a 1A070000 		.4byte	0x71a
 2154 065e D9030000 		.4byte	.LLST18
 2155 0662 12       		.uleb128 0x12
 2156 0663 42020000 		.4byte	.LASF73
 2157 0667 01       		.byte	0x1
 2158 0668 7B01     		.2byte	0x17b
 2159 066a DE030000 		.4byte	0x3de
 2160 066e 38040000 		.4byte	.LLST19
ARM GAS  C:\Users\u0036181\AppData\Local\Temp\cch2Rq0R.s 			page 60


 2161 0672 12       		.uleb128 0x12
 2162 0673 DB000000 		.4byte	.LASF74
 2163 0677 01       		.byte	0x1
 2164 0678 7C01     		.2byte	0x17c
 2165 067a 3F030000 		.4byte	0x33f
 2166 067e 97040000 		.4byte	.LLST20
 2167 0682 12       		.uleb128 0x12
 2168 0683 CF070000 		.4byte	.LASF75
 2169 0687 01       		.byte	0x1
 2170 0688 7D01     		.2byte	0x17d
 2171 068a DE030000 		.4byte	0x3de
 2172 068e E4040000 		.4byte	.LLST21
 2173 0692 13       		.uleb128 0x13
 2174 0693 F9060000 		.4byte	.LASF67
 2175 0697 01       		.byte	0x1
 2176 0698 7F01     		.2byte	0x17f
 2177 069a B9000000 		.4byte	0xb9
 2178 069e 04050000 		.4byte	.LLST22
 2179 06a2 1D       		.uleb128 0x1d
 2180 06a3 84060000 		.4byte	.LASF76
 2181 06a7 01       		.byte	0x1
 2182 06a8 8001     		.2byte	0x180
 2183 06aa F3020000 		.4byte	0x2f3
 2184 06ae 02       		.uleb128 0x2
 2185 06af 91       		.byte	0x91
 2186 06b0 64       		.sleb128 -28
 2187 06b1 18       		.uleb128 0x18
 2188 06b2 1A000000 		.4byte	.LVL43
 2189 06b6 AD0E0000 		.4byte	0xead
 2190 06ba 14       		.uleb128 0x14
 2191 06bb 2C000000 		.4byte	.LVL44
 2192 06bf B90E0000 		.4byte	0xeb9
 2193 06c3 DA060000 		.4byte	0x6da
 2194 06c7 15       		.uleb128 0x15
 2195 06c8 01       		.uleb128 0x1
 2196 06c9 51       		.byte	0x51
 2197 06ca 02       		.uleb128 0x2
 2198 06cb 91       		.byte	0x91
 2199 06cc 64       		.sleb128 -28
 2200 06cd 15       		.uleb128 0x15
 2201 06ce 01       		.uleb128 0x1
 2202 06cf 52       		.byte	0x52
 2203 06d0 03       		.uleb128 0x3
 2204 06d1 91       		.byte	0x91
 2205 06d2 00       		.sleb128 0
 2206 06d3 06       		.byte	0x6
 2207 06d4 15       		.uleb128 0x15
 2208 06d5 01       		.uleb128 0x1
 2209 06d6 53       		.byte	0x53
 2210 06d7 01       		.uleb128 0x1
 2211 06d8 30       		.byte	0x30
 2212 06d9 00       		.byte	0
 2213 06da 14       		.uleb128 0x14
 2214 06db 3C000000 		.4byte	.LVL46
 2215 06df B90E0000 		.4byte	0xeb9
 2216 06e3 F8060000 		.4byte	0x6f8
 2217 06e7 15       		.uleb128 0x15
ARM GAS  C:\Users\u0036181\AppData\Local\Temp\cch2Rq0R.s 			page 61


 2218 06e8 01       		.uleb128 0x1
 2219 06e9 51       		.byte	0x51
 2220 06ea 02       		.uleb128 0x2
 2221 06eb 91       		.byte	0x91
 2222 06ec 64       		.sleb128 -28
 2223 06ed 15       		.uleb128 0x15
 2224 06ee 01       		.uleb128 0x1
 2225 06ef 52       		.byte	0x52
 2226 06f0 01       		.uleb128 0x1
 2227 06f1 30       		.byte	0x30
 2228 06f2 15       		.uleb128 0x15
 2229 06f3 01       		.uleb128 0x1
 2230 06f4 53       		.byte	0x53
 2231 06f5 01       		.uleb128 0x1
 2232 06f6 30       		.byte	0x30
 2233 06f7 00       		.byte	0
 2234 06f8 16       		.uleb128 0x16
 2235 06f9 4A000000 		.4byte	.LVL52
 2236 06fd C50E0000 		.4byte	0xec5
 2237 0701 15       		.uleb128 0x15
 2238 0702 01       		.uleb128 0x1
 2239 0703 50       		.byte	0x50
 2240 0704 02       		.uleb128 0x2
 2241 0705 75       		.byte	0x75
 2242 0706 00       		.sleb128 0
 2243 0707 15       		.uleb128 0x15
 2244 0708 01       		.uleb128 0x1
 2245 0709 51       		.byte	0x51
 2246 070a 02       		.uleb128 0x2
 2247 070b 91       		.byte	0x91
 2248 070c 64       		.sleb128 -28
 2249 070d 15       		.uleb128 0x15
 2250 070e 01       		.uleb128 0x1
 2251 070f 52       		.byte	0x52
 2252 0710 02       		.uleb128 0x2
 2253 0711 74       		.byte	0x74
 2254 0712 00       		.sleb128 0
 2255 0713 15       		.uleb128 0x15
 2256 0714 01       		.uleb128 0x1
 2257 0715 53       		.byte	0x53
 2258 0716 01       		.uleb128 0x1
 2259 0717 30       		.byte	0x30
 2260 0718 00       		.byte	0
 2261 0719 00       		.byte	0
 2262 071a 07       		.uleb128 0x7
 2263 071b B9000000 		.4byte	0xb9
 2264 071f 17       		.uleb128 0x17
 2265 0720 37050000 		.4byte	.LASF77
 2266 0724 01       		.byte	0x1
 2267 0725 7D03     		.2byte	0x37d
 2268 0727 00000000 		.4byte	.LFB21
 2269 072b 64000000 		.4byte	.LFE21-.LFB21
 2270 072f 01       		.uleb128 0x1
 2271 0730 9C       		.byte	0x9c
 2272 0731 DE070000 		.4byte	0x7de
 2273 0735 13       		.uleb128 0x13
 2274 0736 D3050000 		.4byte	.LASF61
ARM GAS  C:\Users\u0036181\AppData\Local\Temp\cch2Rq0R.s 			page 62


 2275 073a 01       		.byte	0x1
 2276 073b 7F03     		.2byte	0x37f
 2277 073d CF000000 		.4byte	0xcf
 2278 0741 68050000 		.4byte	.LLST23
 2279 0745 13       		.uleb128 0x13
 2280 0746 ED060000 		.4byte	.LASF78
 2281 074a 01       		.byte	0x1
 2282 074b 7F03     		.2byte	0x37f
 2283 074d CF000000 		.4byte	0xcf
 2284 0751 7B050000 		.4byte	.LLST24
 2285 0755 1D       		.uleb128 0x1d
 2286 0756 55070000 		.4byte	.LASF79
 2287 075a 01       		.byte	0x1
 2288 075b 8003     		.2byte	0x380
 2289 075d DE070000 		.4byte	0x7de
 2290 0761 01       		.uleb128 0x1
 2291 0762 53       		.byte	0x53
 2292 0763 13       		.uleb128 0x13
 2293 0764 41070000 		.4byte	.LASF50
 2294 0768 01       		.byte	0x1
 2295 0769 8103     		.2byte	0x381
 2296 076b AB020000 		.4byte	0x2ab
 2297 076f A5050000 		.4byte	.LLST25
 2298 0773 1E       		.uleb128 0x1e
 2299 0774 29070000 		.4byte	.LASF84
 2300 0778 01       		.byte	0x1
 2301 0779 8203     		.2byte	0x382
 2302 077b B9000000 		.4byte	0xb9
 2303 077f 14       		.uleb128 0x14
 2304 0780 14000000 		.4byte	.LVL58
 2305 0784 D10E0000 		.4byte	0xed1
 2306 0788 93070000 		.4byte	0x793
 2307 078c 15       		.uleb128 0x15
 2308 078d 01       		.uleb128 0x1
 2309 078e 50       		.byte	0x50
 2310 078f 02       		.uleb128 0x2
 2311 0790 75       		.byte	0x75
 2312 0791 00       		.sleb128 0
 2313 0792 00       		.byte	0
 2314 0793 1F       		.uleb128 0x1f
 2315 0794 1A000000 		.4byte	.LVL59
 2316 0798 A3070000 		.4byte	0x7a3
 2317 079c 15       		.uleb128 0x15
 2318 079d 01       		.uleb128 0x1
 2319 079e 50       		.byte	0x50
 2320 079f 02       		.uleb128 0x2
 2321 07a0 74       		.byte	0x74
 2322 07a1 00       		.sleb128 0
 2323 07a2 00       		.byte	0
 2324 07a3 14       		.uleb128 0x14
 2325 07a4 3A000000 		.4byte	.LVL62
 2326 07a8 440E0000 		.4byte	0xe44
 2327 07ac B7070000 		.4byte	0x7b7
 2328 07b0 15       		.uleb128 0x15
 2329 07b1 01       		.uleb128 0x1
 2330 07b2 51       		.byte	0x51
 2331 07b3 02       		.uleb128 0x2
ARM GAS  C:\Users\u0036181\AppData\Local\Temp\cch2Rq0R.s 			page 63


 2332 07b4 75       		.byte	0x75
 2333 07b5 00       		.sleb128 0
 2334 07b6 00       		.byte	0
 2335 07b7 16       		.uleb128 0x16
 2336 07b8 4A000000 		.4byte	.LVL65
 2337 07bc 28060000 		.4byte	0x628
 2338 07c0 15       		.uleb128 0x15
 2339 07c1 01       		.uleb128 0x1
 2340 07c2 50       		.byte	0x50
 2341 07c3 02       		.uleb128 0x2
 2342 07c4 74       		.byte	0x74
 2343 07c5 00       		.sleb128 0
 2344 07c6 15       		.uleb128 0x15
 2345 07c7 01       		.uleb128 0x1
 2346 07c8 51       		.byte	0x51
 2347 07c9 01       		.uleb128 0x1
 2348 07ca 30       		.byte	0x30
 2349 07cb 15       		.uleb128 0x15
 2350 07cc 01       		.uleb128 0x1
 2351 07cd 52       		.byte	0x52
 2352 07ce 02       		.uleb128 0x2
 2353 07cf 76       		.byte	0x76
 2354 07d0 00       		.sleb128 0
 2355 07d1 15       		.uleb128 0x15
 2356 07d2 01       		.uleb128 0x1
 2357 07d3 53       		.byte	0x53
 2358 07d4 01       		.uleb128 0x1
 2359 07d5 30       		.byte	0x30
 2360 07d6 15       		.uleb128 0x15
 2361 07d7 02       		.uleb128 0x2
 2362 07d8 7D       		.byte	0x7d
 2363 07d9 00       		.sleb128 0
 2364 07da 01       		.uleb128 0x1
 2365 07db 30       		.byte	0x30
 2366 07dc 00       		.byte	0
 2367 07dd 00       		.byte	0
 2368 07de 06       		.uleb128 0x6
 2369 07df 04       		.byte	0x4
 2370 07e0 B2010000 		.4byte	0x1b2
 2371 07e4 11       		.uleb128 0x11
 2372 07e5 8A040000 		.4byte	.LASF80
 2373 07e9 01       		.byte	0x1
 2374 07ea A402     		.2byte	0x2a4
 2375 07ec CF000000 		.4byte	0xcf
 2376 07f0 00000000 		.4byte	.LFB18
 2377 07f4 2C000000 		.4byte	.LFE18-.LFB18
 2378 07f8 01       		.uleb128 0x1
 2379 07f9 9C       		.byte	0x9c
 2380 07fa 43080000 		.4byte	0x843
 2381 07fe 12       		.uleb128 0x12
 2382 07ff A7080000 		.4byte	.LASF81
 2383 0803 01       		.byte	0x1
 2384 0804 A402     		.2byte	0x2a4
 2385 0806 3F030000 		.4byte	0x33f
 2386 080a B8050000 		.4byte	.LLST26
 2387 080e 13       		.uleb128 0x13
 2388 080f 88000000 		.4byte	.LASF59
ARM GAS  C:\Users\u0036181\AppData\Local\Temp\cch2Rq0R.s 			page 64


 2389 0813 01       		.byte	0x1
 2390 0814 A602     		.2byte	0x2a6
 2391 0816 CF000000 		.4byte	0xcf
 2392 081a E4050000 		.4byte	.LLST27
 2393 081e 1D       		.uleb128 0x1d
 2394 081f 58060000 		.4byte	.LASF82
 2395 0823 01       		.byte	0x1
 2396 0824 A702     		.2byte	0x2a7
 2397 0826 CF000000 		.4byte	0xcf
 2398 082a 05       		.uleb128 0x5
 2399 082b 03       		.byte	0x3
 2400 082c 38000000 		.4byte	xLastTime.5488
 2401 0830 18       		.uleb128 0x18
 2402 0831 08000000 		.4byte	.LVL68
 2403 0835 DD0E0000 		.4byte	0xedd
 2404 0839 18       		.uleb128 0x18
 2405 083a 16000000 		.4byte	.LVL70
 2406 083e 1F070000 		.4byte	0x71f
 2407 0842 00       		.byte	0
 2408 0843 17       		.uleb128 0x17
 2409 0844 0C000000 		.4byte	.LASF83
 2410 0848 01       		.byte	0x1
 2411 0849 FC01     		.2byte	0x1fc
 2412 084b 00000000 		.4byte	.LFB14
 2413 084f 58000000 		.4byte	.LFE14-.LFB14
 2414 0853 01       		.uleb128 0x1
 2415 0854 9C       		.byte	0x9c
 2416 0855 00090000 		.4byte	0x900
 2417 0859 12       		.uleb128 0x12
 2418 085a D3050000 		.4byte	.LASF61
 2419 085e 01       		.byte	0x1
 2420 085f FC01     		.2byte	0x1fc
 2421 0861 DE030000 		.4byte	0x3de
 2422 0865 23060000 		.4byte	.LLST28
 2423 0869 12       		.uleb128 0x12
 2424 086a 88000000 		.4byte	.LASF59
 2425 086e 01       		.byte	0x1
 2426 086f FD01     		.2byte	0x1fd
 2427 0871 DE030000 		.4byte	0x3de
 2428 0875 4F060000 		.4byte	.LLST29
 2429 0879 1E       		.uleb128 0x1e
 2430 087a 29070000 		.4byte	.LASF84
 2431 087e 01       		.byte	0x1
 2432 087f FF01     		.2byte	0x1ff
 2433 0881 B9000000 		.4byte	0xb9
 2434 0885 13       		.uleb128 0x13
 2435 0886 41070000 		.4byte	.LASF50
 2436 088a 01       		.byte	0x1
 2437 088b 0002     		.2byte	0x200
 2438 088d D9030000 		.4byte	0x3d9
 2439 0891 7B060000 		.4byte	.LLST30
 2440 0895 14       		.uleb128 0x14
 2441 0896 16000000 		.4byte	.LVL77
 2442 089a D10E0000 		.4byte	0xed1
 2443 089e A9080000 		.4byte	0x8a9
 2444 08a2 15       		.uleb128 0x15
 2445 08a3 01       		.uleb128 0x1
ARM GAS  C:\Users\u0036181\AppData\Local\Temp\cch2Rq0R.s 			page 65


 2446 08a4 50       		.byte	0x50
 2447 08a5 02       		.uleb128 0x2
 2448 08a6 74       		.byte	0x74
 2449 08a7 04       		.sleb128 4
 2450 08a8 00       		.byte	0
 2451 08a9 14       		.uleb128 0x14
 2452 08aa 2E000000 		.4byte	.LVL78
 2453 08ae 44030000 		.4byte	0x344
 2454 08b2 C9080000 		.4byte	0x8c9
 2455 08b6 15       		.uleb128 0x15
 2456 08b7 01       		.uleb128 0x1
 2457 08b8 50       		.byte	0x50
 2458 08b9 02       		.uleb128 0x2
 2459 08ba 74       		.byte	0x74
 2460 08bb 00       		.sleb128 0
 2461 08bc 15       		.uleb128 0x15
 2462 08bd 01       		.uleb128 0x1
 2463 08be 52       		.byte	0x52
 2464 08bf 02       		.uleb128 0x2
 2465 08c0 76       		.byte	0x76
 2466 08c1 00       		.sleb128 0
 2467 08c2 15       		.uleb128 0x15
 2468 08c3 01       		.uleb128 0x1
 2469 08c4 53       		.byte	0x53
 2470 08c5 02       		.uleb128 0x2
 2471 08c6 75       		.byte	0x75
 2472 08c7 00       		.sleb128 0
 2473 08c8 00       		.byte	0
 2474 08c9 14       		.uleb128 0x14
 2475 08ca 3E000000 		.4byte	.LVL79
 2476 08ce 28060000 		.4byte	0x628
 2477 08d2 F3080000 		.4byte	0x8f3
 2478 08d6 15       		.uleb128 0x15
 2479 08d7 01       		.uleb128 0x1
 2480 08d8 50       		.byte	0x50
 2481 08d9 02       		.uleb128 0x2
 2482 08da 74       		.byte	0x74
 2483 08db 00       		.sleb128 0
 2484 08dc 15       		.uleb128 0x15
 2485 08dd 01       		.uleb128 0x1
 2486 08de 51       		.byte	0x51
 2487 08df 01       		.uleb128 0x1
 2488 08e0 30       		.byte	0x30
 2489 08e1 15       		.uleb128 0x15
 2490 08e2 01       		.uleb128 0x1
 2491 08e3 52       		.byte	0x52
 2492 08e4 02       		.uleb128 0x2
 2493 08e5 75       		.byte	0x75
 2494 08e6 00       		.sleb128 0
 2495 08e7 15       		.uleb128 0x15
 2496 08e8 01       		.uleb128 0x1
 2497 08e9 53       		.byte	0x53
 2498 08ea 01       		.uleb128 0x1
 2499 08eb 30       		.byte	0x30
 2500 08ec 15       		.uleb128 0x15
 2501 08ed 02       		.uleb128 0x2
 2502 08ee 7D       		.byte	0x7d
ARM GAS  C:\Users\u0036181\AppData\Local\Temp\cch2Rq0R.s 			page 66


 2503 08ef 00       		.sleb128 0
 2504 08f0 01       		.uleb128 0x1
 2505 08f1 30       		.byte	0x30
 2506 08f2 00       		.byte	0
 2507 08f3 20       		.uleb128 0x20
 2508 08f4 4E000000 		.4byte	.LVL80
 2509 08f8 15       		.uleb128 0x15
 2510 08f9 01       		.uleb128 0x1
 2511 08fa 50       		.byte	0x50
 2512 08fb 02       		.uleb128 0x2
 2513 08fc 74       		.byte	0x74
 2514 08fd 00       		.sleb128 0
 2515 08fe 00       		.byte	0
 2516 08ff 00       		.byte	0
 2517 0900 17       		.uleb128 0x17
 2518 0901 E4070000 		.4byte	.LASF85
 2519 0905 01       		.byte	0x1
 2520 0906 4B02     		.2byte	0x24b
 2521 0908 00000000 		.4byte	.LFB16
 2522 090c 70000000 		.4byte	.LFE16-.LFB16
 2523 0910 01       		.uleb128 0x1
 2524 0911 9C       		.byte	0x9c
 2525 0912 C5090000 		.4byte	0x9c5
 2526 0916 12       		.uleb128 0x12
 2527 0917 D3050000 		.4byte	.LASF61
 2528 091b 01       		.byte	0x1
 2529 091c 4B02     		.2byte	0x24b
 2530 091e DE030000 		.4byte	0x3de
 2531 0922 8E060000 		.4byte	.LLST31
 2532 0926 12       		.uleb128 0x12
 2533 0927 97060000 		.4byte	.LASF86
 2534 092b 01       		.byte	0x1
 2535 092c 4C02     		.2byte	0x24c
 2536 092e B9000000 		.4byte	0xb9
 2537 0932 BA060000 		.4byte	.LLST32
 2538 0936 13       		.uleb128 0x13
 2539 0937 88000000 		.4byte	.LASF59
 2540 093b 01       		.byte	0x1
 2541 093c 4E02     		.2byte	0x24e
 2542 093e CF000000 		.4byte	0xcf
 2543 0942 F1060000 		.4byte	.LLST33
 2544 0946 1D       		.uleb128 0x1d
 2545 0947 D8040000 		.4byte	.LASF87
 2546 094b 01       		.byte	0x1
 2547 094c 4F02     		.2byte	0x24f
 2548 094e B9000000 		.4byte	0xb9
 2549 0952 02       		.uleb128 0x2
 2550 0953 91       		.byte	0x91
 2551 0954 6C       		.sleb128 -20
 2552 0955 18       		.uleb128 0x18
 2553 0956 0C000000 		.4byte	.LVL83
 2554 095a E90E0000 		.4byte	0xee9
 2555 095e 14       		.uleb128 0x14
 2556 095f 12000000 		.4byte	.LVL84
 2557 0963 E4070000 		.4byte	0x7e4
 2558 0967 72090000 		.4byte	0x972
 2559 096b 15       		.uleb128 0x15
ARM GAS  C:\Users\u0036181\AppData\Local\Temp\cch2Rq0R.s 			page 67


 2560 096c 01       		.uleb128 0x1
 2561 096d 50       		.byte	0x50
 2562 096e 02       		.uleb128 0x2
 2563 096f 91       		.byte	0x91
 2564 0970 6C       		.sleb128 -20
 2565 0971 00       		.byte	0
 2566 0972 18       		.uleb128 0x18
 2567 0973 22000000 		.4byte	.LVL85
 2568 0977 F50E0000 		.4byte	0xef5
 2569 097b 14       		.uleb128 0x14
 2570 097c 2A000000 		.4byte	.LVL86
 2571 0980 43080000 		.4byte	0x843
 2572 0984 95090000 		.4byte	0x995
 2573 0988 15       		.uleb128 0x15
 2574 0989 01       		.uleb128 0x1
 2575 098a 50       		.byte	0x50
 2576 098b 02       		.uleb128 0x2
 2577 098c 76       		.byte	0x76
 2578 098d 00       		.sleb128 0
 2579 098e 15       		.uleb128 0x15
 2580 098f 01       		.uleb128 0x1
 2581 0990 51       		.byte	0x51
 2582 0991 02       		.uleb128 0x2
 2583 0992 75       		.byte	0x75
 2584 0993 00       		.sleb128 0
 2585 0994 00       		.byte	0
 2586 0995 14       		.uleb128 0x14
 2587 0996 48000000 		.4byte	.LVL92
 2588 099a 010F0000 		.4byte	0xf01
 2589 099e B2090000 		.4byte	0x9b2
 2590 09a2 15       		.uleb128 0x15
 2591 09a3 01       		.uleb128 0x1
 2592 09a4 51       		.byte	0x51
 2593 09a5 05       		.uleb128 0x5
 2594 09a6 76       		.byte	0x76
 2595 09a7 00       		.sleb128 0
 2596 09a8 75       		.byte	0x75
 2597 09a9 00       		.sleb128 0
 2598 09aa 1C       		.byte	0x1c
 2599 09ab 15       		.uleb128 0x15
 2600 09ac 01       		.uleb128 0x1
 2601 09ad 52       		.byte	0x52
 2602 09ae 02       		.uleb128 0x2
 2603 09af 74       		.byte	0x74
 2604 09b0 00       		.sleb128 0
 2605 09b1 00       		.byte	0
 2606 09b2 18       		.uleb128 0x18
 2607 09b3 4C000000 		.4byte	.LVL93
 2608 09b7 F50E0000 		.4byte	0xef5
 2609 09bb 18       		.uleb128 0x18
 2610 09bc 64000000 		.4byte	.LVL95
 2611 09c0 F50E0000 		.4byte	0xef5
 2612 09c4 00       		.byte	0
 2613 09c5 17       		.uleb128 0x17
 2614 09c6 34060000 		.4byte	.LASF88
 2615 09ca 01       		.byte	0x1
 2616 09cb E702     		.2byte	0x2e7
ARM GAS  C:\Users\u0036181\AppData\Local\Temp\cch2Rq0R.s 			page 68


 2617 09cd 00000000 		.4byte	.LFB20
 2618 09d1 D4000000 		.4byte	.LFE20-.LFB20
 2619 09d5 01       		.uleb128 0x1
 2620 09d6 9C       		.byte	0x9c
 2621 09d7 D30A0000 		.4byte	0xad3
 2622 09db 1D       		.uleb128 0x1d
 2623 09dc 84060000 		.4byte	.LASF76
 2624 09e0 01       		.byte	0x1
 2625 09e1 E902     		.2byte	0x2e9
 2626 09e3 F3020000 		.4byte	0x2f3
 2627 09e7 02       		.uleb128 0x2
 2628 09e8 91       		.byte	0x91
 2629 09e9 64       		.sleb128 -28
 2630 09ea 13       		.uleb128 0x13
 2631 09eb 41070000 		.4byte	.LASF50
 2632 09ef 01       		.byte	0x1
 2633 09f0 EA02     		.2byte	0x2ea
 2634 09f2 AB020000 		.4byte	0x2ab
 2635 09f6 30070000 		.4byte	.LLST34
 2636 09fa 1D       		.uleb128 0x1d
 2637 09fb D8040000 		.4byte	.LASF87
 2638 09ff 01       		.byte	0x1
 2639 0a00 EB02     		.2byte	0x2eb
 2640 0a02 B9000000 		.4byte	0xb9
 2641 0a06 02       		.uleb128 0x2
 2642 0a07 91       		.byte	0x91
 2643 0a08 60       		.sleb128 -32
 2644 0a09 1E       		.uleb128 0x1e
 2645 0a0a 29070000 		.4byte	.LASF84
 2646 0a0e 01       		.byte	0x1
 2647 0a0f EB02     		.2byte	0x2eb
 2648 0a11 B9000000 		.4byte	0xb9
 2649 0a15 13       		.uleb128 0x13
 2650 0a16 88000000 		.4byte	.LASF59
 2651 0a1a 01       		.byte	0x1
 2652 0a1b EC02     		.2byte	0x2ec
 2653 0a1d CF000000 		.4byte	0xcf
 2654 0a21 43070000 		.4byte	.LLST35
 2655 0a25 14       		.uleb128 0x14
 2656 0a26 18000000 		.4byte	.LVL98
 2657 0a2a D10E0000 		.4byte	0xed1
 2658 0a2e 390A0000 		.4byte	0xa39
 2659 0a32 15       		.uleb128 0x15
 2660 0a33 01       		.uleb128 0x1
 2661 0a34 50       		.byte	0x50
 2662 0a35 02       		.uleb128 0x2
 2663 0a36 74       		.byte	0x74
 2664 0a37 04       		.sleb128 4
 2665 0a38 00       		.byte	0
 2666 0a39 14       		.uleb128 0x14
 2667 0a3a 1E000000 		.4byte	.LVL99
 2668 0a3e E4070000 		.4byte	0x7e4
 2669 0a42 4D0A0000 		.4byte	0xa4d
 2670 0a46 15       		.uleb128 0x15
 2671 0a47 01       		.uleb128 0x1
 2672 0a48 50       		.byte	0x50
 2673 0a49 02       		.uleb128 0x2
ARM GAS  C:\Users\u0036181\AppData\Local\Temp\cch2Rq0R.s 			page 69


 2674 0a4a 91       		.byte	0x91
 2675 0a4b 60       		.sleb128 -32
 2676 0a4c 00       		.byte	0
 2677 0a4d 14       		.uleb128 0x14
 2678 0a4e 4E000000 		.4byte	.LVL101
 2679 0a52 44030000 		.4byte	0x344
 2680 0a56 610A0000 		.4byte	0xa61
 2681 0a5a 15       		.uleb128 0x15
 2682 0a5b 01       		.uleb128 0x1
 2683 0a5c 50       		.byte	0x50
 2684 0a5d 02       		.uleb128 0x2
 2685 0a5e 74       		.byte	0x74
 2686 0a5f 00       		.sleb128 0
 2687 0a60 00       		.byte	0
 2688 0a61 1F       		.uleb128 0x1f
 2689 0a62 56000000 		.4byte	.LVL102
 2690 0a66 710A0000 		.4byte	0xa71
 2691 0a6a 15       		.uleb128 0x15
 2692 0a6b 01       		.uleb128 0x1
 2693 0a6c 50       		.byte	0x50
 2694 0a6d 02       		.uleb128 0x2
 2695 0a6e 74       		.byte	0x74
 2696 0a6f 00       		.sleb128 0
 2697 0a70 00       		.byte	0
 2698 0a71 14       		.uleb128 0x14
 2699 0a72 72000000 		.4byte	.LVL103
 2700 0a76 28060000 		.4byte	0x628
 2701 0a7a 950A0000 		.4byte	0xa95
 2702 0a7e 15       		.uleb128 0x15
 2703 0a7f 01       		.uleb128 0x1
 2704 0a80 50       		.byte	0x50
 2705 0a81 02       		.uleb128 0x2
 2706 0a82 74       		.byte	0x74
 2707 0a83 00       		.sleb128 0
 2708 0a84 15       		.uleb128 0x15
 2709 0a85 01       		.uleb128 0x1
 2710 0a86 51       		.byte	0x51
 2711 0a87 01       		.uleb128 0x1
 2712 0a88 30       		.byte	0x30
 2713 0a89 15       		.uleb128 0x15
 2714 0a8a 01       		.uleb128 0x1
 2715 0a8b 53       		.byte	0x53
 2716 0a8c 01       		.uleb128 0x1
 2717 0a8d 30       		.byte	0x30
 2718 0a8e 15       		.uleb128 0x15
 2719 0a8f 02       		.uleb128 0x2
 2720 0a90 7D       		.byte	0x7d
 2721 0a91 00       		.sleb128 0
 2722 0a92 01       		.uleb128 0x1
 2723 0a93 30       		.byte	0x30
 2724 0a94 00       		.byte	0
 2725 0a95 14       		.uleb128 0x14
 2726 0a96 9E000000 		.4byte	.LVL106
 2727 0a9a 44030000 		.4byte	0x344
 2728 0a9e A90A0000 		.4byte	0xaa9
 2729 0aa2 15       		.uleb128 0x15
 2730 0aa3 01       		.uleb128 0x1
ARM GAS  C:\Users\u0036181\AppData\Local\Temp\cch2Rq0R.s 			page 70


 2731 0aa4 50       		.byte	0x50
 2732 0aa5 02       		.uleb128 0x2
 2733 0aa6 74       		.byte	0x74
 2734 0aa7 00       		.sleb128 0
 2735 0aa8 00       		.byte	0
 2736 0aa9 14       		.uleb128 0x14
 2737 0aaa B0000000 		.4byte	.LVL109
 2738 0aae 0D0F0000 		.4byte	0xf0d
 2739 0ab2 BD0A0000 		.4byte	0xabd
 2740 0ab6 15       		.uleb128 0x15
 2741 0ab7 01       		.uleb128 0x1
 2742 0ab8 50       		.byte	0x50
 2743 0ab9 02       		.uleb128 0x2
 2744 0aba 74       		.byte	0x74
 2745 0abb 00       		.sleb128 0
 2746 0abc 00       		.byte	0
 2747 0abd 16       		.uleb128 0x16
 2748 0abe C6000000 		.4byte	.LVL112
 2749 0ac2 180F0000 		.4byte	0xf18
 2750 0ac6 15       		.uleb128 0x15
 2751 0ac7 01       		.uleb128 0x1
 2752 0ac8 51       		.byte	0x51
 2753 0ac9 02       		.uleb128 0x2
 2754 0aca 91       		.byte	0x91
 2755 0acb 64       		.sleb128 -28
 2756 0acc 15       		.uleb128 0x15
 2757 0acd 01       		.uleb128 0x1
 2758 0ace 52       		.byte	0x52
 2759 0acf 01       		.uleb128 0x1
 2760 0ad0 30       		.byte	0x30
 2761 0ad1 00       		.byte	0
 2762 0ad2 00       		.byte	0
 2763 0ad3 21       		.uleb128 0x21
 2764 0ad4 C6050000 		.4byte	.LASF89
 2765 0ad8 01       		.byte	0x1
 2766 0ad9 2702     		.2byte	0x227
 2767 0adb 00000000 		.4byte	.LFB15
 2768 0adf 16000000 		.4byte	.LFE15-.LFB15
 2769 0ae3 01       		.uleb128 0x1
 2770 0ae4 9C       		.byte	0x9c
 2771 0ae5 3F0B0000 		.4byte	0xb3f
 2772 0ae9 12       		.uleb128 0x12
 2773 0aea 21010000 		.4byte	.LASF90
 2774 0aee 01       		.byte	0x1
 2775 0aef 2702     		.2byte	0x227
 2776 0af1 8F000000 		.4byte	0x8f
 2777 0af5 8D070000 		.4byte	.LLST36
 2778 0af9 13       		.uleb128 0x13
 2779 0afa D3050000 		.4byte	.LASF61
 2780 0afe 01       		.byte	0x1
 2781 0aff 2902     		.2byte	0x229
 2782 0b01 CF000000 		.4byte	0xcf
 2783 0b05 AE070000 		.4byte	.LLST37
 2784 0b09 1D       		.uleb128 0x1d
 2785 0b0a 97060000 		.4byte	.LASF86
 2786 0b0e 01       		.byte	0x1
 2787 0b0f 2A02     		.2byte	0x22a
ARM GAS  C:\Users\u0036181\AppData\Local\Temp\cch2Rq0R.s 			page 71


 2788 0b11 B9000000 		.4byte	0xb9
 2789 0b15 02       		.uleb128 0x2
 2790 0b16 91       		.byte	0x91
 2791 0b17 74       		.sleb128 -12
 2792 0b18 14       		.uleb128 0x14
 2793 0b19 0A000000 		.4byte	.LVL115
 2794 0b1d FE020000 		.4byte	0x2fe
 2795 0b21 2C0B0000 		.4byte	0xb2c
 2796 0b25 15       		.uleb128 0x15
 2797 0b26 01       		.uleb128 0x1
 2798 0b27 50       		.byte	0x50
 2799 0b28 02       		.uleb128 0x2
 2800 0b29 91       		.byte	0x91
 2801 0b2a 74       		.sleb128 -12
 2802 0b2b 00       		.byte	0
 2803 0b2c 18       		.uleb128 0x18
 2804 0b2d 10000000 		.4byte	.LVL116
 2805 0b31 00090000 		.4byte	0x900
 2806 0b35 18       		.uleb128 0x18
 2807 0b36 14000000 		.4byte	.LVL117
 2808 0b3a C5090000 		.4byte	0x9c5
 2809 0b3e 00       		.byte	0
 2810 0b3f 22       		.uleb128 0x22
 2811 0b40 CF010000 		.4byte	.LASF131
 2812 0b44 01       		.byte	0x1
 2813 0b45 A801     		.2byte	0x1a8
 2814 0b47 BD010000 		.4byte	0x1bd
 2815 0b4b 00000000 		.4byte	.LFB8
 2816 0b4f 0C000000 		.4byte	.LFE8-.LFB8
 2817 0b53 01       		.uleb128 0x1
 2818 0b54 9C       		.byte	0x9c
 2819 0b55 1C       		.uleb128 0x1c
 2820 0b56 31070000 		.4byte	.LASF91
 2821 0b5a 01       		.byte	0x1
 2822 0b5b B101     		.2byte	0x1b1
 2823 0b5d CF000000 		.4byte	0xcf
 2824 0b61 00000000 		.4byte	.LFB9
 2825 0b65 04000000 		.4byte	.LFE9-.LFB9
 2826 0b69 01       		.uleb128 0x1
 2827 0b6a 9C       		.byte	0x9c
 2828 0b6b 900B0000 		.4byte	0xb90
 2829 0b6f 12       		.uleb128 0x12
 2830 0b70 F2030000 		.4byte	.LASF71
 2831 0b74 01       		.byte	0x1
 2832 0b75 B101     		.2byte	0x1b1
 2833 0b77 EE010000 		.4byte	0x1ee
 2834 0b7b C1070000 		.4byte	.LLST38
 2835 0b7f 13       		.uleb128 0x13
 2836 0b80 41070000 		.4byte	.LASF50
 2837 0b84 01       		.byte	0x1
 2838 0b85 B301     		.2byte	0x1b3
 2839 0b87 AB020000 		.4byte	0x2ab
 2840 0b8b E2070000 		.4byte	.LLST39
 2841 0b8f 00       		.byte	0
 2842 0b90 23       		.uleb128 0x23
 2843 0b91 FF070000 		.4byte	.LASF99
 2844 0b95 01       		.byte	0x1
ARM GAS  C:\Users\u0036181\AppData\Local\Temp\cch2Rq0R.s 			page 72


 2845 0b96 BA01     		.2byte	0x1ba
 2846 0b98 00000000 		.4byte	.LFB10
 2847 0b9c 2C000000 		.4byte	.LFE10-.LFB10
 2848 0ba0 01       		.uleb128 0x1
 2849 0ba1 9C       		.byte	0x9c
 2850 0ba2 E90B0000 		.4byte	0xbe9
 2851 0ba6 12       		.uleb128 0x12
 2852 0ba7 F2030000 		.4byte	.LASF71
 2853 0bab 01       		.byte	0x1
 2854 0bac BA01     		.2byte	0x1ba
 2855 0bae EE010000 		.4byte	0x1ee
 2856 0bb2 03080000 		.4byte	.LLST40
 2857 0bb6 12       		.uleb128 0x12
 2858 0bb7 AF060000 		.4byte	.LASF65
 2859 0bbb 01       		.byte	0x1
 2860 0bbc BB01     		.2byte	0x1bb
 2861 0bbe F6040000 		.4byte	0x4f6
 2862 0bc2 21080000 		.4byte	.LLST41
 2863 0bc6 13       		.uleb128 0x13
 2864 0bc7 41070000 		.4byte	.LASF50
 2865 0bcb 01       		.byte	0x1
 2866 0bcc BD01     		.2byte	0x1bd
 2867 0bce AB020000 		.4byte	0x2ab
 2868 0bd2 3F080000 		.4byte	.LLST42
 2869 0bd6 18       		.uleb128 0x18
 2870 0bd7 0A000000 		.4byte	.LVL122
 2871 0bdb 500E0000 		.4byte	0xe50
 2872 0bdf 18       		.uleb128 0x18
 2873 0be0 2A000000 		.4byte	.LVL123
 2874 0be4 7F0E0000 		.4byte	0xe7f
 2875 0be8 00       		.byte	0
 2876 0be9 1C       		.uleb128 0x1c
 2877 0bea BA010000 		.4byte	.LASF92
 2878 0bee 01       		.byte	0x1
 2879 0bef CF01     		.2byte	0x1cf
 2880 0bf1 C4000000 		.4byte	0xc4
 2881 0bf5 00000000 		.4byte	.LFB11
 2882 0bf9 20000000 		.4byte	.LFE11-.LFB11
 2883 0bfd 01       		.uleb128 0x1
 2884 0bfe 9C       		.byte	0x9c
 2885 0bff 440C0000 		.4byte	0xc44
 2886 0c03 12       		.uleb128 0x12
 2887 0c04 F2030000 		.4byte	.LASF71
 2888 0c08 01       		.byte	0x1
 2889 0c09 CF01     		.2byte	0x1cf
 2890 0c0b EE010000 		.4byte	0x1ee
 2891 0c0f 5D080000 		.4byte	.LLST43
 2892 0c13 13       		.uleb128 0x13
 2893 0c14 41070000 		.4byte	.LASF50
 2894 0c18 01       		.byte	0x1
 2895 0c19 D101     		.2byte	0x1d1
 2896 0c1b AB020000 		.4byte	0x2ab
 2897 0c1f A2080000 		.4byte	.LLST44
 2898 0c23 1D       		.uleb128 0x1d
 2899 0c24 81010000 		.4byte	.LASF93
 2900 0c28 01       		.byte	0x1
 2901 0c29 D201     		.2byte	0x1d2
ARM GAS  C:\Users\u0036181\AppData\Local\Temp\cch2Rq0R.s 			page 73


 2902 0c2b C4000000 		.4byte	0xc4
 2903 0c2f 01       		.uleb128 0x1
 2904 0c30 54       		.byte	0x54
 2905 0c31 18       		.uleb128 0x18
 2906 0c32 08000000 		.4byte	.LVL126
 2907 0c36 500E0000 		.4byte	0xe50
 2908 0c3a 18       		.uleb128 0x18
 2909 0c3b 1C000000 		.4byte	.LVL130
 2910 0c3f 7F0E0000 		.4byte	0xe7f
 2911 0c43 00       		.byte	0
 2912 0c44 1C       		.uleb128 0x1c
 2913 0c45 5B040000 		.4byte	.LASF94
 2914 0c49 01       		.byte	0x1
 2915 0c4a E801     		.2byte	0x1e8
 2916 0c4c CF000000 		.4byte	0xcf
 2917 0c50 00000000 		.4byte	.LFB12
 2918 0c54 04000000 		.4byte	.LFE12-.LFB12
 2919 0c58 01       		.uleb128 0x1
 2920 0c59 9C       		.byte	0x9c
 2921 0c5a 8F0C0000 		.4byte	0xc8f
 2922 0c5e 12       		.uleb128 0x12
 2923 0c5f F2030000 		.4byte	.LASF71
 2924 0c63 01       		.byte	0x1
 2925 0c64 E801     		.2byte	0x1e8
 2926 0c66 EE010000 		.4byte	0x1ee
 2927 0c6a E7080000 		.4byte	.LLST45
 2928 0c6e 13       		.uleb128 0x13
 2929 0c6f 41070000 		.4byte	.LASF50
 2930 0c73 01       		.byte	0x1
 2931 0c74 EA01     		.2byte	0x1ea
 2932 0c76 AB020000 		.4byte	0x2ab
 2933 0c7a 08090000 		.4byte	.LLST46
 2934 0c7e 13       		.uleb128 0x13
 2935 0c7f F9060000 		.4byte	.LASF67
 2936 0c83 01       		.byte	0x1
 2937 0c84 EB01     		.2byte	0x1eb
 2938 0c86 CF000000 		.4byte	0xcf
 2939 0c8a 29090000 		.4byte	.LLST47
 2940 0c8e 00       		.byte	0
 2941 0c8f 1C       		.uleb128 0x1c
 2942 0c90 C0070000 		.4byte	.LASF95
 2943 0c94 01       		.byte	0x1
 2944 0c95 F301     		.2byte	0x1f3
 2945 0c97 98000000 		.4byte	0x98
 2946 0c9b 00000000 		.4byte	.LFB13
 2947 0c9f 04000000 		.4byte	.LFE13-.LFB13
 2948 0ca3 01       		.uleb128 0x1
 2949 0ca4 9C       		.byte	0x9c
 2950 0ca5 CA0C0000 		.4byte	0xcca
 2951 0ca9 12       		.uleb128 0x12
 2952 0caa F2030000 		.4byte	.LASF71
 2953 0cae 01       		.byte	0x1
 2954 0caf F301     		.2byte	0x1f3
 2955 0cb1 EE010000 		.4byte	0x1ee
 2956 0cb5 48090000 		.4byte	.LLST48
 2957 0cb9 13       		.uleb128 0x13
 2958 0cba 41070000 		.4byte	.LASF50
ARM GAS  C:\Users\u0036181\AppData\Local\Temp\cch2Rq0R.s 			page 74


 2959 0cbe 01       		.byte	0x1
 2960 0cbf F501     		.2byte	0x1f5
 2961 0cc1 AB020000 		.4byte	0x2ab
 2962 0cc5 69090000 		.4byte	.LLST49
 2963 0cc9 00       		.byte	0
 2964 0cca 1C       		.uleb128 0x1c
 2965 0ccb 6E020000 		.4byte	.LASF96
 2966 0ccf 01       		.byte	0x1
 2967 0cd0 EC03     		.2byte	0x3ec
 2968 0cd2 B9000000 		.4byte	0xb9
 2969 0cd6 00000000 		.4byte	.LFB23
 2970 0cda 20000000 		.4byte	.LFE23-.LFB23
 2971 0cde 01       		.uleb128 0x1
 2972 0cdf 9C       		.byte	0x9c
 2973 0ce0 250D0000 		.4byte	0xd25
 2974 0ce4 12       		.uleb128 0x12
 2975 0ce5 F2030000 		.4byte	.LASF71
 2976 0ce9 01       		.byte	0x1
 2977 0cea EC03     		.2byte	0x3ec
 2978 0cec EE010000 		.4byte	0x1ee
 2979 0cf0 8A090000 		.4byte	.LLST50
 2980 0cf4 1D       		.uleb128 0x1d
 2981 0cf5 F9060000 		.4byte	.LASF67
 2982 0cf9 01       		.byte	0x1
 2983 0cfa EE03     		.2byte	0x3ee
 2984 0cfc B9000000 		.4byte	0xb9
 2985 0d00 01       		.uleb128 0x1
 2986 0d01 54       		.byte	0x54
 2987 0d02 13       		.uleb128 0x13
 2988 0d03 41070000 		.4byte	.LASF50
 2989 0d07 01       		.byte	0x1
 2990 0d08 EF03     		.2byte	0x3ef
 2991 0d0a AB020000 		.4byte	0x2ab
 2992 0d0e CF090000 		.4byte	.LLST51
 2993 0d12 18       		.uleb128 0x18
 2994 0d13 08000000 		.4byte	.LVL137
 2995 0d17 500E0000 		.4byte	0xe50
 2996 0d1b 18       		.uleb128 0x18
 2997 0d1c 1C000000 		.4byte	.LVL141
 2998 0d20 7F0E0000 		.4byte	0xe7f
 2999 0d24 00       		.byte	0
 3000 0d25 1C       		.uleb128 0x1c
 3001 0d26 10030000 		.4byte	.LASF97
 3002 0d2a 01       		.byte	0x1
 3003 0d2b 0504     		.2byte	0x405
 3004 0d2d 8F000000 		.4byte	0x8f
 3005 0d31 00000000 		.4byte	.LFB24
 3006 0d35 12000000 		.4byte	.LFE24-.LFB24
 3007 0d39 01       		.uleb128 0x1
 3008 0d3a 9C       		.byte	0x9c
 3009 0d3b 800D0000 		.4byte	0xd80
 3010 0d3f 12       		.uleb128 0x12
 3011 0d40 F2030000 		.4byte	.LASF71
 3012 0d44 01       		.byte	0x1
 3013 0d45 0504     		.2byte	0x405
 3014 0d47 800D0000 		.4byte	0xd80
 3015 0d4b 140A0000 		.4byte	.LLST52
ARM GAS  C:\Users\u0036181\AppData\Local\Temp\cch2Rq0R.s 			page 75


 3016 0d4f 13       		.uleb128 0x13
 3017 0d50 41070000 		.4byte	.LASF50
 3018 0d54 01       		.byte	0x1
 3019 0d55 0704     		.2byte	0x407
 3020 0d57 D9030000 		.4byte	0x3d9
 3021 0d5b 400A0000 		.4byte	.LLST53
 3022 0d5f 1D       		.uleb128 0x1d
 3023 0d60 39020000 		.4byte	.LASF98
 3024 0d64 01       		.byte	0x1
 3025 0d65 0804     		.2byte	0x408
 3026 0d67 8F000000 		.4byte	0x8f
 3027 0d6b 01       		.uleb128 0x1
 3028 0d6c 54       		.byte	0x54
 3029 0d6d 18       		.uleb128 0x18
 3030 0d6e 08000000 		.4byte	.LVL144
 3031 0d72 500E0000 		.4byte	0xe50
 3032 0d76 18       		.uleb128 0x18
 3033 0d77 0E000000 		.4byte	.LVL146
 3034 0d7b 7F0E0000 		.4byte	0xe7f
 3035 0d7f 00       		.byte	0
 3036 0d80 07       		.uleb128 0x7
 3037 0d81 EE010000 		.4byte	0x1ee
 3038 0d85 23       		.uleb128 0x23
 3039 0d86 C7040000 		.4byte	.LASF100
 3040 0d8a 01       		.byte	0x1
 3041 0d8b 1604     		.2byte	0x416
 3042 0d8d 00000000 		.4byte	.LFB25
 3043 0d91 12000000 		.4byte	.LFE25-.LFB25
 3044 0d95 01       		.uleb128 0x1
 3045 0d96 9C       		.byte	0x9c
 3046 0d97 DE0D0000 		.4byte	0xdde
 3047 0d9b 12       		.uleb128 0x12
 3048 0d9c F2030000 		.4byte	.LASF71
 3049 0da0 01       		.byte	0x1
 3050 0da1 1604     		.2byte	0x416
 3051 0da3 EE010000 		.4byte	0x1ee
 3052 0da7 6C0A0000 		.4byte	.LLST54
 3053 0dab 12       		.uleb128 0x12
 3054 0dac 24050000 		.4byte	.LASF101
 3055 0db0 01       		.byte	0x1
 3056 0db1 1704     		.2byte	0x417
 3057 0db3 8F000000 		.4byte	0x8f
 3058 0db7 8A0A0000 		.4byte	.LLST55
 3059 0dbb 13       		.uleb128 0x13
 3060 0dbc 41070000 		.4byte	.LASF50
 3061 0dc0 01       		.byte	0x1
 3062 0dc1 1904     		.2byte	0x419
 3063 0dc3 D9030000 		.4byte	0x3d9
 3064 0dc7 A80A0000 		.4byte	.LLST56
 3065 0dcb 18       		.uleb128 0x18
 3066 0dcc 0A000000 		.4byte	.LVL149
 3067 0dd0 500E0000 		.4byte	0xe50
 3068 0dd4 18       		.uleb128 0x18
 3069 0dd5 10000000 		.4byte	.LVL150
 3070 0dd9 7F0E0000 		.4byte	0xe7f
 3071 0ddd 00       		.byte	0
 3072 0dde 24       		.uleb128 0x24
ARM GAS  C:\Users\u0036181\AppData\Local\Temp\cch2Rq0R.s 			page 76


 3073 0ddf 00040000 		.4byte	.LASF102
 3074 0de3 01       		.byte	0x1
 3075 0de4 86       		.byte	0x86
 3076 0de5 B2010000 		.4byte	0x1b2
 3077 0de9 05       		.uleb128 0x5
 3078 0dea 03       		.byte	0x3
 3079 0deb 0C000000 		.4byte	xActiveTimerList1
 3080 0def 24       		.uleb128 0x24
 3081 0df0 12040000 		.4byte	.LASF103
 3082 0df4 01       		.byte	0x1
 3083 0df5 87       		.byte	0x87
 3084 0df6 B2010000 		.4byte	0x1b2
 3085 0dfa 05       		.uleb128 0x5
 3086 0dfb 03       		.byte	0x3
 3087 0dfc 20000000 		.4byte	xActiveTimerList2
 3088 0e00 24       		.uleb128 0x24
 3089 0e01 71060000 		.4byte	.LASF104
 3090 0e05 01       		.byte	0x1
 3091 0e06 88       		.byte	0x88
 3092 0e07 DE070000 		.4byte	0x7de
 3093 0e0b 05       		.uleb128 0x5
 3094 0e0c 03       		.byte	0x3
 3095 0e0d 00000000 		.4byte	pxCurrentTimerList
 3096 0e11 24       		.uleb128 0x24
 3097 0e12 32030000 		.4byte	.LASF105
 3098 0e16 01       		.byte	0x1
 3099 0e17 89       		.byte	0x89
 3100 0e18 DE070000 		.4byte	0x7de
 3101 0e1c 05       		.uleb128 0x5
 3102 0e1d 03       		.byte	0x3
 3103 0e1e 04000000 		.4byte	pxOverflowTimerList
 3104 0e22 24       		.uleb128 0x24
 3105 0e23 3F010000 		.4byte	.LASF106
 3106 0e27 01       		.byte	0x1
 3107 0e28 8C       		.byte	0x8c
 3108 0e29 D8010000 		.4byte	0x1d8
 3109 0e2d 05       		.uleb128 0x5
 3110 0e2e 03       		.byte	0x3
 3111 0e2f 08000000 		.4byte	xTimerQueue
 3112 0e33 24       		.uleb128 0x24
 3113 0e34 B5050000 		.4byte	.LASF107
 3114 0e38 01       		.byte	0x1
 3115 0e39 8D       		.byte	0x8d
 3116 0e3a BD010000 		.4byte	0x1bd
 3117 0e3e 05       		.uleb128 0x5
 3118 0e3f 03       		.byte	0x3
 3119 0e40 34000000 		.4byte	xTimerTaskHandle
 3120 0e44 25       		.uleb128 0x25
 3121 0e45 00000000 		.4byte	.LASF108
 3122 0e49 00000000 		.4byte	.LASF108
 3123 0e4d 05       		.byte	0x5
 3124 0e4e 7301     		.2byte	0x173
 3125 0e50 26       		.uleb128 0x26
 3126 0e51 4B010000 		.4byte	.LASF109
 3127 0e55 4B010000 		.4byte	.LASF109
 3128 0e59 04       		.byte	0x4
 3129 0e5a 62       		.byte	0x62
ARM GAS  C:\Users\u0036181\AppData\Local\Temp\cch2Rq0R.s 			page 77


 3130 0e5b 25       		.uleb128 0x25
 3131 0e5c A0070000 		.4byte	.LASF110
 3132 0e60 A0070000 		.4byte	.LASF110
 3133 0e64 05       		.byte	0x5
 3134 0e65 5B01     		.2byte	0x15b
 3135 0e67 25       		.uleb128 0x25
 3136 0e68 F0040000 		.4byte	.LASF111
 3137 0e6c F0040000 		.4byte	.LASF111
 3138 0e70 07       		.byte	0x7
 3139 0e71 0706     		.2byte	0x607
 3140 0e73 25       		.uleb128 0x25
 3141 0e74 4B050000 		.4byte	.LASF112
 3142 0e78 4B050000 		.4byte	.LASF112
 3143 0e7c 07       		.byte	0x7
 3144 0e7d E005     		.2byte	0x5e0
 3145 0e7f 26       		.uleb128 0x26
 3146 0e80 54000000 		.4byte	.LASF113
 3147 0e84 54000000 		.4byte	.LASF113
 3148 0e88 04       		.byte	0x4
 3149 0e89 63       		.byte	0x63
 3150 0e8a 25       		.uleb128 0x25
 3151 0e8b 0C060000 		.4byte	.LASF114
 3152 0e8f 0C060000 		.4byte	.LASF114
 3153 0e93 05       		.byte	0x5
 3154 0e94 6601     		.2byte	0x166
 3155 0e96 25       		.uleb128 0x25
 3156 0e97 B3040000 		.4byte	.LASF115
 3157 0e9b B3040000 		.4byte	.LASF115
 3158 0e9f 06       		.byte	0x6
 3159 0ea0 5401     		.2byte	0x154
 3160 0ea2 26       		.uleb128 0x26
 3161 0ea3 51020000 		.4byte	.LASF116
 3162 0ea7 51020000 		.4byte	.LASF116
 3163 0eab 09       		.byte	0x9
 3164 0eac B0       		.byte	0xb0
 3165 0ead 25       		.uleb128 0x25
 3166 0eae C4000000 		.4byte	.LASF117
 3167 0eb2 C4000000 		.4byte	.LASF117
 3168 0eb6 06       		.byte	0x6
 3169 0eb7 8C0B     		.2byte	0xb8c
 3170 0eb9 25       		.uleb128 0x25
 3171 0eba E0030000 		.4byte	.LASF118
 3172 0ebe E0030000 		.4byte	.LASF118
 3173 0ec2 07       		.byte	0x7
 3174 0ec3 8F02     		.2byte	0x28f
 3175 0ec5 25       		.uleb128 0x25
 3176 0ec6 4C030000 		.4byte	.LASF119
 3177 0eca 4C030000 		.4byte	.LASF119
 3178 0ece 07       		.byte	0x7
 3179 0ecf 2905     		.2byte	0x529
 3180 0ed1 25       		.uleb128 0x25
 3181 0ed2 1C070000 		.4byte	.LASF120
 3182 0ed6 1C070000 		.4byte	.LASF120
 3183 0eda 05       		.byte	0x5
 3184 0edb 9901     		.2byte	0x199
 3185 0edd 25       		.uleb128 0x25
 3186 0ede 04050000 		.4byte	.LASF121
ARM GAS  C:\Users\u0036181\AppData\Local\Temp\cch2Rq0R.s 			page 78


 3187 0ee2 04050000 		.4byte	.LASF121
 3188 0ee6 06       		.byte	0x6
 3189 0ee7 8205     		.2byte	0x582
 3190 0ee9 25       		.uleb128 0x25
 3191 0eea 5E020000 		.4byte	.LASF122
 3192 0eee 5E020000 		.4byte	.LASF122
 3193 0ef2 06       		.byte	0x6
 3194 0ef3 3B05     		.2byte	0x53b
 3195 0ef5 25       		.uleb128 0x25
 3196 0ef6 62060000 		.4byte	.LASF123
 3197 0efa 62060000 		.4byte	.LASF123
 3198 0efe 06       		.byte	0x6
 3199 0eff 7305     		.2byte	0x573
 3200 0f01 25       		.uleb128 0x25
 3201 0f02 E3050000 		.4byte	.LASF124
 3202 0f06 E3050000 		.4byte	.LASF124
 3203 0f0a 07       		.byte	0x7
 3204 0f0b A306     		.2byte	0x6a3
 3205 0f0d 26       		.uleb128 0x26
 3206 0f0e 8D060000 		.4byte	.LASF125
 3207 0f12 8D060000 		.4byte	.LASF125
 3208 0f16 09       		.byte	0x9
 3209 0f17 B1       		.byte	0xb1
 3210 0f18 25       		.uleb128 0x25
 3211 0f19 B6000000 		.4byte	.LASF126
 3212 0f1d B6000000 		.4byte	.LASF126
 3213 0f21 07       		.byte	0x7
 3214 0f22 7203     		.2byte	0x372
 3215 0f24 00       		.byte	0
 3216              		.section	.debug_abbrev,"",%progbits
 3217              	.Ldebug_abbrev0:
 3218 0000 01       		.uleb128 0x1
 3219 0001 11       		.uleb128 0x11
 3220 0002 01       		.byte	0x1
 3221 0003 25       		.uleb128 0x25
 3222 0004 0E       		.uleb128 0xe
 3223 0005 13       		.uleb128 0x13
 3224 0006 0B       		.uleb128 0xb
 3225 0007 03       		.uleb128 0x3
 3226 0008 0E       		.uleb128 0xe
 3227 0009 1B       		.uleb128 0x1b
 3228 000a 0E       		.uleb128 0xe
 3229 000b 55       		.uleb128 0x55
 3230 000c 17       		.uleb128 0x17
 3231 000d 11       		.uleb128 0x11
 3232 000e 01       		.uleb128 0x1
 3233 000f 10       		.uleb128 0x10
 3234 0010 17       		.uleb128 0x17
 3235 0011 00       		.byte	0
 3236 0012 00       		.byte	0
 3237 0013 02       		.uleb128 0x2
 3238 0014 24       		.uleb128 0x24
 3239 0015 00       		.byte	0
 3240 0016 0B       		.uleb128 0xb
 3241 0017 0B       		.uleb128 0xb
 3242 0018 3E       		.uleb128 0x3e
 3243 0019 0B       		.uleb128 0xb
ARM GAS  C:\Users\u0036181\AppData\Local\Temp\cch2Rq0R.s 			page 79


 3244 001a 03       		.uleb128 0x3
 3245 001b 0E       		.uleb128 0xe
 3246 001c 00       		.byte	0
 3247 001d 00       		.byte	0
 3248 001e 03       		.uleb128 0x3
 3249 001f 24       		.uleb128 0x24
 3250 0020 00       		.byte	0
 3251 0021 0B       		.uleb128 0xb
 3252 0022 0B       		.uleb128 0xb
 3253 0023 3E       		.uleb128 0x3e
 3254 0024 0B       		.uleb128 0xb
 3255 0025 03       		.uleb128 0x3
 3256 0026 08       		.uleb128 0x8
 3257 0027 00       		.byte	0
 3258 0028 00       		.byte	0
 3259 0029 04       		.uleb128 0x4
 3260 002a 16       		.uleb128 0x16
 3261 002b 00       		.byte	0
 3262 002c 03       		.uleb128 0x3
 3263 002d 0E       		.uleb128 0xe
 3264 002e 3A       		.uleb128 0x3a
 3265 002f 0B       		.uleb128 0xb
 3266 0030 3B       		.uleb128 0x3b
 3267 0031 0B       		.uleb128 0xb
 3268 0032 49       		.uleb128 0x49
 3269 0033 13       		.uleb128 0x13
 3270 0034 00       		.byte	0
 3271 0035 00       		.byte	0
 3272 0036 05       		.uleb128 0x5
 3273 0037 0F       		.uleb128 0xf
 3274 0038 00       		.byte	0
 3275 0039 0B       		.uleb128 0xb
 3276 003a 0B       		.uleb128 0xb
 3277 003b 00       		.byte	0
 3278 003c 00       		.byte	0
 3279 003d 06       		.uleb128 0x6
 3280 003e 0F       		.uleb128 0xf
 3281 003f 00       		.byte	0
 3282 0040 0B       		.uleb128 0xb
 3283 0041 0B       		.uleb128 0xb
 3284 0042 49       		.uleb128 0x49
 3285 0043 13       		.uleb128 0x13
 3286 0044 00       		.byte	0
 3287 0045 00       		.byte	0
 3288 0046 07       		.uleb128 0x7
 3289 0047 26       		.uleb128 0x26
 3290 0048 00       		.byte	0
 3291 0049 49       		.uleb128 0x49
 3292 004a 13       		.uleb128 0x13
 3293 004b 00       		.byte	0
 3294 004c 00       		.byte	0
 3295 004d 08       		.uleb128 0x8
 3296 004e 13       		.uleb128 0x13
 3297 004f 01       		.byte	0x1
 3298 0050 03       		.uleb128 0x3
 3299 0051 0E       		.uleb128 0xe
 3300 0052 0B       		.uleb128 0xb
ARM GAS  C:\Users\u0036181\AppData\Local\Temp\cch2Rq0R.s 			page 80


 3301 0053 0B       		.uleb128 0xb
 3302 0054 3A       		.uleb128 0x3a
 3303 0055 0B       		.uleb128 0xb
 3304 0056 3B       		.uleb128 0x3b
 3305 0057 0B       		.uleb128 0xb
 3306 0058 01       		.uleb128 0x1
 3307 0059 13       		.uleb128 0x13
 3308 005a 00       		.byte	0
 3309 005b 00       		.byte	0
 3310 005c 09       		.uleb128 0x9
 3311 005d 0D       		.uleb128 0xd
 3312 005e 00       		.byte	0
 3313 005f 03       		.uleb128 0x3
 3314 0060 0E       		.uleb128 0xe
 3315 0061 3A       		.uleb128 0x3a
 3316 0062 0B       		.uleb128 0xb
 3317 0063 3B       		.uleb128 0x3b
 3318 0064 0B       		.uleb128 0xb
 3319 0065 49       		.uleb128 0x49
 3320 0066 13       		.uleb128 0x13
 3321 0067 38       		.uleb128 0x38
 3322 0068 0B       		.uleb128 0xb
 3323 0069 00       		.byte	0
 3324 006a 00       		.byte	0
 3325 006b 0A       		.uleb128 0xa
 3326 006c 35       		.uleb128 0x35
 3327 006d 00       		.byte	0
 3328 006e 49       		.uleb128 0x49
 3329 006f 13       		.uleb128 0x13
 3330 0070 00       		.byte	0
 3331 0071 00       		.byte	0
 3332 0072 0B       		.uleb128 0xb
 3333 0073 13       		.uleb128 0x13
 3334 0074 00       		.byte	0
 3335 0075 03       		.uleb128 0x3
 3336 0076 0E       		.uleb128 0xe
 3337 0077 3C       		.uleb128 0x3c
 3338 0078 19       		.uleb128 0x19
 3339 0079 00       		.byte	0
 3340 007a 00       		.byte	0
 3341 007b 0C       		.uleb128 0xc
 3342 007c 15       		.uleb128 0x15
 3343 007d 01       		.byte	0x1
 3344 007e 27       		.uleb128 0x27
 3345 007f 19       		.uleb128 0x19
 3346 0080 01       		.uleb128 0x1
 3347 0081 13       		.uleb128 0x13
 3348 0082 00       		.byte	0
 3349 0083 00       		.byte	0
 3350 0084 0D       		.uleb128 0xd
 3351 0085 05       		.uleb128 0x5
 3352 0086 00       		.byte	0
 3353 0087 49       		.uleb128 0x49
 3354 0088 13       		.uleb128 0x13
 3355 0089 00       		.byte	0
 3356 008a 00       		.byte	0
 3357 008b 0E       		.uleb128 0xe
ARM GAS  C:\Users\u0036181\AppData\Local\Temp\cch2Rq0R.s 			page 81


 3358 008c 17       		.uleb128 0x17
 3359 008d 01       		.byte	0x1
 3360 008e 0B       		.uleb128 0xb
 3361 008f 0B       		.uleb128 0xb
 3362 0090 3A       		.uleb128 0x3a
 3363 0091 0B       		.uleb128 0xb
 3364 0092 3B       		.uleb128 0x3b
 3365 0093 0B       		.uleb128 0xb
 3366 0094 01       		.uleb128 0x1
 3367 0095 13       		.uleb128 0x13
 3368 0096 00       		.byte	0
 3369 0097 00       		.byte	0
 3370 0098 0F       		.uleb128 0xf
 3371 0099 0D       		.uleb128 0xd
 3372 009a 00       		.byte	0
 3373 009b 03       		.uleb128 0x3
 3374 009c 0E       		.uleb128 0xe
 3375 009d 3A       		.uleb128 0x3a
 3376 009e 0B       		.uleb128 0xb
 3377 009f 3B       		.uleb128 0x3b
 3378 00a0 0B       		.uleb128 0xb
 3379 00a1 49       		.uleb128 0x49
 3380 00a2 13       		.uleb128 0x13
 3381 00a3 00       		.byte	0
 3382 00a4 00       		.byte	0
 3383 00a5 10       		.uleb128 0x10
 3384 00a6 0D       		.uleb128 0xd
 3385 00a7 00       		.byte	0
 3386 00a8 03       		.uleb128 0x3
 3387 00a9 08       		.uleb128 0x8
 3388 00aa 3A       		.uleb128 0x3a
 3389 00ab 0B       		.uleb128 0xb
 3390 00ac 3B       		.uleb128 0x3b
 3391 00ad 0B       		.uleb128 0xb
 3392 00ae 49       		.uleb128 0x49
 3393 00af 13       		.uleb128 0x13
 3394 00b0 38       		.uleb128 0x38
 3395 00b1 0B       		.uleb128 0xb
 3396 00b2 00       		.byte	0
 3397 00b3 00       		.byte	0
 3398 00b4 11       		.uleb128 0x11
 3399 00b5 2E       		.uleb128 0x2e
 3400 00b6 01       		.byte	0x1
 3401 00b7 03       		.uleb128 0x3
 3402 00b8 0E       		.uleb128 0xe
 3403 00b9 3A       		.uleb128 0x3a
 3404 00ba 0B       		.uleb128 0xb
 3405 00bb 3B       		.uleb128 0x3b
 3406 00bc 05       		.uleb128 0x5
 3407 00bd 27       		.uleb128 0x27
 3408 00be 19       		.uleb128 0x19
 3409 00bf 49       		.uleb128 0x49
 3410 00c0 13       		.uleb128 0x13
 3411 00c1 11       		.uleb128 0x11
 3412 00c2 01       		.uleb128 0x1
 3413 00c3 12       		.uleb128 0x12
 3414 00c4 06       		.uleb128 0x6
ARM GAS  C:\Users\u0036181\AppData\Local\Temp\cch2Rq0R.s 			page 82


 3415 00c5 40       		.uleb128 0x40
 3416 00c6 18       		.uleb128 0x18
 3417 00c7 9742     		.uleb128 0x2117
 3418 00c9 19       		.uleb128 0x19
 3419 00ca 01       		.uleb128 0x1
 3420 00cb 13       		.uleb128 0x13
 3421 00cc 00       		.byte	0
 3422 00cd 00       		.byte	0
 3423 00ce 12       		.uleb128 0x12
 3424 00cf 05       		.uleb128 0x5
 3425 00d0 00       		.byte	0
 3426 00d1 03       		.uleb128 0x3
 3427 00d2 0E       		.uleb128 0xe
 3428 00d3 3A       		.uleb128 0x3a
 3429 00d4 0B       		.uleb128 0xb
 3430 00d5 3B       		.uleb128 0x3b
 3431 00d6 05       		.uleb128 0x5
 3432 00d7 49       		.uleb128 0x49
 3433 00d8 13       		.uleb128 0x13
 3434 00d9 02       		.uleb128 0x2
 3435 00da 17       		.uleb128 0x17
 3436 00db 00       		.byte	0
 3437 00dc 00       		.byte	0
 3438 00dd 13       		.uleb128 0x13
 3439 00de 34       		.uleb128 0x34
 3440 00df 00       		.byte	0
 3441 00e0 03       		.uleb128 0x3
 3442 00e1 0E       		.uleb128 0xe
 3443 00e2 3A       		.uleb128 0x3a
 3444 00e3 0B       		.uleb128 0xb
 3445 00e4 3B       		.uleb128 0x3b
 3446 00e5 05       		.uleb128 0x5
 3447 00e6 49       		.uleb128 0x49
 3448 00e7 13       		.uleb128 0x13
 3449 00e8 02       		.uleb128 0x2
 3450 00e9 17       		.uleb128 0x17
 3451 00ea 00       		.byte	0
 3452 00eb 00       		.byte	0
 3453 00ec 14       		.uleb128 0x14
 3454 00ed 898201   		.uleb128 0x4109
 3455 00f0 01       		.byte	0x1
 3456 00f1 11       		.uleb128 0x11
 3457 00f2 01       		.uleb128 0x1
 3458 00f3 31       		.uleb128 0x31
 3459 00f4 13       		.uleb128 0x13
 3460 00f5 01       		.uleb128 0x1
 3461 00f6 13       		.uleb128 0x13
 3462 00f7 00       		.byte	0
 3463 00f8 00       		.byte	0
 3464 00f9 15       		.uleb128 0x15
 3465 00fa 8A8201   		.uleb128 0x410a
 3466 00fd 00       		.byte	0
 3467 00fe 02       		.uleb128 0x2
 3468 00ff 18       		.uleb128 0x18
 3469 0100 9142     		.uleb128 0x2111
 3470 0102 18       		.uleb128 0x18
 3471 0103 00       		.byte	0
ARM GAS  C:\Users\u0036181\AppData\Local\Temp\cch2Rq0R.s 			page 83


 3472 0104 00       		.byte	0
 3473 0105 16       		.uleb128 0x16
 3474 0106 898201   		.uleb128 0x4109
 3475 0109 01       		.byte	0x1
 3476 010a 11       		.uleb128 0x11
 3477 010b 01       		.uleb128 0x1
 3478 010c 31       		.uleb128 0x31
 3479 010d 13       		.uleb128 0x13
 3480 010e 00       		.byte	0
 3481 010f 00       		.byte	0
 3482 0110 17       		.uleb128 0x17
 3483 0111 2E       		.uleb128 0x2e
 3484 0112 01       		.byte	0x1
 3485 0113 03       		.uleb128 0x3
 3486 0114 0E       		.uleb128 0xe
 3487 0115 3A       		.uleb128 0x3a
 3488 0116 0B       		.uleb128 0xb
 3489 0117 3B       		.uleb128 0x3b
 3490 0118 05       		.uleb128 0x5
 3491 0119 27       		.uleb128 0x27
 3492 011a 19       		.uleb128 0x19
 3493 011b 11       		.uleb128 0x11
 3494 011c 01       		.uleb128 0x1
 3495 011d 12       		.uleb128 0x12
 3496 011e 06       		.uleb128 0x6
 3497 011f 40       		.uleb128 0x40
 3498 0120 18       		.uleb128 0x18
 3499 0121 9742     		.uleb128 0x2117
 3500 0123 19       		.uleb128 0x19
 3501 0124 01       		.uleb128 0x1
 3502 0125 13       		.uleb128 0x13
 3503 0126 00       		.byte	0
 3504 0127 00       		.byte	0
 3505 0128 18       		.uleb128 0x18
 3506 0129 898201   		.uleb128 0x4109
 3507 012c 00       		.byte	0
 3508 012d 11       		.uleb128 0x11
 3509 012e 01       		.uleb128 0x1
 3510 012f 31       		.uleb128 0x31
 3511 0130 13       		.uleb128 0x13
 3512 0131 00       		.byte	0
 3513 0132 00       		.byte	0
 3514 0133 19       		.uleb128 0x19
 3515 0134 05       		.uleb128 0x5
 3516 0135 00       		.byte	0
 3517 0136 03       		.uleb128 0x3
 3518 0137 0E       		.uleb128 0xe
 3519 0138 3A       		.uleb128 0x3a
 3520 0139 0B       		.uleb128 0xb
 3521 013a 3B       		.uleb128 0x3b
 3522 013b 05       		.uleb128 0x5
 3523 013c 49       		.uleb128 0x49
 3524 013d 13       		.uleb128 0x13
 3525 013e 02       		.uleb128 0x2
 3526 013f 18       		.uleb128 0x18
 3527 0140 00       		.byte	0
 3528 0141 00       		.byte	0
ARM GAS  C:\Users\u0036181\AppData\Local\Temp\cch2Rq0R.s 			page 84


 3529 0142 1A       		.uleb128 0x1a
 3530 0143 2E       		.uleb128 0x2e
 3531 0144 01       		.byte	0x1
 3532 0145 3F       		.uleb128 0x3f
 3533 0146 19       		.uleb128 0x19
 3534 0147 03       		.uleb128 0x3
 3535 0148 0E       		.uleb128 0xe
 3536 0149 3A       		.uleb128 0x3a
 3537 014a 0B       		.uleb128 0xb
 3538 014b 3B       		.uleb128 0x3b
 3539 014c 0B       		.uleb128 0xb
 3540 014d 27       		.uleb128 0x27
 3541 014e 19       		.uleb128 0x19
 3542 014f 49       		.uleb128 0x49
 3543 0150 13       		.uleb128 0x13
 3544 0151 11       		.uleb128 0x11
 3545 0152 01       		.uleb128 0x1
 3546 0153 12       		.uleb128 0x12
 3547 0154 06       		.uleb128 0x6
 3548 0155 40       		.uleb128 0x40
 3549 0156 18       		.uleb128 0x18
 3550 0157 9742     		.uleb128 0x2117
 3551 0159 19       		.uleb128 0x19
 3552 015a 01       		.uleb128 0x1
 3553 015b 13       		.uleb128 0x13
 3554 015c 00       		.byte	0
 3555 015d 00       		.byte	0
 3556 015e 1B       		.uleb128 0x1b
 3557 015f 34       		.uleb128 0x34
 3558 0160 00       		.byte	0
 3559 0161 03       		.uleb128 0x3
 3560 0162 0E       		.uleb128 0xe
 3561 0163 3A       		.uleb128 0x3a
 3562 0164 0B       		.uleb128 0xb
 3563 0165 3B       		.uleb128 0x3b
 3564 0166 0B       		.uleb128 0xb
 3565 0167 49       		.uleb128 0x49
 3566 0168 13       		.uleb128 0x13
 3567 0169 02       		.uleb128 0x2
 3568 016a 17       		.uleb128 0x17
 3569 016b 00       		.byte	0
 3570 016c 00       		.byte	0
 3571 016d 1C       		.uleb128 0x1c
 3572 016e 2E       		.uleb128 0x2e
 3573 016f 01       		.byte	0x1
 3574 0170 3F       		.uleb128 0x3f
 3575 0171 19       		.uleb128 0x19
 3576 0172 03       		.uleb128 0x3
 3577 0173 0E       		.uleb128 0xe
 3578 0174 3A       		.uleb128 0x3a
 3579 0175 0B       		.uleb128 0xb
 3580 0176 3B       		.uleb128 0x3b
 3581 0177 05       		.uleb128 0x5
 3582 0178 27       		.uleb128 0x27
 3583 0179 19       		.uleb128 0x19
 3584 017a 49       		.uleb128 0x49
 3585 017b 13       		.uleb128 0x13
ARM GAS  C:\Users\u0036181\AppData\Local\Temp\cch2Rq0R.s 			page 85


 3586 017c 11       		.uleb128 0x11
 3587 017d 01       		.uleb128 0x1
 3588 017e 12       		.uleb128 0x12
 3589 017f 06       		.uleb128 0x6
 3590 0180 40       		.uleb128 0x40
 3591 0181 18       		.uleb128 0x18
 3592 0182 9742     		.uleb128 0x2117
 3593 0184 19       		.uleb128 0x19
 3594 0185 01       		.uleb128 0x1
 3595 0186 13       		.uleb128 0x13
 3596 0187 00       		.byte	0
 3597 0188 00       		.byte	0
 3598 0189 1D       		.uleb128 0x1d
 3599 018a 34       		.uleb128 0x34
 3600 018b 00       		.byte	0
 3601 018c 03       		.uleb128 0x3
 3602 018d 0E       		.uleb128 0xe
 3603 018e 3A       		.uleb128 0x3a
 3604 018f 0B       		.uleb128 0xb
 3605 0190 3B       		.uleb128 0x3b
 3606 0191 05       		.uleb128 0x5
 3607 0192 49       		.uleb128 0x49
 3608 0193 13       		.uleb128 0x13
 3609 0194 02       		.uleb128 0x2
 3610 0195 18       		.uleb128 0x18
 3611 0196 00       		.byte	0
 3612 0197 00       		.byte	0
 3613 0198 1E       		.uleb128 0x1e
 3614 0199 34       		.uleb128 0x34
 3615 019a 00       		.byte	0
 3616 019b 03       		.uleb128 0x3
 3617 019c 0E       		.uleb128 0xe
 3618 019d 3A       		.uleb128 0x3a
 3619 019e 0B       		.uleb128 0xb
 3620 019f 3B       		.uleb128 0x3b
 3621 01a0 05       		.uleb128 0x5
 3622 01a1 49       		.uleb128 0x49
 3623 01a2 13       		.uleb128 0x13
 3624 01a3 00       		.byte	0
 3625 01a4 00       		.byte	0
 3626 01a5 1F       		.uleb128 0x1f
 3627 01a6 898201   		.uleb128 0x4109
 3628 01a9 01       		.byte	0x1
 3629 01aa 11       		.uleb128 0x11
 3630 01ab 01       		.uleb128 0x1
 3631 01ac 01       		.uleb128 0x1
 3632 01ad 13       		.uleb128 0x13
 3633 01ae 00       		.byte	0
 3634 01af 00       		.byte	0
 3635 01b0 20       		.uleb128 0x20
 3636 01b1 898201   		.uleb128 0x4109
 3637 01b4 01       		.byte	0x1
 3638 01b5 11       		.uleb128 0x11
 3639 01b6 01       		.uleb128 0x1
 3640 01b7 00       		.byte	0
 3641 01b8 00       		.byte	0
 3642 01b9 21       		.uleb128 0x21
ARM GAS  C:\Users\u0036181\AppData\Local\Temp\cch2Rq0R.s 			page 86


 3643 01ba 2E       		.uleb128 0x2e
 3644 01bb 01       		.byte	0x1
 3645 01bc 03       		.uleb128 0x3
 3646 01bd 0E       		.uleb128 0xe
 3647 01be 3A       		.uleb128 0x3a
 3648 01bf 0B       		.uleb128 0xb
 3649 01c0 3B       		.uleb128 0x3b
 3650 01c1 05       		.uleb128 0x5
 3651 01c2 27       		.uleb128 0x27
 3652 01c3 19       		.uleb128 0x19
 3653 01c4 8701     		.uleb128 0x87
 3654 01c6 19       		.uleb128 0x19
 3655 01c7 11       		.uleb128 0x11
 3656 01c8 01       		.uleb128 0x1
 3657 01c9 12       		.uleb128 0x12
 3658 01ca 06       		.uleb128 0x6
 3659 01cb 40       		.uleb128 0x40
 3660 01cc 18       		.uleb128 0x18
 3661 01cd 9742     		.uleb128 0x2117
 3662 01cf 19       		.uleb128 0x19
 3663 01d0 01       		.uleb128 0x1
 3664 01d1 13       		.uleb128 0x13
 3665 01d2 00       		.byte	0
 3666 01d3 00       		.byte	0
 3667 01d4 22       		.uleb128 0x22
 3668 01d5 2E       		.uleb128 0x2e
 3669 01d6 00       		.byte	0
 3670 01d7 3F       		.uleb128 0x3f
 3671 01d8 19       		.uleb128 0x19
 3672 01d9 03       		.uleb128 0x3
 3673 01da 0E       		.uleb128 0xe
 3674 01db 3A       		.uleb128 0x3a
 3675 01dc 0B       		.uleb128 0xb
 3676 01dd 3B       		.uleb128 0x3b
 3677 01de 05       		.uleb128 0x5
 3678 01df 27       		.uleb128 0x27
 3679 01e0 19       		.uleb128 0x19
 3680 01e1 49       		.uleb128 0x49
 3681 01e2 13       		.uleb128 0x13
 3682 01e3 11       		.uleb128 0x11
 3683 01e4 01       		.uleb128 0x1
 3684 01e5 12       		.uleb128 0x12
 3685 01e6 06       		.uleb128 0x6
 3686 01e7 40       		.uleb128 0x40
 3687 01e8 18       		.uleb128 0x18
 3688 01e9 9742     		.uleb128 0x2117
 3689 01eb 19       		.uleb128 0x19
 3690 01ec 00       		.byte	0
 3691 01ed 00       		.byte	0
 3692 01ee 23       		.uleb128 0x23
 3693 01ef 2E       		.uleb128 0x2e
 3694 01f0 01       		.byte	0x1
 3695 01f1 3F       		.uleb128 0x3f
 3696 01f2 19       		.uleb128 0x19
 3697 01f3 03       		.uleb128 0x3
 3698 01f4 0E       		.uleb128 0xe
 3699 01f5 3A       		.uleb128 0x3a
ARM GAS  C:\Users\u0036181\AppData\Local\Temp\cch2Rq0R.s 			page 87


 3700 01f6 0B       		.uleb128 0xb
 3701 01f7 3B       		.uleb128 0x3b
 3702 01f8 05       		.uleb128 0x5
 3703 01f9 27       		.uleb128 0x27
 3704 01fa 19       		.uleb128 0x19
 3705 01fb 11       		.uleb128 0x11
 3706 01fc 01       		.uleb128 0x1
 3707 01fd 12       		.uleb128 0x12
 3708 01fe 06       		.uleb128 0x6
 3709 01ff 40       		.uleb128 0x40
 3710 0200 18       		.uleb128 0x18
 3711 0201 9742     		.uleb128 0x2117
 3712 0203 19       		.uleb128 0x19
 3713 0204 01       		.uleb128 0x1
 3714 0205 13       		.uleb128 0x13
 3715 0206 00       		.byte	0
 3716 0207 00       		.byte	0
 3717 0208 24       		.uleb128 0x24
 3718 0209 34       		.uleb128 0x34
 3719 020a 00       		.byte	0
 3720 020b 03       		.uleb128 0x3
 3721 020c 0E       		.uleb128 0xe
 3722 020d 3A       		.uleb128 0x3a
 3723 020e 0B       		.uleb128 0xb
 3724 020f 3B       		.uleb128 0x3b
 3725 0210 0B       		.uleb128 0xb
 3726 0211 49       		.uleb128 0x49
 3727 0212 13       		.uleb128 0x13
 3728 0213 02       		.uleb128 0x2
 3729 0214 18       		.uleb128 0x18
 3730 0215 00       		.byte	0
 3731 0216 00       		.byte	0
 3732 0217 25       		.uleb128 0x25
 3733 0218 2E       		.uleb128 0x2e
 3734 0219 00       		.byte	0
 3735 021a 3F       		.uleb128 0x3f
 3736 021b 19       		.uleb128 0x19
 3737 021c 3C       		.uleb128 0x3c
 3738 021d 19       		.uleb128 0x19
 3739 021e 6E       		.uleb128 0x6e
 3740 021f 0E       		.uleb128 0xe
 3741 0220 03       		.uleb128 0x3
 3742 0221 0E       		.uleb128 0xe
 3743 0222 3A       		.uleb128 0x3a
 3744 0223 0B       		.uleb128 0xb
 3745 0224 3B       		.uleb128 0x3b
 3746 0225 05       		.uleb128 0x5
 3747 0226 00       		.byte	0
 3748 0227 00       		.byte	0
 3749 0228 26       		.uleb128 0x26
 3750 0229 2E       		.uleb128 0x2e
 3751 022a 00       		.byte	0
 3752 022b 3F       		.uleb128 0x3f
 3753 022c 19       		.uleb128 0x19
 3754 022d 3C       		.uleb128 0x3c
 3755 022e 19       		.uleb128 0x19
 3756 022f 6E       		.uleb128 0x6e
ARM GAS  C:\Users\u0036181\AppData\Local\Temp\cch2Rq0R.s 			page 88


 3757 0230 0E       		.uleb128 0xe
 3758 0231 03       		.uleb128 0x3
 3759 0232 0E       		.uleb128 0xe
 3760 0233 3A       		.uleb128 0x3a
 3761 0234 0B       		.uleb128 0xb
 3762 0235 3B       		.uleb128 0x3b
 3763 0236 0B       		.uleb128 0xb
 3764 0237 00       		.byte	0
 3765 0238 00       		.byte	0
 3766 0239 00       		.byte	0
 3767              		.section	.debug_loc,"",%progbits
 3768              	.Ldebug_loc0:
 3769              	.LLST0:
 3770 0000 00000000 		.4byte	.LVL0
 3771 0004 16000000 		.4byte	.LVL1
 3772 0008 0100     		.2byte	0x1
 3773 000a 50       		.byte	0x50
 3774 000b 16000000 		.4byte	.LVL1
 3775 000f 18000000 		.4byte	.LVL2
 3776 0013 0400     		.2byte	0x4
 3777 0015 F3       		.byte	0xf3
 3778 0016 01       		.uleb128 0x1
 3779 0017 50       		.byte	0x50
 3780 0018 9F       		.byte	0x9f
 3781 0019 18000000 		.4byte	.LVL2
 3782 001d 1A000000 		.4byte	.LVL3
 3783 0021 0100     		.2byte	0x1
 3784 0023 50       		.byte	0x50
 3785 0024 1A000000 		.4byte	.LVL3
 3786 0028 20000000 		.4byte	.LFE17
 3787 002c 0400     		.2byte	0x4
 3788 002e F3       		.byte	0xf3
 3789 002f 01       		.uleb128 0x1
 3790 0030 50       		.byte	0x50
 3791 0031 9F       		.byte	0x9f
 3792 0032 00000000 		.4byte	0
 3793 0036 00000000 		.4byte	0
 3794              	.LLST1:
 3795 003a 16000000 		.4byte	.LVL1
 3796 003e 18000000 		.4byte	.LVL2
 3797 0042 0100     		.2byte	0x1
 3798 0044 50       		.byte	0x50
 3799 0045 1A000000 		.4byte	.LVL3
 3800 0049 20000000 		.4byte	.LFE17
 3801 004d 0100     		.2byte	0x1
 3802 004f 50       		.byte	0x50
 3803 0050 00000000 		.4byte	0
 3804 0054 00000000 		.4byte	0
 3805              	.LLST2:
 3806 0058 00000000 		.4byte	.LVL4
 3807 005c 18000000 		.4byte	.LVL9
 3808 0060 0100     		.2byte	0x1
 3809 0062 50       		.byte	0x50
 3810 0063 18000000 		.4byte	.LVL9
 3811 0067 1B000000 		.4byte	.LVL10-1
 3812 006b 0300     		.2byte	0x3
 3813 006d 71       		.byte	0x71
ARM GAS  C:\Users\u0036181\AppData\Local\Temp\cch2Rq0R.s 			page 89


 3814 006e 7C       		.sleb128 -4
 3815 006f 9F       		.byte	0x9f
 3816 0070 1B000000 		.4byte	.LVL10-1
 3817 0074 20000000 		.4byte	.LVL11
 3818 0078 0400     		.2byte	0x4
 3819 007a F3       		.byte	0xf3
 3820 007b 01       		.uleb128 0x1
 3821 007c 50       		.byte	0x50
 3822 007d 9F       		.byte	0x9f
 3823 007e 20000000 		.4byte	.LVL11
 3824 0082 2E000000 		.4byte	.LVL14
 3825 0086 0100     		.2byte	0x1
 3826 0088 50       		.byte	0x50
 3827 0089 2E000000 		.4byte	.LVL14
 3828 008d 31000000 		.4byte	.LVL15-1
 3829 0091 0300     		.2byte	0x3
 3830 0093 71       		.byte	0x71
 3831 0094 7C       		.sleb128 -4
 3832 0095 9F       		.byte	0x9f
 3833 0096 31000000 		.4byte	.LVL15-1
 3834 009a 36000000 		.4byte	.LVL16
 3835 009e 0400     		.2byte	0x4
 3836 00a0 F3       		.byte	0xf3
 3837 00a1 01       		.uleb128 0x1
 3838 00a2 50       		.byte	0x50
 3839 00a3 9F       		.byte	0x9f
 3840 00a4 36000000 		.4byte	.LVL16
 3841 00a8 38000000 		.4byte	.LVL17
 3842 00ac 0100     		.2byte	0x1
 3843 00ae 50       		.byte	0x50
 3844 00af 38000000 		.4byte	.LVL17
 3845 00b3 3A000000 		.4byte	.LVL18
 3846 00b7 0400     		.2byte	0x4
 3847 00b9 F3       		.byte	0xf3
 3848 00ba 01       		.uleb128 0x1
 3849 00bb 50       		.byte	0x50
 3850 00bc 9F       		.byte	0x9f
 3851 00bd 3A000000 		.4byte	.LVL18
 3852 00c1 3C000000 		.4byte	.LVL19
 3853 00c5 0100     		.2byte	0x1
 3854 00c7 50       		.byte	0x50
 3855 00c8 3C000000 		.4byte	.LVL19
 3856 00cc 44000000 		.4byte	.LFE19
 3857 00d0 0400     		.2byte	0x4
 3858 00d2 F3       		.byte	0xf3
 3859 00d3 01       		.uleb128 0x1
 3860 00d4 50       		.byte	0x50
 3861 00d5 9F       		.byte	0x9f
 3862 00d6 00000000 		.4byte	0
 3863 00da 00000000 		.4byte	0
 3864              	.LLST3:
 3865 00de 00000000 		.4byte	.LVL4
 3866 00e2 14000000 		.4byte	.LVL8
 3867 00e6 0100     		.2byte	0x1
 3868 00e8 51       		.byte	0x51
 3869 00e9 14000000 		.4byte	.LVL8
 3870 00ed 1B000000 		.4byte	.LVL10-1
ARM GAS  C:\Users\u0036181\AppData\Local\Temp\cch2Rq0R.s 			page 90


 3871 00f1 0200     		.2byte	0x2
 3872 00f3 71       		.byte	0x71
 3873 00f4 00       		.sleb128 0
 3874 00f5 1B000000 		.4byte	.LVL10-1
 3875 00f9 20000000 		.4byte	.LVL11
 3876 00fd 0400     		.2byte	0x4
 3877 00ff F3       		.byte	0xf3
 3878 0100 01       		.uleb128 0x1
 3879 0101 51       		.byte	0x51
 3880 0102 9F       		.byte	0x9f
 3881 0103 20000000 		.4byte	.LVL11
 3882 0107 2A000000 		.4byte	.LVL12
 3883 010b 0100     		.2byte	0x1
 3884 010d 51       		.byte	0x51
 3885 010e 2A000000 		.4byte	.LVL12
 3886 0112 2E000000 		.4byte	.LVL14
 3887 0116 0200     		.2byte	0x2
 3888 0118 70       		.byte	0x70
 3889 0119 04       		.sleb128 4
 3890 011a 2E000000 		.4byte	.LVL14
 3891 011e 31000000 		.4byte	.LVL15-1
 3892 0122 0200     		.2byte	0x2
 3893 0124 71       		.byte	0x71
 3894 0125 00       		.sleb128 0
 3895 0126 31000000 		.4byte	.LVL15-1
 3896 012a 36000000 		.4byte	.LVL16
 3897 012e 0400     		.2byte	0x4
 3898 0130 F3       		.byte	0xf3
 3899 0131 01       		.uleb128 0x1
 3900 0132 51       		.byte	0x51
 3901 0133 9F       		.byte	0x9f
 3902 0134 36000000 		.4byte	.LVL16
 3903 0138 44000000 		.4byte	.LFE19
 3904 013c 0100     		.2byte	0x1
 3905 013e 51       		.byte	0x51
 3906 013f 00000000 		.4byte	0
 3907 0143 00000000 		.4byte	0
 3908              	.LLST4:
 3909 0147 00000000 		.4byte	.LVL4
 3910 014b 0C000000 		.4byte	.LVL6
 3911 014f 0100     		.2byte	0x1
 3912 0151 52       		.byte	0x52
 3913 0152 0C000000 		.4byte	.LVL6
 3914 0156 20000000 		.4byte	.LVL11
 3915 015a 0400     		.2byte	0x4
 3916 015c F3       		.byte	0xf3
 3917 015d 01       		.uleb128 0x1
 3918 015e 52       		.byte	0x52
 3919 015f 9F       		.byte	0x9f
 3920 0160 20000000 		.4byte	.LVL11
 3921 0164 31000000 		.4byte	.LVL15-1
 3922 0168 0100     		.2byte	0x1
 3923 016a 52       		.byte	0x52
 3924 016b 31000000 		.4byte	.LVL15-1
 3925 016f 3A000000 		.4byte	.LVL18
 3926 0173 0400     		.2byte	0x4
 3927 0175 F3       		.byte	0xf3
ARM GAS  C:\Users\u0036181\AppData\Local\Temp\cch2Rq0R.s 			page 91


 3928 0176 01       		.uleb128 0x1
 3929 0177 52       		.byte	0x52
 3930 0178 9F       		.byte	0x9f
 3931 0179 3A000000 		.4byte	.LVL18
 3932 017d 44000000 		.4byte	.LFE19
 3933 0181 0100     		.2byte	0x1
 3934 0183 52       		.byte	0x52
 3935 0184 00000000 		.4byte	0
 3936 0188 00000000 		.4byte	0
 3937              	.LLST5:
 3938 018c 00000000 		.4byte	.LVL4
 3939 0190 0E000000 		.4byte	.LVL7
 3940 0194 0100     		.2byte	0x1
 3941 0196 53       		.byte	0x53
 3942 0197 0E000000 		.4byte	.LVL7
 3943 019b 20000000 		.4byte	.LVL11
 3944 019f 0400     		.2byte	0x4
 3945 01a1 F3       		.byte	0xf3
 3946 01a2 01       		.uleb128 0x1
 3947 01a3 53       		.byte	0x53
 3948 01a4 9F       		.byte	0x9f
 3949 01a5 20000000 		.4byte	.LVL11
 3950 01a9 2C000000 		.4byte	.LVL13
 3951 01ad 0100     		.2byte	0x1
 3952 01af 53       		.byte	0x53
 3953 01b0 2C000000 		.4byte	.LVL13
 3954 01b4 3A000000 		.4byte	.LVL18
 3955 01b8 0400     		.2byte	0x4
 3956 01ba F3       		.byte	0xf3
 3957 01bb 01       		.uleb128 0x1
 3958 01bc 53       		.byte	0x53
 3959 01bd 9F       		.byte	0x9f
 3960 01be 3A000000 		.4byte	.LVL18
 3961 01c2 3E000000 		.4byte	.LVL20
 3962 01c6 0100     		.2byte	0x1
 3963 01c8 53       		.byte	0x53
 3964 01c9 3E000000 		.4byte	.LVL20
 3965 01cd 44000000 		.4byte	.LFE19
 3966 01d1 0400     		.2byte	0x4
 3967 01d3 F3       		.byte	0xf3
 3968 01d4 01       		.uleb128 0x1
 3969 01d5 53       		.byte	0x53
 3970 01d6 9F       		.byte	0x9f
 3971 01d7 00000000 		.4byte	0
 3972 01db 00000000 		.4byte	0
 3973              	.LLST6:
 3974 01df 02000000 		.4byte	.LVL5
 3975 01e3 3C000000 		.4byte	.LVL19
 3976 01e7 0200     		.2byte	0x2
 3977 01e9 30       		.byte	0x30
 3978 01ea 9F       		.byte	0x9f
 3979 01eb 3C000000 		.4byte	.LVL19
 3980 01ef 44000000 		.4byte	.LFE19
 3981 01f3 0100     		.2byte	0x1
 3982 01f5 50       		.byte	0x50
 3983 01f6 00000000 		.4byte	0
 3984 01fa 00000000 		.4byte	0
ARM GAS  C:\Users\u0036181\AppData\Local\Temp\cch2Rq0R.s 			page 92


 3985              	.LLST7:
 3986 01fe 00000000 		.4byte	.LVL27
 3987 0202 13000000 		.4byte	.LVL28-1
 3988 0206 0100     		.2byte	0x1
 3989 0208 50       		.byte	0x50
 3990 0209 13000000 		.4byte	.LVL28-1
 3991 020d 34000000 		.4byte	.LVL30
 3992 0211 0100     		.2byte	0x1
 3993 0213 58       		.byte	0x58
 3994 0214 34000000 		.4byte	.LVL30
 3995 0218 38000000 		.4byte	.LFE6
 3996 021c 0400     		.2byte	0x4
 3997 021e F3       		.byte	0xf3
 3998 021f 01       		.uleb128 0x1
 3999 0220 50       		.byte	0x50
 4000 0221 9F       		.byte	0x9f
 4001 0222 00000000 		.4byte	0
 4002 0226 00000000 		.4byte	0
 4003              	.LLST8:
 4004 022a 00000000 		.4byte	.LVL27
 4005 022e 13000000 		.4byte	.LVL28-1
 4006 0232 0100     		.2byte	0x1
 4007 0234 51       		.byte	0x51
 4008 0235 13000000 		.4byte	.LVL28-1
 4009 0239 34000000 		.4byte	.LVL30
 4010 023d 0100     		.2byte	0x1
 4011 023f 57       		.byte	0x57
 4012 0240 34000000 		.4byte	.LVL30
 4013 0244 38000000 		.4byte	.LFE6
 4014 0248 0400     		.2byte	0x4
 4015 024a F3       		.byte	0xf3
 4016 024b 01       		.uleb128 0x1
 4017 024c 51       		.byte	0x51
 4018 024d 9F       		.byte	0x9f
 4019 024e 00000000 		.4byte	0
 4020 0252 00000000 		.4byte	0
 4021              	.LLST9:
 4022 0256 00000000 		.4byte	.LVL27
 4023 025a 13000000 		.4byte	.LVL28-1
 4024 025e 0100     		.2byte	0x1
 4025 0260 52       		.byte	0x52
 4026 0261 13000000 		.4byte	.LVL28-1
 4027 0265 34000000 		.4byte	.LVL30
 4028 0269 0100     		.2byte	0x1
 4029 026b 55       		.byte	0x55
 4030 026c 34000000 		.4byte	.LVL30
 4031 0270 38000000 		.4byte	.LFE6
 4032 0274 0400     		.2byte	0x4
 4033 0276 F3       		.byte	0xf3
 4034 0277 01       		.uleb128 0x1
 4035 0278 52       		.byte	0x52
 4036 0279 9F       		.byte	0x9f
 4037 027a 00000000 		.4byte	0
 4038 027e 00000000 		.4byte	0
 4039              	.LLST10:
 4040 0282 00000000 		.4byte	.LVL27
 4041 0286 13000000 		.4byte	.LVL28-1
ARM GAS  C:\Users\u0036181\AppData\Local\Temp\cch2Rq0R.s 			page 93


 4042 028a 0100     		.2byte	0x1
 4043 028c 53       		.byte	0x53
 4044 028d 13000000 		.4byte	.LVL28-1
 4045 0291 34000000 		.4byte	.LVL30
 4046 0295 0100     		.2byte	0x1
 4047 0297 56       		.byte	0x56
 4048 0298 34000000 		.4byte	.LVL30
 4049 029c 38000000 		.4byte	.LFE6
 4050 02a0 0400     		.2byte	0x4
 4051 02a2 F3       		.byte	0xf3
 4052 02a3 01       		.uleb128 0x1
 4053 02a4 53       		.byte	0x53
 4054 02a5 9F       		.byte	0x9f
 4055 02a6 00000000 		.4byte	0
 4056 02aa 00000000 		.4byte	0
 4057              	.LLST11:
 4058 02ae 04000000 		.4byte	.LVL31
 4059 02b2 22000000 		.4byte	.LVL33
 4060 02b6 0200     		.2byte	0x2
 4061 02b8 30       		.byte	0x30
 4062 02b9 9F       		.byte	0x9f
 4063 02ba 22000000 		.4byte	.LVL33
 4064 02be 24000000 		.4byte	.LVL34
 4065 02c2 0100     		.2byte	0x1
 4066 02c4 50       		.byte	0x50
 4067 02c5 24000000 		.4byte	.LVL34
 4068 02c9 26000000 		.4byte	.LVL35
 4069 02cd 0200     		.2byte	0x2
 4070 02cf 30       		.byte	0x30
 4071 02d0 9F       		.byte	0x9f
 4072 02d1 26000000 		.4byte	.LVL35
 4073 02d5 3C000000 		.4byte	.LFE4
 4074 02d9 0100     		.2byte	0x1
 4075 02db 50       		.byte	0x50
 4076 02dc 00000000 		.4byte	0
 4077 02e0 00000000 		.4byte	0
 4078              	.LLST12:
 4079 02e4 00000000 		.4byte	.LVL36
 4080 02e8 10000000 		.4byte	.LVL37
 4081 02ec 0100     		.2byte	0x1
 4082 02ee 50       		.byte	0x50
 4083 02ef 10000000 		.4byte	.LVL37
 4084 02f3 38000000 		.4byte	.LFE5
 4085 02f7 0100     		.2byte	0x1
 4086 02f9 55       		.byte	0x55
 4087 02fa 00000000 		.4byte	0
 4088 02fe 00000000 		.4byte	0
 4089              	.LLST13:
 4090 0302 00000000 		.4byte	.LVL36
 4091 0306 13000000 		.4byte	.LVL38-1
 4092 030a 0100     		.2byte	0x1
 4093 030c 51       		.byte	0x51
 4094 030d 13000000 		.4byte	.LVL38-1
 4095 0311 38000000 		.4byte	.LFE5
 4096 0315 0100     		.2byte	0x1
 4097 0317 56       		.byte	0x56
 4098 0318 00000000 		.4byte	0
ARM GAS  C:\Users\u0036181\AppData\Local\Temp\cch2Rq0R.s 			page 94


 4099 031c 00000000 		.4byte	0
 4100              	.LLST14:
 4101 0320 00000000 		.4byte	.LVL36
 4102 0324 13000000 		.4byte	.LVL38-1
 4103 0328 0100     		.2byte	0x1
 4104 032a 52       		.byte	0x52
 4105 032b 13000000 		.4byte	.LVL38-1
 4106 032f 38000000 		.4byte	.LFE5
 4107 0333 0100     		.2byte	0x1
 4108 0335 57       		.byte	0x57
 4109 0336 00000000 		.4byte	0
 4110 033a 00000000 		.4byte	0
 4111              	.LLST15:
 4112 033e 00000000 		.4byte	.LVL36
 4113 0342 13000000 		.4byte	.LVL38-1
 4114 0346 0100     		.2byte	0x1
 4115 0348 53       		.byte	0x53
 4116 0349 13000000 		.4byte	.LVL38-1
 4117 034d 38000000 		.4byte	.LFE5
 4118 0351 0100     		.2byte	0x1
 4119 0353 58       		.byte	0x58
 4120 0354 00000000 		.4byte	0
 4121 0358 00000000 		.4byte	0
 4122              	.LLST16:
 4123 035c 14000000 		.4byte	.LVL38
 4124 0360 2C000000 		.4byte	.LVL39
 4125 0364 0100     		.2byte	0x1
 4126 0366 50       		.byte	0x50
 4127 0367 2C000000 		.4byte	.LVL39
 4128 036b 38000000 		.4byte	.LFE5
 4129 036f 0100     		.2byte	0x1
 4130 0371 54       		.byte	0x54
 4131 0372 00000000 		.4byte	0
 4132 0376 00000000 		.4byte	0
 4133              	.LLST17:
 4134 037a 00000000 		.4byte	.LVL41
 4135 037e 19000000 		.4byte	.LVL43-1
 4136 0382 0100     		.2byte	0x1
 4137 0384 50       		.byte	0x50
 4138 0385 19000000 		.4byte	.LVL43-1
 4139 0389 3E000000 		.4byte	.LVL47
 4140 038d 0400     		.2byte	0x4
 4141 038f F3       		.byte	0xf3
 4142 0390 01       		.uleb128 0x1
 4143 0391 50       		.byte	0x50
 4144 0392 9F       		.byte	0x9f
 4145 0393 3E000000 		.4byte	.LVL47
 4146 0397 46000000 		.4byte	.LVL51
 4147 039b 0100     		.2byte	0x1
 4148 039d 50       		.byte	0x50
 4149 039e 46000000 		.4byte	.LVL51
 4150 03a2 49000000 		.4byte	.LVL52-1
 4151 03a6 0200     		.2byte	0x2
 4152 03a8 91       		.byte	0x91
 4153 03a9 6C       		.sleb128 -20
 4154 03aa 49000000 		.4byte	.LVL52-1
 4155 03ae 4C000000 		.4byte	.LVL53
ARM GAS  C:\Users\u0036181\AppData\Local\Temp\cch2Rq0R.s 			page 95


 4156 03b2 0400     		.2byte	0x4
 4157 03b4 F3       		.byte	0xf3
 4158 03b5 01       		.uleb128 0x1
 4159 03b6 50       		.byte	0x50
 4160 03b7 9F       		.byte	0x9f
 4161 03b8 4C000000 		.4byte	.LVL53
 4162 03bc 4E000000 		.4byte	.LVL54
 4163 03c0 0100     		.2byte	0x1
 4164 03c2 50       		.byte	0x50
 4165 03c3 4E000000 		.4byte	.LVL54
 4166 03c7 58000000 		.4byte	.LFE7
 4167 03cb 0400     		.2byte	0x4
 4168 03cd F3       		.byte	0xf3
 4169 03ce 01       		.uleb128 0x1
 4170 03cf 50       		.byte	0x50
 4171 03d0 9F       		.byte	0x9f
 4172 03d1 00000000 		.4byte	0
 4173 03d5 00000000 		.4byte	0
 4174              	.LLST18:
 4175 03d9 00000000 		.4byte	.LVL41
 4176 03dd 19000000 		.4byte	.LVL43-1
 4177 03e1 0100     		.2byte	0x1
 4178 03e3 51       		.byte	0x51
 4179 03e4 19000000 		.4byte	.LVL43-1
 4180 03e8 3E000000 		.4byte	.LVL47
 4181 03ec 0400     		.2byte	0x4
 4182 03ee F3       		.byte	0xf3
 4183 03ef 01       		.uleb128 0x1
 4184 03f0 51       		.byte	0x51
 4185 03f1 9F       		.byte	0x9f
 4186 03f2 3E000000 		.4byte	.LVL47
 4187 03f6 44000000 		.4byte	.LVL50
 4188 03fa 0100     		.2byte	0x1
 4189 03fc 51       		.byte	0x51
 4190 03fd 44000000 		.4byte	.LVL50
 4191 0401 49000000 		.4byte	.LVL52-1
 4192 0405 0200     		.2byte	0x2
 4193 0407 71       		.byte	0x71
 4194 0408 00       		.sleb128 0
 4195 0409 49000000 		.4byte	.LVL52-1
 4196 040d 4C000000 		.4byte	.LVL53
 4197 0411 0400     		.2byte	0x4
 4198 0413 F3       		.byte	0xf3
 4199 0414 01       		.uleb128 0x1
 4200 0415 51       		.byte	0x51
 4201 0416 9F       		.byte	0x9f
 4202 0417 4C000000 		.4byte	.LVL53
 4203 041b 4E000000 		.4byte	.LVL54
 4204 041f 0100     		.2byte	0x1
 4205 0421 51       		.byte	0x51
 4206 0422 4E000000 		.4byte	.LVL54
 4207 0426 58000000 		.4byte	.LFE7
 4208 042a 0400     		.2byte	0x4
 4209 042c F3       		.byte	0xf3
 4210 042d 01       		.uleb128 0x1
 4211 042e 51       		.byte	0x51
 4212 042f 9F       		.byte	0x9f
ARM GAS  C:\Users\u0036181\AppData\Local\Temp\cch2Rq0R.s 			page 96


 4213 0430 00000000 		.4byte	0
 4214 0434 00000000 		.4byte	0
 4215              	.LLST19:
 4216 0438 00000000 		.4byte	.LVL41
 4217 043c 19000000 		.4byte	.LVL43-1
 4218 0440 0100     		.2byte	0x1
 4219 0442 52       		.byte	0x52
 4220 0443 19000000 		.4byte	.LVL43-1
 4221 0447 3E000000 		.4byte	.LVL47
 4222 044b 0400     		.2byte	0x4
 4223 044d F3       		.byte	0xf3
 4224 044e 01       		.uleb128 0x1
 4225 044f 52       		.byte	0x52
 4226 0450 9F       		.byte	0x9f
 4227 0451 3E000000 		.4byte	.LVL47
 4228 0455 42000000 		.4byte	.LVL49
 4229 0459 0100     		.2byte	0x1
 4230 045b 52       		.byte	0x52
 4231 045c 42000000 		.4byte	.LVL49
 4232 0460 49000000 		.4byte	.LVL52-1
 4233 0464 0200     		.2byte	0x2
 4234 0466 91       		.byte	0x91
 4235 0467 68       		.sleb128 -24
 4236 0468 49000000 		.4byte	.LVL52-1
 4237 046c 4C000000 		.4byte	.LVL53
 4238 0470 0400     		.2byte	0x4
 4239 0472 F3       		.byte	0xf3
 4240 0473 01       		.uleb128 0x1
 4241 0474 52       		.byte	0x52
 4242 0475 9F       		.byte	0x9f
 4243 0476 4C000000 		.4byte	.LVL53
 4244 047a 4E000000 		.4byte	.LVL54
 4245 047e 0100     		.2byte	0x1
 4246 0480 52       		.byte	0x52
 4247 0481 4E000000 		.4byte	.LVL54
 4248 0485 58000000 		.4byte	.LFE7
 4249 0489 0400     		.2byte	0x4
 4250 048b F3       		.byte	0xf3
 4251 048c 01       		.uleb128 0x1
 4252 048d 52       		.byte	0x52
 4253 048e 9F       		.byte	0x9f
 4254 048f 00000000 		.4byte	0
 4255 0493 00000000 		.4byte	0
 4256              	.LLST20:
 4257 0497 00000000 		.4byte	.LVL41
 4258 049b 19000000 		.4byte	.LVL43-1
 4259 049f 0100     		.2byte	0x1
 4260 04a1 53       		.byte	0x53
 4261 04a2 19000000 		.4byte	.LVL43-1
 4262 04a6 3E000000 		.4byte	.LVL47
 4263 04aa 0100     		.2byte	0x1
 4264 04ac 54       		.byte	0x54
 4265 04ad 3E000000 		.4byte	.LVL47
 4266 04b1 40000000 		.4byte	.LVL48
 4267 04b5 0100     		.2byte	0x1
 4268 04b7 53       		.byte	0x53
 4269 04b8 40000000 		.4byte	.LVL48
ARM GAS  C:\Users\u0036181\AppData\Local\Temp\cch2Rq0R.s 			page 97


 4270 04bc 4C000000 		.4byte	.LVL53
 4271 04c0 0100     		.2byte	0x1
 4272 04c2 54       		.byte	0x54
 4273 04c3 4C000000 		.4byte	.LVL53
 4274 04c7 4E000000 		.4byte	.LVL54
 4275 04cb 0100     		.2byte	0x1
 4276 04cd 53       		.byte	0x53
 4277 04ce 4E000000 		.4byte	.LVL54
 4278 04d2 58000000 		.4byte	.LFE7
 4279 04d6 0400     		.2byte	0x4
 4280 04d8 F3       		.byte	0xf3
 4281 04d9 01       		.uleb128 0x1
 4282 04da 53       		.byte	0x53
 4283 04db 9F       		.byte	0x9f
 4284 04dc 00000000 		.4byte	0
 4285 04e0 00000000 		.4byte	0
 4286              	.LLST21:
 4287 04e4 00000000 		.4byte	.LVL41
 4288 04e8 52000000 		.4byte	.LVL55
 4289 04ec 0200     		.2byte	0x2
 4290 04ee 91       		.byte	0x91
 4291 04ef 00       		.sleb128 0
 4292 04f0 52000000 		.4byte	.LVL55
 4293 04f4 58000000 		.4byte	.LFE7
 4294 04f8 0200     		.2byte	0x2
 4295 04fa 7D       		.byte	0x7d
 4296 04fb 00       		.sleb128 0
 4297 04fc 00000000 		.4byte	0
 4298 0500 00000000 		.4byte	0
 4299              	.LLST22:
 4300 0504 04000000 		.4byte	.LVL42
 4301 0508 2C000000 		.4byte	.LVL44
 4302 050c 0200     		.2byte	0x2
 4303 050e 30       		.byte	0x30
 4304 050f 9F       		.byte	0x9f
 4305 0510 2C000000 		.4byte	.LVL44
 4306 0514 2E000000 		.4byte	.LVL45
 4307 0518 0100     		.2byte	0x1
 4308 051a 50       		.byte	0x50
 4309 051b 2E000000 		.4byte	.LVL45
 4310 051f 3C000000 		.4byte	.LVL46
 4311 0523 0200     		.2byte	0x2
 4312 0525 30       		.byte	0x30
 4313 0526 9F       		.byte	0x9f
 4314 0527 3C000000 		.4byte	.LVL46
 4315 052b 3E000000 		.4byte	.LVL47
 4316 052f 0100     		.2byte	0x1
 4317 0531 50       		.byte	0x50
 4318 0532 3E000000 		.4byte	.LVL47
 4319 0536 4A000000 		.4byte	.LVL52
 4320 053a 0200     		.2byte	0x2
 4321 053c 30       		.byte	0x30
 4322 053d 9F       		.byte	0x9f
 4323 053e 4A000000 		.4byte	.LVL52
 4324 0542 4C000000 		.4byte	.LVL53
 4325 0546 0100     		.2byte	0x1
 4326 0548 50       		.byte	0x50
ARM GAS  C:\Users\u0036181\AppData\Local\Temp\cch2Rq0R.s 			page 98


 4327 0549 4C000000 		.4byte	.LVL53
 4328 054d 4E000000 		.4byte	.LVL54
 4329 0551 0200     		.2byte	0x2
 4330 0553 30       		.byte	0x30
 4331 0554 9F       		.byte	0x9f
 4332 0555 4E000000 		.4byte	.LVL54
 4333 0559 58000000 		.4byte	.LFE7
 4334 055d 0100     		.2byte	0x1
 4335 055f 50       		.byte	0x50
 4336 0560 00000000 		.4byte	0
 4337 0564 00000000 		.4byte	0
 4338              	.LLST23:
 4339 0568 0A000000 		.4byte	.LVL56
 4340 056c 4A000000 		.4byte	.LVL65
 4341 0570 0100     		.2byte	0x1
 4342 0572 56       		.byte	0x56
 4343 0573 00000000 		.4byte	0
 4344 0577 00000000 		.4byte	0
 4345              	.LLST24:
 4346 057b 28000000 		.4byte	.LVL60
 4347 057f 34000000 		.4byte	.LVL61
 4348 0583 0100     		.2byte	0x1
 4349 0585 53       		.byte	0x53
 4350 0586 34000000 		.4byte	.LVL61
 4351 058a 39000000 		.4byte	.LVL62-1
 4352 058e 0200     		.2byte	0x2
 4353 0590 75       		.byte	0x75
 4354 0591 00       		.sleb128 0
 4355 0592 3C000000 		.4byte	.LVL63
 4356 0596 42000000 		.4byte	.LVL64
 4357 059a 0100     		.2byte	0x1
 4358 059c 53       		.byte	0x53
 4359 059d 00000000 		.4byte	0
 4360 05a1 00000000 		.4byte	0
 4361              	.LLST25:
 4362 05a5 0C000000 		.4byte	.LVL57
 4363 05a9 4A000000 		.4byte	.LVL65
 4364 05ad 0100     		.2byte	0x1
 4365 05af 54       		.byte	0x54
 4366 05b0 00000000 		.4byte	0
 4367 05b4 00000000 		.4byte	0
 4368              	.LLST26:
 4369 05b8 00000000 		.4byte	.LVL67
 4370 05bc 07000000 		.4byte	.LVL68-1
 4371 05c0 0100     		.2byte	0x1
 4372 05c2 50       		.byte	0x50
 4373 05c3 07000000 		.4byte	.LVL68-1
 4374 05c7 28000000 		.4byte	.LVL73
 4375 05cb 0100     		.2byte	0x1
 4376 05cd 55       		.byte	0x55
 4377 05ce 28000000 		.4byte	.LVL73
 4378 05d2 2C000000 		.4byte	.LFE18
 4379 05d6 0400     		.2byte	0x4
 4380 05d8 F3       		.byte	0xf3
 4381 05d9 01       		.uleb128 0x1
 4382 05da 50       		.byte	0x50
 4383 05db 9F       		.byte	0x9f
ARM GAS  C:\Users\u0036181\AppData\Local\Temp\cch2Rq0R.s 			page 99


 4384 05dc 00000000 		.4byte	0
 4385 05e0 00000000 		.4byte	0
 4386              	.LLST27:
 4387 05e4 0A000000 		.4byte	.LVL69
 4388 05e8 15000000 		.4byte	.LVL70-1
 4389 05ec 0100     		.2byte	0x1
 4390 05ee 50       		.byte	0x50
 4391 05ef 15000000 		.4byte	.LVL70-1
 4392 05f3 1C000000 		.4byte	.LVL71
 4393 05f7 0100     		.2byte	0x1
 4394 05f9 54       		.byte	0x54
 4395 05fa 1C000000 		.4byte	.LVL71
 4396 05fe 20000000 		.4byte	.LVL72
 4397 0602 0100     		.2byte	0x1
 4398 0604 50       		.byte	0x50
 4399 0605 20000000 		.4byte	.LVL72
 4400 0609 28000000 		.4byte	.LVL73
 4401 060d 0100     		.2byte	0x1
 4402 060f 54       		.byte	0x54
 4403 0610 28000000 		.4byte	.LVL73
 4404 0614 2C000000 		.4byte	.LFE18
 4405 0618 0100     		.2byte	0x1
 4406 061a 50       		.byte	0x50
 4407 061b 00000000 		.4byte	0
 4408 061f 00000000 		.4byte	0
 4409              	.LLST28:
 4410 0623 00000000 		.4byte	.LVL74
 4411 0627 12000000 		.4byte	.LVL76
 4412 062b 0100     		.2byte	0x1
 4413 062d 50       		.byte	0x50
 4414 062e 12000000 		.4byte	.LVL76
 4415 0632 52000000 		.4byte	.LVL81
 4416 0636 0100     		.2byte	0x1
 4417 0638 55       		.byte	0x55
 4418 0639 52000000 		.4byte	.LVL81
 4419 063d 58000000 		.4byte	.LFE14
 4420 0641 0400     		.2byte	0x4
 4421 0643 F3       		.byte	0xf3
 4422 0644 01       		.uleb128 0x1
 4423 0645 50       		.byte	0x50
 4424 0646 9F       		.byte	0x9f
 4425 0647 00000000 		.4byte	0
 4426 064b 00000000 		.4byte	0
 4427              	.LLST29:
 4428 064f 00000000 		.4byte	.LVL74
 4429 0653 15000000 		.4byte	.LVL77-1
 4430 0657 0100     		.2byte	0x1
 4431 0659 51       		.byte	0x51
 4432 065a 15000000 		.4byte	.LVL77-1
 4433 065e 52000000 		.4byte	.LVL81
 4434 0662 0100     		.2byte	0x1
 4435 0664 56       		.byte	0x56
 4436 0665 52000000 		.4byte	.LVL81
 4437 0669 58000000 		.4byte	.LFE14
 4438 066d 0400     		.2byte	0x4
 4439 066f F3       		.byte	0xf3
 4440 0670 01       		.uleb128 0x1
ARM GAS  C:\Users\u0036181\AppData\Local\Temp\cch2Rq0R.s 			page 100


 4441 0671 51       		.byte	0x51
 4442 0672 9F       		.byte	0x9f
 4443 0673 00000000 		.4byte	0
 4444 0677 00000000 		.4byte	0
 4445              	.LLST30:
 4446 067b 10000000 		.4byte	.LVL75
 4447 067f 52000000 		.4byte	.LVL81
 4448 0683 0100     		.2byte	0x1
 4449 0685 54       		.byte	0x54
 4450 0686 00000000 		.4byte	0
 4451 068a 00000000 		.4byte	0
 4452              	.LLST31:
 4453 068e 00000000 		.4byte	.LVL82
 4454 0692 0B000000 		.4byte	.LVL83-1
 4455 0696 0100     		.2byte	0x1
 4456 0698 50       		.byte	0x50
 4457 0699 0B000000 		.4byte	.LVL83-1
 4458 069d 68000000 		.4byte	.LVL96
 4459 06a1 0100     		.2byte	0x1
 4460 06a3 56       		.byte	0x56
 4461 06a4 68000000 		.4byte	.LVL96
 4462 06a8 70000000 		.4byte	.LFE16
 4463 06ac 0400     		.2byte	0x4
 4464 06ae F3       		.byte	0xf3
 4465 06af 01       		.uleb128 0x1
 4466 06b0 50       		.byte	0x50
 4467 06b1 9F       		.byte	0x9f
 4468 06b2 00000000 		.4byte	0
 4469 06b6 00000000 		.4byte	0
 4470              	.LLST32:
 4471 06ba 00000000 		.4byte	.LVL82
 4472 06be 0B000000 		.4byte	.LVL83-1
 4473 06c2 0100     		.2byte	0x1
 4474 06c4 51       		.byte	0x51
 4475 06c5 0B000000 		.4byte	.LVL83-1
 4476 06c9 38000000 		.4byte	.LVL88
 4477 06cd 0100     		.2byte	0x1
 4478 06cf 54       		.byte	0x54
 4479 06d0 38000000 		.4byte	.LVL88
 4480 06d4 3A000000 		.4byte	.LVL89
 4481 06d8 0400     		.2byte	0x4
 4482 06da F3       		.byte	0xf3
 4483 06db 01       		.uleb128 0x1
 4484 06dc 51       		.byte	0x51
 4485 06dd 9F       		.byte	0x9f
 4486 06de 3A000000 		.4byte	.LVL89
 4487 06e2 68000000 		.4byte	.LVL96
 4488 06e6 0100     		.2byte	0x1
 4489 06e8 54       		.byte	0x54
 4490 06e9 00000000 		.4byte	0
 4491 06ed 00000000 		.4byte	0
 4492              	.LLST33:
 4493 06f1 12000000 		.4byte	.LVL84
 4494 06f5 21000000 		.4byte	.LVL85-1
 4495 06f9 0100     		.2byte	0x1
 4496 06fb 50       		.byte	0x50
 4497 06fc 21000000 		.4byte	.LVL85-1
ARM GAS  C:\Users\u0036181\AppData\Local\Temp\cch2Rq0R.s 			page 101


 4498 0700 2C000000 		.4byte	.LVL87
 4499 0704 0100     		.2byte	0x1
 4500 0706 55       		.byte	0x55
 4501 0707 2C000000 		.4byte	.LVL87
 4502 070b 44000000 		.4byte	.LVL91
 4503 070f 0100     		.2byte	0x1
 4504 0711 50       		.byte	0x50
 4505 0712 44000000 		.4byte	.LVL91
 4506 0716 60000000 		.4byte	.LVL94
 4507 071a 0100     		.2byte	0x1
 4508 071c 55       		.byte	0x55
 4509 071d 60000000 		.4byte	.LVL94
 4510 0721 63000000 		.4byte	.LVL95-1
 4511 0725 0100     		.2byte	0x1
 4512 0727 50       		.byte	0x50
 4513 0728 00000000 		.4byte	0
 4514 072c 00000000 		.4byte	0
 4515              	.LLST34:
 4516 0730 0E000000 		.4byte	.LVL97
 4517 0734 BA000000 		.4byte	.LVL111
 4518 0738 0100     		.2byte	0x1
 4519 073a 54       		.byte	0x54
 4520 073b 00000000 		.4byte	0
 4521 073f 00000000 		.4byte	0
 4522              	.LLST35:
 4523 0743 1E000000 		.4byte	.LVL99
 4524 0747 4A000000 		.4byte	.LVL100
 4525 074b 0100     		.2byte	0x1
 4526 074d 50       		.byte	0x50
 4527 074e 4A000000 		.4byte	.LVL100
 4528 0752 4D000000 		.4byte	.LVL101-1
 4529 0756 0100     		.2byte	0x1
 4530 0758 52       		.byte	0x52
 4531 0759 74000000 		.4byte	.LVL104
 4532 075d 9A000000 		.4byte	.LVL105
 4533 0761 0100     		.2byte	0x1
 4534 0763 50       		.byte	0x50
 4535 0764 9A000000 		.4byte	.LVL105
 4536 0768 9D000000 		.4byte	.LVL106-1
 4537 076c 0100     		.2byte	0x1
 4538 076e 52       		.byte	0x52
 4539 076f A0000000 		.4byte	.LVL107
 4540 0773 AC000000 		.4byte	.LVL108
 4541 0777 0100     		.2byte	0x1
 4542 0779 50       		.byte	0x50
 4543 077a B2000000 		.4byte	.LVL110
 4544 077e BA000000 		.4byte	.LVL111
 4545 0782 0100     		.2byte	0x1
 4546 0784 50       		.byte	0x50
 4547 0785 00000000 		.4byte	0
 4548 0789 00000000 		.4byte	0
 4549              	.LLST36:
 4550 078d 00000000 		.4byte	.LVL113
 4551 0791 04000000 		.4byte	.LVL114
 4552 0795 0100     		.2byte	0x1
 4553 0797 50       		.byte	0x50
 4554 0798 04000000 		.4byte	.LVL114
ARM GAS  C:\Users\u0036181\AppData\Local\Temp\cch2Rq0R.s 			page 102


 4555 079c 16000000 		.4byte	.LFE15
 4556 07a0 0400     		.2byte	0x4
 4557 07a2 F3       		.byte	0xf3
 4558 07a3 01       		.uleb128 0x1
 4559 07a4 50       		.byte	0x50
 4560 07a5 9F       		.byte	0x9f
 4561 07a6 00000000 		.4byte	0
 4562 07aa 00000000 		.4byte	0
 4563              	.LLST37:
 4564 07ae 0A000000 		.4byte	.LVL115
 4565 07b2 0F000000 		.4byte	.LVL116-1
 4566 07b6 0100     		.2byte	0x1
 4567 07b8 50       		.byte	0x50
 4568 07b9 00000000 		.4byte	0
 4569 07bd 00000000 		.4byte	0
 4570              	.LLST38:
 4571 07c1 00000000 		.4byte	.LVL118
 4572 07c5 02000000 		.4byte	.LVL119
 4573 07c9 0100     		.2byte	0x1
 4574 07cb 50       		.byte	0x50
 4575 07cc 02000000 		.4byte	.LVL119
 4576 07d0 04000000 		.4byte	.LFE9
 4577 07d4 0400     		.2byte	0x4
 4578 07d6 F3       		.byte	0xf3
 4579 07d7 01       		.uleb128 0x1
 4580 07d8 50       		.byte	0x50
 4581 07d9 9F       		.byte	0x9f
 4582 07da 00000000 		.4byte	0
 4583 07de 00000000 		.4byte	0
 4584              	.LLST39:
 4585 07e2 00000000 		.4byte	.LVL118
 4586 07e6 02000000 		.4byte	.LVL119
 4587 07ea 0100     		.2byte	0x1
 4588 07ec 50       		.byte	0x50
 4589 07ed 02000000 		.4byte	.LVL119
 4590 07f1 04000000 		.4byte	.LFE9
 4591 07f5 0400     		.2byte	0x4
 4592 07f7 F3       		.byte	0xf3
 4593 07f8 01       		.uleb128 0x1
 4594 07f9 50       		.byte	0x50
 4595 07fa 9F       		.byte	0x9f
 4596 07fb 00000000 		.4byte	0
 4597 07ff 00000000 		.4byte	0
 4598              	.LLST40:
 4599 0803 00000000 		.4byte	.LVL120
 4600 0807 09000000 		.4byte	.LVL122-1
 4601 080b 0100     		.2byte	0x1
 4602 080d 50       		.byte	0x50
 4603 080e 09000000 		.4byte	.LVL122-1
 4604 0812 2C000000 		.4byte	.LFE10
 4605 0816 0100     		.2byte	0x1
 4606 0818 54       		.byte	0x54
 4607 0819 00000000 		.4byte	0
 4608 081d 00000000 		.4byte	0
 4609              	.LLST41:
 4610 0821 00000000 		.4byte	.LVL120
 4611 0825 09000000 		.4byte	.LVL122-1
ARM GAS  C:\Users\u0036181\AppData\Local\Temp\cch2Rq0R.s 			page 103


 4612 0829 0100     		.2byte	0x1
 4613 082b 51       		.byte	0x51
 4614 082c 09000000 		.4byte	.LVL122-1
 4615 0830 2C000000 		.4byte	.LFE10
 4616 0834 0100     		.2byte	0x1
 4617 0836 55       		.byte	0x55
 4618 0837 00000000 		.4byte	0
 4619 083b 00000000 		.4byte	0
 4620              	.LLST42:
 4621 083f 06000000 		.4byte	.LVL121
 4622 0843 09000000 		.4byte	.LVL122-1
 4623 0847 0100     		.2byte	0x1
 4624 0849 50       		.byte	0x50
 4625 084a 09000000 		.4byte	.LVL122-1
 4626 084e 2C000000 		.4byte	.LFE10
 4627 0852 0100     		.2byte	0x1
 4628 0854 54       		.byte	0x54
 4629 0855 00000000 		.4byte	0
 4630 0859 00000000 		.4byte	0
 4631              	.LLST43:
 4632 085d 00000000 		.4byte	.LVL124
 4633 0861 07000000 		.4byte	.LVL126-1
 4634 0865 0100     		.2byte	0x1
 4635 0867 50       		.byte	0x50
 4636 0868 07000000 		.4byte	.LVL126-1
 4637 086c 14000000 		.4byte	.LVL127
 4638 0870 0100     		.2byte	0x1
 4639 0872 54       		.byte	0x54
 4640 0873 14000000 		.4byte	.LVL127
 4641 0877 16000000 		.4byte	.LVL128
 4642 087b 0400     		.2byte	0x4
 4643 087d F3       		.byte	0xf3
 4644 087e 01       		.uleb128 0x1
 4645 087f 50       		.byte	0x50
 4646 0880 9F       		.byte	0x9f
 4647 0881 16000000 		.4byte	.LVL128
 4648 0885 18000000 		.4byte	.LVL129
 4649 0889 0100     		.2byte	0x1
 4650 088b 54       		.byte	0x54
 4651 088c 18000000 		.4byte	.LVL129
 4652 0890 20000000 		.4byte	.LFE11
 4653 0894 0400     		.2byte	0x4
 4654 0896 F3       		.byte	0xf3
 4655 0897 01       		.uleb128 0x1
 4656 0898 50       		.byte	0x50
 4657 0899 9F       		.byte	0x9f
 4658 089a 00000000 		.4byte	0
 4659 089e 00000000 		.4byte	0
 4660              	.LLST44:
 4661 08a2 04000000 		.4byte	.LVL125
 4662 08a6 07000000 		.4byte	.LVL126-1
 4663 08aa 0100     		.2byte	0x1
 4664 08ac 50       		.byte	0x50
 4665 08ad 07000000 		.4byte	.LVL126-1
 4666 08b1 14000000 		.4byte	.LVL127
 4667 08b5 0100     		.2byte	0x1
 4668 08b7 54       		.byte	0x54
ARM GAS  C:\Users\u0036181\AppData\Local\Temp\cch2Rq0R.s 			page 104


 4669 08b8 14000000 		.4byte	.LVL127
 4670 08bc 16000000 		.4byte	.LVL128
 4671 08c0 0400     		.2byte	0x4
 4672 08c2 F3       		.byte	0xf3
 4673 08c3 01       		.uleb128 0x1
 4674 08c4 50       		.byte	0x50
 4675 08c5 9F       		.byte	0x9f
 4676 08c6 16000000 		.4byte	.LVL128
 4677 08ca 18000000 		.4byte	.LVL129
 4678 08ce 0100     		.2byte	0x1
 4679 08d0 54       		.byte	0x54
 4680 08d1 18000000 		.4byte	.LVL129
 4681 08d5 20000000 		.4byte	.LFE11
 4682 08d9 0400     		.2byte	0x4
 4683 08db F3       		.byte	0xf3
 4684 08dc 01       		.uleb128 0x1
 4685 08dd 50       		.byte	0x50
 4686 08de 9F       		.byte	0x9f
 4687 08df 00000000 		.4byte	0
 4688 08e3 00000000 		.4byte	0
 4689              	.LLST45:
 4690 08e7 00000000 		.4byte	.LVL131
 4691 08eb 02000000 		.4byte	.LVL132
 4692 08ef 0100     		.2byte	0x1
 4693 08f1 50       		.byte	0x50
 4694 08f2 02000000 		.4byte	.LVL132
 4695 08f6 04000000 		.4byte	.LFE12
 4696 08fa 0400     		.2byte	0x4
 4697 08fc F3       		.byte	0xf3
 4698 08fd 01       		.uleb128 0x1
 4699 08fe 50       		.byte	0x50
 4700 08ff 9F       		.byte	0x9f
 4701 0900 00000000 		.4byte	0
 4702 0904 00000000 		.4byte	0
 4703              	.LLST46:
 4704 0908 00000000 		.4byte	.LVL131
 4705 090c 02000000 		.4byte	.LVL132
 4706 0910 0100     		.2byte	0x1
 4707 0912 50       		.byte	0x50
 4708 0913 02000000 		.4byte	.LVL132
 4709 0917 04000000 		.4byte	.LFE12
 4710 091b 0400     		.2byte	0x4
 4711 091d F3       		.byte	0xf3
 4712 091e 01       		.uleb128 0x1
 4713 091f 50       		.byte	0x50
 4714 0920 9F       		.byte	0x9f
 4715 0921 00000000 		.4byte	0
 4716 0925 00000000 		.4byte	0
 4717              	.LLST47:
 4718 0929 00000000 		.4byte	.LVL131
 4719 092d 02000000 		.4byte	.LVL132
 4720 0931 0200     		.2byte	0x2
 4721 0933 70       		.byte	0x70
 4722 0934 04       		.sleb128 4
 4723 0935 02000000 		.4byte	.LVL132
 4724 0939 04000000 		.4byte	.LFE12
 4725 093d 0100     		.2byte	0x1
ARM GAS  C:\Users\u0036181\AppData\Local\Temp\cch2Rq0R.s 			page 105


 4726 093f 50       		.byte	0x50
 4727 0940 00000000 		.4byte	0
 4728 0944 00000000 		.4byte	0
 4729              	.LLST48:
 4730 0948 00000000 		.4byte	.LVL133
 4731 094c 02000000 		.4byte	.LVL134
 4732 0950 0100     		.2byte	0x1
 4733 0952 50       		.byte	0x50
 4734 0953 02000000 		.4byte	.LVL134
 4735 0957 04000000 		.4byte	.LFE13
 4736 095b 0400     		.2byte	0x4
 4737 095d F3       		.byte	0xf3
 4738 095e 01       		.uleb128 0x1
 4739 095f 50       		.byte	0x50
 4740 0960 9F       		.byte	0x9f
 4741 0961 00000000 		.4byte	0
 4742 0965 00000000 		.4byte	0
 4743              	.LLST49:
 4744 0969 00000000 		.4byte	.LVL133
 4745 096d 02000000 		.4byte	.LVL134
 4746 0971 0100     		.2byte	0x1
 4747 0973 50       		.byte	0x50
 4748 0974 02000000 		.4byte	.LVL134
 4749 0978 04000000 		.4byte	.LFE13
 4750 097c 0400     		.2byte	0x4
 4751 097e F3       		.byte	0xf3
 4752 097f 01       		.uleb128 0x1
 4753 0980 50       		.byte	0x50
 4754 0981 9F       		.byte	0x9f
 4755 0982 00000000 		.4byte	0
 4756 0986 00000000 		.4byte	0
 4757              	.LLST50:
 4758 098a 00000000 		.4byte	.LVL135
 4759 098e 07000000 		.4byte	.LVL137-1
 4760 0992 0100     		.2byte	0x1
 4761 0994 50       		.byte	0x50
 4762 0995 07000000 		.4byte	.LVL137-1
 4763 0999 14000000 		.4byte	.LVL138
 4764 099d 0100     		.2byte	0x1
 4765 099f 54       		.byte	0x54
 4766 09a0 14000000 		.4byte	.LVL138
 4767 09a4 16000000 		.4byte	.LVL139
 4768 09a8 0400     		.2byte	0x4
 4769 09aa F3       		.byte	0xf3
 4770 09ab 01       		.uleb128 0x1
 4771 09ac 50       		.byte	0x50
 4772 09ad 9F       		.byte	0x9f
 4773 09ae 16000000 		.4byte	.LVL139
 4774 09b2 18000000 		.4byte	.LVL140
 4775 09b6 0100     		.2byte	0x1
 4776 09b8 54       		.byte	0x54
 4777 09b9 18000000 		.4byte	.LVL140
 4778 09bd 20000000 		.4byte	.LFE23
 4779 09c1 0400     		.2byte	0x4
 4780 09c3 F3       		.byte	0xf3
 4781 09c4 01       		.uleb128 0x1
 4782 09c5 50       		.byte	0x50
ARM GAS  C:\Users\u0036181\AppData\Local\Temp\cch2Rq0R.s 			page 106


 4783 09c6 9F       		.byte	0x9f
 4784 09c7 00000000 		.4byte	0
 4785 09cb 00000000 		.4byte	0
 4786              	.LLST51:
 4787 09cf 04000000 		.4byte	.LVL136
 4788 09d3 07000000 		.4byte	.LVL137-1
 4789 09d7 0100     		.2byte	0x1
 4790 09d9 50       		.byte	0x50
 4791 09da 07000000 		.4byte	.LVL137-1
 4792 09de 14000000 		.4byte	.LVL138
 4793 09e2 0100     		.2byte	0x1
 4794 09e4 54       		.byte	0x54
 4795 09e5 14000000 		.4byte	.LVL138
 4796 09e9 16000000 		.4byte	.LVL139
 4797 09ed 0400     		.2byte	0x4
 4798 09ef F3       		.byte	0xf3
 4799 09f0 01       		.uleb128 0x1
 4800 09f1 50       		.byte	0x50
 4801 09f2 9F       		.byte	0x9f
 4802 09f3 16000000 		.4byte	.LVL139
 4803 09f7 18000000 		.4byte	.LVL140
 4804 09fb 0100     		.2byte	0x1
 4805 09fd 54       		.byte	0x54
 4806 09fe 18000000 		.4byte	.LVL140
 4807 0a02 20000000 		.4byte	.LFE23
 4808 0a06 0400     		.2byte	0x4
 4809 0a08 F3       		.byte	0xf3
 4810 0a09 01       		.uleb128 0x1
 4811 0a0a 50       		.byte	0x50
 4812 0a0b 9F       		.byte	0x9f
 4813 0a0c 00000000 		.4byte	0
 4814 0a10 00000000 		.4byte	0
 4815              	.LLST52:
 4816 0a14 00000000 		.4byte	.LVL142
 4817 0a18 07000000 		.4byte	.LVL144-1
 4818 0a1c 0100     		.2byte	0x1
 4819 0a1e 50       		.byte	0x50
 4820 0a1f 07000000 		.4byte	.LVL144-1
 4821 0a23 0A000000 		.4byte	.LVL145
 4822 0a27 0100     		.2byte	0x1
 4823 0a29 54       		.byte	0x54
 4824 0a2a 0A000000 		.4byte	.LVL145
 4825 0a2e 12000000 		.4byte	.LFE24
 4826 0a32 0400     		.2byte	0x4
 4827 0a34 F3       		.byte	0xf3
 4828 0a35 01       		.uleb128 0x1
 4829 0a36 50       		.byte	0x50
 4830 0a37 9F       		.byte	0x9f
 4831 0a38 00000000 		.4byte	0
 4832 0a3c 00000000 		.4byte	0
 4833              	.LLST53:
 4834 0a40 04000000 		.4byte	.LVL143
 4835 0a44 07000000 		.4byte	.LVL144-1
 4836 0a48 0100     		.2byte	0x1
 4837 0a4a 50       		.byte	0x50
 4838 0a4b 07000000 		.4byte	.LVL144-1
 4839 0a4f 0A000000 		.4byte	.LVL145
ARM GAS  C:\Users\u0036181\AppData\Local\Temp\cch2Rq0R.s 			page 107


 4840 0a53 0100     		.2byte	0x1
 4841 0a55 54       		.byte	0x54
 4842 0a56 0A000000 		.4byte	.LVL145
 4843 0a5a 12000000 		.4byte	.LFE24
 4844 0a5e 0400     		.2byte	0x4
 4845 0a60 F3       		.byte	0xf3
 4846 0a61 01       		.uleb128 0x1
 4847 0a62 50       		.byte	0x50
 4848 0a63 9F       		.byte	0x9f
 4849 0a64 00000000 		.4byte	0
 4850 0a68 00000000 		.4byte	0
 4851              	.LLST54:
 4852 0a6c 00000000 		.4byte	.LVL147
 4853 0a70 09000000 		.4byte	.LVL149-1
 4854 0a74 0100     		.2byte	0x1
 4855 0a76 50       		.byte	0x50
 4856 0a77 09000000 		.4byte	.LVL149-1
 4857 0a7b 12000000 		.4byte	.LFE25
 4858 0a7f 0100     		.2byte	0x1
 4859 0a81 54       		.byte	0x54
 4860 0a82 00000000 		.4byte	0
 4861 0a86 00000000 		.4byte	0
 4862              	.LLST55:
 4863 0a8a 00000000 		.4byte	.LVL147
 4864 0a8e 09000000 		.4byte	.LVL149-1
 4865 0a92 0100     		.2byte	0x1
 4866 0a94 51       		.byte	0x51
 4867 0a95 09000000 		.4byte	.LVL149-1
 4868 0a99 12000000 		.4byte	.LFE25
 4869 0a9d 0100     		.2byte	0x1
 4870 0a9f 55       		.byte	0x55
 4871 0aa0 00000000 		.4byte	0
 4872 0aa4 00000000 		.4byte	0
 4873              	.LLST56:
 4874 0aa8 06000000 		.4byte	.LVL148
 4875 0aac 09000000 		.4byte	.LVL149-1
 4876 0ab0 0100     		.2byte	0x1
 4877 0ab2 50       		.byte	0x50
 4878 0ab3 09000000 		.4byte	.LVL149-1
 4879 0ab7 12000000 		.4byte	.LFE25
 4880 0abb 0100     		.2byte	0x1
 4881 0abd 54       		.byte	0x54
 4882 0abe 00000000 		.4byte	0
 4883 0ac2 00000000 		.4byte	0
 4884              		.section	.debug_aranges,"",%progbits
 4885 0000 C4000000 		.4byte	0xc4
 4886 0004 0200     		.2byte	0x2
 4887 0006 00000000 		.4byte	.Ldebug_info0
 4888 000a 04       		.byte	0x4
 4889 000b 00       		.byte	0
 4890 000c 0000     		.2byte	0
 4891 000e 0000     		.2byte	0
 4892 0010 00000000 		.4byte	.LFB17
 4893 0014 20000000 		.4byte	.LFE17-.LFB17
 4894 0018 00000000 		.4byte	.LFB19
 4895 001c 44000000 		.4byte	.LFE19-.LFB19
 4896 0020 00000000 		.4byte	.LFB22
ARM GAS  C:\Users\u0036181\AppData\Local\Temp\cch2Rq0R.s 			page 108


 4897 0024 48000000 		.4byte	.LFE22-.LFB22
 4898 0028 00000000 		.4byte	.LFB6
 4899 002c 38000000 		.4byte	.LFE6-.LFB6
 4900 0030 00000000 		.4byte	.LFB4
 4901 0034 3C000000 		.4byte	.LFE4-.LFB4
 4902 0038 00000000 		.4byte	.LFB5
 4903 003c 38000000 		.4byte	.LFE5-.LFB5
 4904 0040 00000000 		.4byte	.LFB7
 4905 0044 58000000 		.4byte	.LFE7-.LFB7
 4906 0048 00000000 		.4byte	.LFB21
 4907 004c 64000000 		.4byte	.LFE21-.LFB21
 4908 0050 00000000 		.4byte	.LFB18
 4909 0054 2C000000 		.4byte	.LFE18-.LFB18
 4910 0058 00000000 		.4byte	.LFB14
 4911 005c 58000000 		.4byte	.LFE14-.LFB14
 4912 0060 00000000 		.4byte	.LFB16
 4913 0064 70000000 		.4byte	.LFE16-.LFB16
 4914 0068 00000000 		.4byte	.LFB20
 4915 006c D4000000 		.4byte	.LFE20-.LFB20
 4916 0070 00000000 		.4byte	.LFB15
 4917 0074 16000000 		.4byte	.LFE15-.LFB15
 4918 0078 00000000 		.4byte	.LFB8
 4919 007c 0C000000 		.4byte	.LFE8-.LFB8
 4920 0080 00000000 		.4byte	.LFB9
 4921 0084 04000000 		.4byte	.LFE9-.LFB9
 4922 0088 00000000 		.4byte	.LFB10
 4923 008c 2C000000 		.4byte	.LFE10-.LFB10
 4924 0090 00000000 		.4byte	.LFB11
 4925 0094 20000000 		.4byte	.LFE11-.LFB11
 4926 0098 00000000 		.4byte	.LFB12
 4927 009c 04000000 		.4byte	.LFE12-.LFB12
 4928 00a0 00000000 		.4byte	.LFB13
 4929 00a4 04000000 		.4byte	.LFE13-.LFB13
 4930 00a8 00000000 		.4byte	.LFB23
 4931 00ac 20000000 		.4byte	.LFE23-.LFB23
 4932 00b0 00000000 		.4byte	.LFB24
 4933 00b4 12000000 		.4byte	.LFE24-.LFB24
 4934 00b8 00000000 		.4byte	.LFB25
 4935 00bc 12000000 		.4byte	.LFE25-.LFB25
 4936 00c0 00000000 		.4byte	0
 4937 00c4 00000000 		.4byte	0
 4938              		.section	.debug_ranges,"",%progbits
 4939              	.Ldebug_ranges0:
 4940 0000 00000000 		.4byte	.LFB17
 4941 0004 20000000 		.4byte	.LFE17
 4942 0008 00000000 		.4byte	.LFB19
 4943 000c 44000000 		.4byte	.LFE19
 4944 0010 00000000 		.4byte	.LFB22
 4945 0014 48000000 		.4byte	.LFE22
 4946 0018 00000000 		.4byte	.LFB6
 4947 001c 38000000 		.4byte	.LFE6
 4948 0020 00000000 		.4byte	.LFB4
 4949 0024 3C000000 		.4byte	.LFE4
 4950 0028 00000000 		.4byte	.LFB5
 4951 002c 38000000 		.4byte	.LFE5
 4952 0030 00000000 		.4byte	.LFB7
 4953 0034 58000000 		.4byte	.LFE7
ARM GAS  C:\Users\u0036181\AppData\Local\Temp\cch2Rq0R.s 			page 109


 4954 0038 00000000 		.4byte	.LFB21
 4955 003c 64000000 		.4byte	.LFE21
 4956 0040 00000000 		.4byte	.LFB18
 4957 0044 2C000000 		.4byte	.LFE18
 4958 0048 00000000 		.4byte	.LFB14
 4959 004c 58000000 		.4byte	.LFE14
 4960 0050 00000000 		.4byte	.LFB16
 4961 0054 70000000 		.4byte	.LFE16
 4962 0058 00000000 		.4byte	.LFB20
 4963 005c D4000000 		.4byte	.LFE20
 4964 0060 00000000 		.4byte	.LFB15
 4965 0064 16000000 		.4byte	.LFE15
 4966 0068 00000000 		.4byte	.LFB8
 4967 006c 0C000000 		.4byte	.LFE8
 4968 0070 00000000 		.4byte	.LFB9
 4969 0074 04000000 		.4byte	.LFE9
 4970 0078 00000000 		.4byte	.LFB10
 4971 007c 2C000000 		.4byte	.LFE10
 4972 0080 00000000 		.4byte	.LFB11
 4973 0084 20000000 		.4byte	.LFE11
 4974 0088 00000000 		.4byte	.LFB12
 4975 008c 04000000 		.4byte	.LFE12
 4976 0090 00000000 		.4byte	.LFB13
 4977 0094 04000000 		.4byte	.LFE13
 4978 0098 00000000 		.4byte	.LFB23
 4979 009c 20000000 		.4byte	.LFE23
 4980 00a0 00000000 		.4byte	.LFB24
 4981 00a4 12000000 		.4byte	.LFE24
 4982 00a8 00000000 		.4byte	.LFB25
 4983 00ac 12000000 		.4byte	.LFE25
 4984 00b0 00000000 		.4byte	0
 4985 00b4 00000000 		.4byte	0
 4986              		.section	.debug_line,"",%progbits
 4987              	.Ldebug_line0:
 4988 0000 5F040000 		.section	.debug_str,"MS",%progbits,1
 4988      0200FF01 
 4988      00000201 
 4988      FB0E0D00 
 4988      01010101 
 4989              	.LASF108:
 4990 0000 764C6973 		.ascii	"vListInsert\000"
 4990      74496E73 
 4990      65727400 
 4991              	.LASF83:
 4992 000c 70727650 		.ascii	"prvProcessExpiredTimer\000"
 4992      726F6365 
 4992      73734578 
 4992      70697265 
 4992      6454696D 
 4993              	.LASF60:
 4994 0023 78436F6D 		.ascii	"xCommandTime\000"
 4994      6D616E64 
 4994      54696D65 
 4994      00
 4995              	.LASF26:
 4996 0030 75784E75 		.ascii	"uxNumberOfItems\000"
 4996      6D626572 
ARM GAS  C:\Users\u0036181\AppData\Local\Temp\cch2Rq0R.s 			page 110


 4996      4F664974 
 4996      656D7300 
 4997              	.LASF41:
 4998 0040 7854696D 		.ascii	"xTimerPeriodInTicks\000"
 4998      65725065 
 4998      72696F64 
 4998      496E5469 
 4998      636B7300 
 4999              	.LASF113:
 5000 0054 76506F72 		.ascii	"vPortExitCritical\000"
 5000      74457869 
 5000      74437269 
 5000      74696361 
 5000      6C00
 5001              	.LASF43:
 5002 0066 70784361 		.ascii	"pxCallbackFunction\000"
 5002      6C6C6261 
 5002      636B4675 
 5002      6E637469 
 5002      6F6E00
 5003              	.LASF57:
 5004 0079 70784C69 		.ascii	"pxListWasEmpty\000"
 5004      73745761 
 5004      73456D70 
 5004      747900
 5005              	.LASF59:
 5006 0088 7854696D 		.ascii	"xTimeNow\000"
 5006      654E6F77 
 5006      00
 5007              	.LASF35:
 5008 0091 74736B54 		.ascii	"tskTaskControlBlock\000"
 5008      61736B43 
 5008      6F6E7472 
 5008      6F6C426C 
 5008      6F636B00 
 5009              	.LASF130:
 5010 00a5 7854696D 		.ascii	"xTimerParameters\000"
 5010      65725061 
 5010      72616D65 
 5010      74657273 
 5010      00
 5011              	.LASF126:
 5012 00b6 78517565 		.ascii	"xQueueReceive\000"
 5012      75655265 
 5012      63656976 
 5012      6500
 5013              	.LASF117:
 5014 00c4 78546173 		.ascii	"xTaskGetSchedulerState\000"
 5014      6B476574 
 5014      53636865 
 5014      64756C65 
 5014      72537461 
 5015              	.LASF74:
 5016 00db 70784869 		.ascii	"pxHigherPriorityTaskWoken\000"
 5016      67686572 
 5016      5072696F 
 5016      72697479 
ARM GAS  C:\Users\u0036181\AppData\Local\Temp\cch2Rq0R.s 			page 111


 5016      5461736B 
 5017              	.LASF0:
 5018 00f5 756E7369 		.ascii	"unsigned int\000"
 5018      676E6564 
 5018      20696E74 
 5018      00
 5019              	.LASF27:
 5020 0102 7078496E 		.ascii	"pxIndex\000"
 5020      64657800 
 5021              	.LASF39:
 5022 010a 70635469 		.ascii	"pcTimerName\000"
 5022      6D65724E 
 5022      616D6500 
 5023              	.LASF24:
 5024 0116 784C4953 		.ascii	"xLIST_ITEM\000"
 5024      545F4954 
 5024      454D00
 5025              	.LASF90:
 5026 0121 70765061 		.ascii	"pvParameters\000"
 5026      72616D65 
 5026      74657273 
 5026      00
 5027              	.LASF51:
 5028 012e 54696D65 		.ascii	"TimerParameter_t\000"
 5028      72506172 
 5028      616D6574 
 5028      65725F74 
 5028      00
 5029              	.LASF106:
 5030 013f 7854696D 		.ascii	"xTimerQueue\000"
 5030      65725175 
 5030      65756500 
 5031              	.LASF109:
 5032 014b 76506F72 		.ascii	"vPortEnterCritical\000"
 5032      74456E74 
 5032      65724372 
 5032      69746963 
 5032      616C00
 5033              	.LASF45:
 5034 015e 54696D65 		.ascii	"TimerCallbackFunction_t\000"
 5034      7243616C 
 5034      6C626163 
 5034      6B46756E 
 5034      6374696F 
 5035              	.LASF72:
 5036 0176 78436F6D 		.ascii	"xCommandID\000"
 5036      6D616E64 
 5036      494400
 5037              	.LASF93:
 5038 0181 75785265 		.ascii	"uxReturn\000"
 5038      7475726E 
 5038      00
 5039              	.LASF68:
 5040 018a 7854696D 		.ascii	"xTimerCreateTimerTask\000"
 5040      65724372 
 5040      65617465 
 5040      54696D65 
ARM GAS  C:\Users\u0036181\AppData\Local\Temp\cch2Rq0R.s 			page 112


 5040      72546173 
 5041              	.LASF62:
 5042 01a0 7850726F 		.ascii	"xProcessTimerNow\000"
 5042      63657373 
 5042      54696D65 
 5042      724E6F77 
 5042      00
 5043              	.LASF15:
 5044 01b1 75696E74 		.ascii	"uint32_t\000"
 5044      33325F74 
 5044      00
 5045              	.LASF92:
 5046 01ba 75785469 		.ascii	"uxTimerGetReloadMode\000"
 5046      6D657247 
 5046      65745265 
 5046      6C6F6164 
 5046      4D6F6465 
 5047              	.LASF131:
 5048 01cf 7854696D 		.ascii	"xTimerGetTimerDaemonTaskHandle\000"
 5048      65724765 
 5048      7454696D 
 5048      65724461 
 5048      656D6F6E 
 5049              	.LASF37:
 5050 01ee 54696D65 		.ascii	"TimerHandle_t\000"
 5050      7248616E 
 5050      646C655F 
 5050      7400
 5051              	.LASF36:
 5052 01fc 51756575 		.ascii	"QueueDefinition\000"
 5052      65446566 
 5052      696E6974 
 5052      696F6E00 
 5053              	.LASF11:
 5054 020c 6C6F6E67 		.ascii	"long long unsigned int\000"
 5054      206C6F6E 
 5054      6720756E 
 5054      7369676E 
 5054      65642069 
 5055              	.LASF66:
 5056 0223 70784E65 		.ascii	"pxNewTimer\000"
 5056      7754696D 
 5056      657200
 5057              	.LASF21:
 5058 022e 70785072 		.ascii	"pxPrevious\000"
 5058      6576696F 
 5058      757300
 5059              	.LASF98:
 5060 0239 70765265 		.ascii	"pvReturn\000"
 5060      7475726E 
 5060      00
 5061              	.LASF73:
 5062 0242 784F7074 		.ascii	"xOptionalValue\000"
 5062      696F6E61 
 5062      6C56616C 
 5062      756500
 5063              	.LASF116:
ARM GAS  C:\Users\u0036181\AppData\Local\Temp\cch2Rq0R.s 			page 113


 5064 0251 7076506F 		.ascii	"pvPortMalloc\000"
 5064      72744D61 
 5064      6C6C6F63 
 5064      00
 5065              	.LASF122:
 5066 025e 76546173 		.ascii	"vTaskSuspendAll\000"
 5066      6B537573 
 5066      70656E64 
 5066      416C6C00 
 5067              	.LASF96:
 5068 026e 7854696D 		.ascii	"xTimerIsTimerActive\000"
 5068      65724973 
 5068      54696D65 
 5068      72416374 
 5068      69766500 
 5069              	.LASF127:
 5070 0282 474E5520 		.ascii	"GNU C11 5.4.1 20160609 (release) [ARM/embedded-5-br"
 5070      43313120 
 5070      352E342E 
 5070      31203230 
 5070      31363036 
 5071 02b5 616E6368 		.ascii	"anch revision 237715] -mcpu=cortex-m3 -mthumb -g -O"
 5071      20726576 
 5071      6973696F 
 5071      6E203233 
 5071      37373135 
 5072 02e8 67202D66 		.ascii	"g -ffunction-sections -ffat-lto-objects\000"
 5072      66756E63 
 5072      74696F6E 
 5072      2D736563 
 5072      74696F6E 
 5073              	.LASF97:
 5074 0310 70765469 		.ascii	"pvTimerGetTimerID\000"
 5074      6D657247 
 5074      65745469 
 5074      6D657249 
 5074      4400
 5075              	.LASF30:
 5076 0322 784D494E 		.ascii	"xMINI_LIST_ITEM\000"
 5076      495F4C49 
 5076      53545F49 
 5076      54454D00 
 5077              	.LASF105:
 5078 0332 70784F76 		.ascii	"pxOverflowTimerList\000"
 5078      6572666C 
 5078      6F775469 
 5078      6D65724C 
 5078      69737400 
 5079              	.LASF25:
 5080 0346 784C4953 		.ascii	"xLIST\000"
 5080      5400
 5081              	.LASF119:
 5082 034c 78517565 		.ascii	"xQueueGenericSendFromISR\000"
 5082      75654765 
 5082      6E657269 
 5082      6353656E 
 5082      6446726F 
ARM GAS  C:\Users\u0036181\AppData\Local\Temp\cch2Rq0R.s 			page 114


 5083              	.LASF129:
 5084 0365 433A5C44 		.ascii	"C:\\DATA\\software\\embedded_controllers\\Cypress\\"
 5084      4154415C 
 5084      736F6674 
 5084      77617265 
 5084      5C656D62 
 5085 0393 55434C4C 		.ascii	"UCLL_Koen_lib\\UCLL_Koen_lib.cylib\000"
 5085      5F4B6F65 
 5085      6E5F6C69 
 5085      625C5543 
 5085      4C4C5F4B 
 5086              	.LASF64:
 5087 03b5 70727649 		.ascii	"prvInitialiseNewTimer\000"
 5087      6E697469 
 5087      616C6973 
 5087      654E6577 
 5087      54696D65 
 5088              	.LASF52:
 5089 03cb 746D7254 		.ascii	"tmrTimerQueueMessage\000"
 5089      696D6572 
 5089      51756575 
 5089      654D6573 
 5089      73616765 
 5090              	.LASF118:
 5091 03e0 78517565 		.ascii	"xQueueGenericSend\000"
 5091      75654765 
 5091      6E657269 
 5091      6353656E 
 5091      6400
 5092              	.LASF71:
 5093 03f2 7854696D 		.ascii	"xTimer\000"
 5093      657200
 5094              	.LASF46:
 5095 03f9 7854494D 		.ascii	"xTIMER\000"
 5095      455200
 5096              	.LASF102:
 5097 0400 78416374 		.ascii	"xActiveTimerList1\000"
 5097      69766554 
 5097      696D6572 
 5097      4C697374 
 5097      3100
 5098              	.LASF103:
 5099 0412 78416374 		.ascii	"xActiveTimerList2\000"
 5099      69766554 
 5099      696D6572 
 5099      4C697374 
 5099      3200
 5100              	.LASF56:
 5101 0424 70727649 		.ascii	"prvInsertTimerInActiveList\000"
 5101      6E736572 
 5101      7454696D 
 5101      6572496E 
 5101      41637469 
 5102              	.LASF13:
 5103 043f 63686172 		.ascii	"char\000"
 5103      00
 5104              	.LASF29:
ARM GAS  C:\Users\u0036181\AppData\Local\Temp\cch2Rq0R.s 			page 115


 5105 0444 4C697374 		.ascii	"ListItem_t\000"
 5105      4974656D 
 5105      5F7400
 5106              	.LASF17:
 5107 044f 55426173 		.ascii	"UBaseType_t\000"
 5107      65547970 
 5107      655F7400 
 5108              	.LASF94:
 5109 045b 7854696D 		.ascii	"xTimerGetExpiryTime\000"
 5109      65724765 
 5109      74457870 
 5109      69727954 
 5109      696D6500 
 5110              	.LASF34:
 5111 046f 51756575 		.ascii	"QueueHandle_t\000"
 5111      6548616E 
 5111      646C655F 
 5111      7400
 5112              	.LASF69:
 5113 047d 7854696D 		.ascii	"xTimerCreate\000"
 5113      65724372 
 5113      65617465 
 5113      00
 5114              	.LASF80:
 5115 048a 70727653 		.ascii	"prvSampleTimeNow\000"
 5115      616D706C 
 5115      6554696D 
 5115      654E6F77 
 5115      00
 5116              	.LASF28:
 5117 049b 784C6973 		.ascii	"xListEnd\000"
 5117      74456E64 
 5117      00
 5118              	.LASF31:
 5119 04a4 4D696E69 		.ascii	"MiniListItem_t\000"
 5119      4C697374 
 5119      4974656D 
 5119      5F7400
 5120              	.LASF115:
 5121 04b3 78546173 		.ascii	"xTaskCreate\000"
 5121      6B437265 
 5121      61746500 
 5122              	.LASF14:
 5123 04bf 75696E74 		.ascii	"uint8_t\000"
 5123      385F7400 
 5124              	.LASF100:
 5125 04c7 7654696D 		.ascii	"vTimerSetTimerID\000"
 5125      65725365 
 5125      7454696D 
 5125      65724944 
 5125      00
 5126              	.LASF87:
 5127 04d8 7854696D 		.ascii	"xTimerListsWereSwitched\000"
 5127      65724C69 
 5127      73747357 
 5127      65726553 
 5127      77697463 
ARM GAS  C:\Users\u0036181\AppData\Local\Temp\cch2Rq0R.s 			page 116


 5128              	.LASF111:
 5129 04f0 78517565 		.ascii	"xQueueGenericCreate\000"
 5129      75654765 
 5129      6E657269 
 5129      63437265 
 5129      61746500 
 5130              	.LASF121:
 5131 0504 78546173 		.ascii	"xTaskGetTickCount\000"
 5131      6B476574 
 5131      5469636B 
 5131      436F756E 
 5131      7400
 5132              	.LASF1:
 5133 0516 6C6F6E67 		.ascii	"long long int\000"
 5133      206C6F6E 
 5133      6720696E 
 5133      7400
 5134              	.LASF101:
 5135 0524 70764E65 		.ascii	"pvNewID\000"
 5135      77494400 
 5136              	.LASF16:
 5137 052c 42617365 		.ascii	"BaseType_t\000"
 5137      54797065 
 5137      5F7400
 5138              	.LASF77:
 5139 0537 70727653 		.ascii	"prvSwitchTimerLists\000"
 5139      77697463 
 5139      6854696D 
 5139      65724C69 
 5139      73747300 
 5140              	.LASF112:
 5141 054b 76517565 		.ascii	"vQueueAddToRegistry\000"
 5141      75654164 
 5141      64546F52 
 5141      65676973 
 5141      74727900 
 5142              	.LASF20:
 5143 055f 70784E65 		.ascii	"pxNext\000"
 5143      787400
 5144              	.LASF33:
 5145 0566 5461736B 		.ascii	"TaskHandle_t\000"
 5145      48616E64 
 5145      6C655F74 
 5145      00
 5146              	.LASF32:
 5147 0573 4C697374 		.ascii	"List_t\000"
 5147      5F7400
 5148              	.LASF18:
 5149 057a 5469636B 		.ascii	"TickType_t\000"
 5149      54797065 
 5149      5F7400
 5150              	.LASF40:
 5151 0585 7854696D 		.ascii	"xTimerListItem\000"
 5151      65724C69 
 5151      73744974 
 5151      656D00
 5152              	.LASF2:
ARM GAS  C:\Users\u0036181\AppData\Local\Temp\cch2Rq0R.s 			page 117


 5153 0594 6C6F6E67 		.ascii	"long double\000"
 5153      20646F75 
 5153      626C6500 
 5154              	.LASF70:
 5155 05a0 7854696D 		.ascii	"xTimerGenericCommand\000"
 5155      65724765 
 5155      6E657269 
 5155      63436F6D 
 5155      6D616E64 
 5156              	.LASF107:
 5157 05b5 7854696D 		.ascii	"xTimerTaskHandle\000"
 5157      65725461 
 5157      736B4861 
 5157      6E646C65 
 5157      00
 5158              	.LASF89:
 5159 05c6 70727654 		.ascii	"prvTimerTask\000"
 5159      696D6572 
 5159      5461736B 
 5159      00
 5160              	.LASF61:
 5161 05d3 784E6578 		.ascii	"xNextExpireTime\000"
 5161      74457870 
 5161      69726554 
 5161      696D6500 
 5162              	.LASF124:
 5163 05e3 76517565 		.ascii	"vQueueWaitForMessageRestricted\000"
 5163      75655761 
 5163      6974466F 
 5163      724D6573 
 5163      73616765 
 5164              	.LASF5:
 5165 0602 73686F72 		.ascii	"short int\000"
 5165      7420696E 
 5165      7400
 5166              	.LASF114:
 5167 060c 764C6973 		.ascii	"vListInitialiseItem\000"
 5167      74496E69 
 5167      7469616C 
 5167      69736549 
 5167      74656D00 
 5168              	.LASF44:
 5169 0620 75635374 		.ascii	"ucStatus\000"
 5169      61747573 
 5169      00
 5170              	.LASF19:
 5171 0629 78497465 		.ascii	"xItemValue\000"
 5171      6D56616C 
 5171      756500
 5172              	.LASF88:
 5173 0634 70727650 		.ascii	"prvProcessReceivedCommands\000"
 5173      726F6365 
 5173      73735265 
 5173      63656976 
 5173      6564436F 
 5174              	.LASF7:
 5175 064f 6C6F6E67 		.ascii	"long int\000"
ARM GAS  C:\Users\u0036181\AppData\Local\Temp\cch2Rq0R.s 			page 118


 5175      20696E74 
 5175      00
 5176              	.LASF82:
 5177 0658 784C6173 		.ascii	"xLastTime\000"
 5177      7454696D 
 5177      6500
 5178              	.LASF123:
 5179 0662 78546173 		.ascii	"xTaskResumeAll\000"
 5179      6B526573 
 5179      756D6541 
 5179      6C6C00
 5180              	.LASF104:
 5181 0671 70784375 		.ascii	"pxCurrentTimerList\000"
 5181      7272656E 
 5181      7454696D 
 5181      65724C69 
 5181      737400
 5182              	.LASF76:
 5183 0684 784D6573 		.ascii	"xMessage\000"
 5183      73616765 
 5183      00
 5184              	.LASF125:
 5185 068d 76506F72 		.ascii	"vPortFree\000"
 5185      74467265 
 5185      6500
 5186              	.LASF86:
 5187 0697 784C6973 		.ascii	"xListWasEmpty\000"
 5187      74576173 
 5187      456D7074 
 5187      7900
 5188              	.LASF42:
 5189 06a5 70765469 		.ascii	"pvTimerID\000"
 5189      6D657249 
 5189      4400
 5190              	.LASF65:
 5191 06af 75784175 		.ascii	"uxAutoReload\000"
 5191      746F5265 
 5191      6C6F6164 
 5191      00
 5192              	.LASF8:
 5193 06bc 5F5F7569 		.ascii	"__uint8_t\000"
 5193      6E74385F 
 5193      7400
 5194              	.LASF47:
 5195 06c6 54696D65 		.ascii	"Timer_t\000"
 5195      725F7400 
 5196              	.LASF53:
 5197 06ce 784D6573 		.ascii	"xMessageID\000"
 5197      73616765 
 5197      494400
 5198              	.LASF54:
 5199 06d9 4461656D 		.ascii	"DaemonTaskMessage_t\000"
 5199      6F6E5461 
 5199      736B4D65 
 5199      73736167 
 5199      655F7400 
 5200              	.LASF78:
ARM GAS  C:\Users\u0036181\AppData\Local\Temp\cch2Rq0R.s 			page 119


 5201 06ed 7852656C 		.ascii	"xReloadTime\000"
 5201      6F616454 
 5201      696D6500 
 5202              	.LASF67:
 5203 06f9 78526574 		.ascii	"xReturn\000"
 5203      75726E00 
 5204              	.LASF12:
 5205 0701 73697A65 		.ascii	"sizetype\000"
 5205      74797065 
 5205      00
 5206              	.LASF10:
 5207 070a 6C6F6E67 		.ascii	"long unsigned int\000"
 5207      20756E73 
 5207      69676E65 
 5207      6420696E 
 5207      7400
 5208              	.LASF120:
 5209 071c 75784C69 		.ascii	"uxListRemove\000"
 5209      73745265 
 5209      6D6F7665 
 5209      00
 5210              	.LASF84:
 5211 0729 78526573 		.ascii	"xResult\000"
 5211      756C7400 
 5212              	.LASF91:
 5213 0731 7854696D 		.ascii	"xTimerGetPeriod\000"
 5213      65724765 
 5213      74506572 
 5213      696F6400 
 5214              	.LASF50:
 5215 0741 70785469 		.ascii	"pxTimer\000"
 5215      6D657200 
 5216              	.LASF23:
 5217 0749 7078436F 		.ascii	"pxContainer\000"
 5217      6E746169 
 5217      6E657200 
 5218              	.LASF79:
 5219 0755 70785465 		.ascii	"pxTemp\000"
 5219      6D7000
 5220              	.LASF4:
 5221 075c 756E7369 		.ascii	"unsigned char\000"
 5221      676E6564 
 5221      20636861 
 5221      7200
 5222              	.LASF49:
 5223 076a 784D6573 		.ascii	"xMessageValue\000"
 5223      73616765 
 5223      56616C75 
 5223      6500
 5224              	.LASF9:
 5225 0778 5F5F7569 		.ascii	"__uint32_t\000"
 5225      6E743332 
 5225      5F7400
 5226              	.LASF63:
 5227 0783 70727643 		.ascii	"prvCheckForValidListAndQueue\000"
 5227      6865636B 
 5227      466F7256 
ARM GAS  C:\Users\u0036181\AppData\Local\Temp\cch2Rq0R.s 			page 120


 5227      616C6964 
 5227      4C697374 
 5228              	.LASF110:
 5229 07a0 764C6973 		.ascii	"vListInitialise\000"
 5229      74496E69 
 5229      7469616C 
 5229      69736500 
 5230              	.LASF38:
 5231 07b0 746D7254 		.ascii	"tmrTimerControl\000"
 5231      696D6572 
 5231      436F6E74 
 5231      726F6C00 
 5232              	.LASF95:
 5233 07c0 70635469 		.ascii	"pcTimerGetName\000"
 5233      6D657247 
 5233      65744E61 
 5233      6D6500
 5234              	.LASF75:
 5235 07cf 78546963 		.ascii	"xTicksToWait\000"
 5235      6B73546F 
 5235      57616974 
 5235      00
 5236              	.LASF22:
 5237 07dc 70764F77 		.ascii	"pvOwner\000"
 5237      6E657200 
 5238              	.LASF85:
 5239 07e4 70727650 		.ascii	"prvProcessTimerOrBlockTask\000"
 5239      726F6365 
 5239      73735469 
 5239      6D65724F 
 5239      72426C6F 
 5240              	.LASF99:
 5241 07ff 7654696D 		.ascii	"vTimerSetReloadMode\000"
 5241      65725365 
 5241      7452656C 
 5241      6F61644D 
 5241      6F646500 
 5242              	.LASF3:
 5243 0813 7369676E 		.ascii	"signed char\000"
 5243      65642063 
 5243      68617200 
 5244              	.LASF58:
 5245 081f 784E6578 		.ascii	"xNextExpiryTime\000"
 5245      74457870 
 5245      69727954 
 5245      696D6500 
 5246              	.LASF6:
 5247 082f 73686F72 		.ascii	"short unsigned int\000"
 5247      7420756E 
 5247      7369676E 
 5247      65642069 
 5247      6E7400
 5248              	.LASF48:
 5249 0842 746D7254 		.ascii	"tmrTimerParameters\000"
 5249      696D6572 
 5249      50617261 
 5249      6D657465 
ARM GAS  C:\Users\u0036181\AppData\Local\Temp\cch2Rq0R.s 			page 121


 5249      727300
 5250              	.LASF128:
 5251 0855 2E2E5C2E 		.ascii	"..\\..\\..\\..\\..\\..\\FreeRTOS\\FreeRTOS\\FreeRTO"
 5251      2E5C2E2E 
 5251      5C2E2E5C 
 5251      2E2E5C2E 
 5251      2E5C4672 
 5252 0880 535C536F 		.ascii	"S\\Source\\timers.c\000"
 5252      75726365 
 5252      5C74696D 
 5252      6572732E 
 5252      6300
 5253              	.LASF55:
 5254 0892 70727647 		.ascii	"prvGetNextExpireTime\000"
 5254      65744E65 
 5254      78744578 
 5254      70697265 
 5254      54696D65 
 5255              	.LASF81:
 5256 08a7 70785469 		.ascii	"pxTimerListsWereSwitched\000"
 5256      6D65724C 
 5256      69737473 
 5256      57657265 
 5256      53776974 
 5257              		.ident	"GCC: (GNU Tools for ARM Embedded Processors) 5.4.1 20160609 (release) [ARM/embedded-5-bran
